
/media/juan/42849DD9849DCFB1/ufc/2025.1/rtos/praticas/rp2040-freertos-project/ProjectFiles/ProjectFiles/blink.elf:     file format elf32-littlearm

Sections:
Idx Name          Size      VMA       LMA       File off  Algn
  0 .text         0000816c  10000000  10000000  00001000  2**4
                  CONTENTS, ALLOC, LOAD, READONLY, CODE
  1 .rodata       00000414  1000816c  1000816c  0000916c  2**2
                  CONTENTS, ALLOC, LOAD, READONLY, DATA
  2 .ARM.exidx    00000008  10008580  10008580  00009580  2**2
                  CONTENTS, ALLOC, LOAD, READONLY, DATA
  3 .binary_info  0000002c  10008588  10008588  00009588  2**2
                  CONTENTS, ALLOC, LOAD, READONLY, DATA
  4 .ram_vector_table 00000110  20000000  20000000  0000c000  2**2
                  ALLOC
  5 .uninitialized_data 00000000  20000110  20000110  0000b8a8  2**0
                  CONTENTS
  6 .data         000012e0  20000110  100085b4  0000a110  2**3
                  CONTENTS, ALLOC, LOAD, READONLY, CODE
  7 .tdata        00000000  200013f0  200013f0  0000b8a8  2**0
                  CONTENTS, ALLOC, LOAD, DATA, THREAD_LOCAL
  8 .tbss         00000000  200013f0  200013f0  00000000  2**0
                  ALLOC, THREAD_LOCAL
  9 .bss          000010d4  200013f0  10009894  0000c3f0  2**3
                  ALLOC
 10 .heap         00000800  200024c4  200024c4  0000b8a8  2**2
                  CONTENTS, READONLY
 11 .scratch_x    00000000  20080000  20080000  0000c0a8  2**0
                  CONTENTS
 12 .scratch_y    00000000  20081000  20081000  0000c0a8  2**0
                  CONTENTS
 13 .stack_dummy  00000800  20081000  20081000  0000c0c0  2**5
                  CONTENTS, READONLY
 14 .flash_end    00000014  10009894  10009894  0000b894  2**2
                  CONTENTS, ALLOC, LOAD, READONLY, DATA
 15 .ARM.attributes 00000034  00000000  00000000  0000c8c0  2**0
                  CONTENTS, READONLY
 16 .comment      00000026  00000000  00000000  0000c8f4  2**0
                  CONTENTS, READONLY
 17 .debug_info   00041e55  00000000  00000000  0000c91a  2**0
                  CONTENTS, READONLY, DEBUGGING, OCTETS
 18 .debug_abbrev 0000c052  00000000  00000000  0004e76f  2**0
                  CONTENTS, READONLY, DEBUGGING, OCTETS
 19 .debug_loclists 0001ef6b  00000000  00000000  0005a7c1  2**0
                  CONTENTS, READONLY, DEBUGGING, OCTETS
 20 .debug_aranges 00001580  00000000  00000000  00079730  2**3
                  CONTENTS, READONLY, DEBUGGING, OCTETS
 21 .debug_rnglists 0000505f  00000000  00000000  0007acb0  2**0
                  CONTENTS, READONLY, DEBUGGING, OCTETS
 22 .debug_line   000277a1  00000000  00000000  0007fd0f  2**0
                  CONTENTS, READONLY, DEBUGGING, OCTETS
 23 .debug_str    0000b86f  00000000  00000000  000a74b0  2**0
                  CONTENTS, READONLY, DEBUGGING, OCTETS
 24 .debug_frame  0000426c  00000000  00000000  000b2d20  2**2
                  CONTENTS, READONLY, DEBUGGING, OCTETS
 25 .debug_line_str 00000136  00000000  00000000  000b6f8c  2**0
                  CONTENTS, READONLY, DEBUGGING, OCTETS

/media/juan/42849DD9849DCFB1/ufc/2025.1/rtos/praticas/rp2040-freertos-project/ProjectFiles/ProjectFiles/blink.elf:     file format elf32-littlearm


Disassembly of section .text:

10000000 <__VECTOR_TABLE>:
10000000:	20082000 	.word	0x20082000
10000004:	1000015d 	.word	0x1000015d
10000008:	10000113 	.word	0x10000113
1000000c:	10000115 	.word	0x10000115
10000010:	10000111 	.word	0x10000111
10000014:	10000111 	.word	0x10000111
10000018:	10000111 	.word	0x10000111
1000001c:	10000111 	.word	0x10000111
10000020:	10000111 	.word	0x10000111
10000024:	10000111 	.word	0x10000111
10000028:	10000111 	.word	0x10000111
1000002c:	10006285 	.word	0x10006285
10000030:	10000111 	.word	0x10000111
10000034:	10000111 	.word	0x10000111
10000038:	100062e1 	.word	0x100062e1
1000003c:	10006325 	.word	0x10006325
10000040:	1000011d 	.word	0x1000011d
10000044:	1000011d 	.word	0x1000011d
10000048:	1000011d 	.word	0x1000011d
1000004c:	1000011d 	.word	0x1000011d
10000050:	1000011d 	.word	0x1000011d
10000054:	1000011d 	.word	0x1000011d
10000058:	1000011d 	.word	0x1000011d
1000005c:	1000011d 	.word	0x1000011d
10000060:	1000011d 	.word	0x1000011d
10000064:	1000011d 	.word	0x1000011d
10000068:	1000011d 	.word	0x1000011d
1000006c:	1000011d 	.word	0x1000011d
10000070:	1000011d 	.word	0x1000011d
10000074:	1000011d 	.word	0x1000011d
10000078:	1000011d 	.word	0x1000011d
1000007c:	1000011d 	.word	0x1000011d
10000080:	1000011d 	.word	0x1000011d
10000084:	1000011d 	.word	0x1000011d
10000088:	1000011d 	.word	0x1000011d
1000008c:	1000011d 	.word	0x1000011d
10000090:	1000011d 	.word	0x1000011d
10000094:	1000011d 	.word	0x1000011d
10000098:	1000011d 	.word	0x1000011d
1000009c:	1000011d 	.word	0x1000011d
100000a0:	1000011d 	.word	0x1000011d
100000a4:	1000011d 	.word	0x1000011d
100000a8:	1000011d 	.word	0x1000011d
100000ac:	1000011d 	.word	0x1000011d
100000b0:	1000011d 	.word	0x1000011d
100000b4:	1000011d 	.word	0x1000011d
100000b8:	1000011d 	.word	0x1000011d
100000bc:	1000011d 	.word	0x1000011d
100000c0:	1000011d 	.word	0x1000011d
100000c4:	1000011d 	.word	0x1000011d
100000c8:	1000011d 	.word	0x1000011d
100000cc:	1000011d 	.word	0x1000011d
100000d0:	1000011d 	.word	0x1000011d
100000d4:	1000011d 	.word	0x1000011d
100000d8:	1000011d 	.word	0x1000011d
100000dc:	1000011d 	.word	0x1000011d
100000e0:	1000011d 	.word	0x1000011d
100000e4:	1000011d 	.word	0x1000011d
100000e8:	1000011d 	.word	0x1000011d
100000ec:	1000011d 	.word	0x1000011d
100000f0:	1000011d 	.word	0x1000011d
100000f4:	1000011d 	.word	0x1000011d
100000f8:	1000011d 	.word	0x1000011d
100000fc:	1000011d 	.word	0x1000011d
10000100:	1000011d 	.word	0x1000011d
10000104:	1000011d 	.word	0x1000011d
10000108:	1000011d 	.word	0x1000011d
1000010c:	1000011d 	.word	0x1000011d

10000110 <isr_invalid>:
10000110:	be00      	bkpt	0x0000

10000112 <isr_nmi>:
10000112:	be00      	bkpt	0x0000

10000114 <isr_hardfault>:
10000114:	be00      	bkpt	0x0000
10000116:	be00      	bkpt	0x0000
10000118:	be00      	bkpt	0x0000
1000011a:	be00      	bkpt	0x0000

1000011c <__unhandled_user_irq>:
1000011c:	f3ef 8005 	mrs	r0, IPSR
10000120:	3810      	subs	r0, #16

10000122 <unhandled_user_irq_num_in_r0>:
10000122:	be00      	bkpt	0x0000

10000124 <binary_info_header>:
10000124:	7188ebf2 	.word	0x7188ebf2
10000128:	10008588 	.word	0x10008588
1000012c:	100085b4 	.word	0x100085b4
10000130:	100001a8 	.word	0x100001a8
10000134:	e71aa390 	.word	0xe71aa390

10000138 <__binary_info_header_end>:
10000138:	ffffded3 	.word	0xffffded3
1000013c:	10210142 	.word	0x10210142
10000140:	000001ff 	.word	0x000001ff
10000144:	0000975c 	.word	0x0000975c
10000148:	ab123579 	.word	0xab123579

1000014c <_entry_point>:
1000014c:	f04f 0000 	mov.w	r0, #0

10000150 <_enter_vtable_in_r0>:
10000150:	4920      	ldr	r1, [pc, #128]	@ (100001d4 <data_cpy_table+0x2c>)
10000152:	6008      	str	r0, [r1, #0]
10000154:	c806      	ldmia	r0!, {r1, r2}
10000156:	f381 8808 	msr	MSP, r1
1000015a:	4710      	bx	r2

1000015c <_reset_handler>:
1000015c:	f04f 4050 	mov.w	r0, #3489660928	@ 0xd0000000
10000160:	6800      	ldr	r0, [r0, #0]
10000162:	b110      	cbz	r0, 1000016a <hold_non_core0_in_bootrom+0x6>

10000164 <hold_non_core0_in_bootrom>:
10000164:	f04f 0000 	mov.w	r0, #0
10000168:	e7f2      	b.n	10000150 <_enter_vtable_in_r0>
1000016a:	a40f      	add	r4, pc, #60	@ (adr r4, 100001a8 <data_cpy_table>)
1000016c:	cc0e      	ldmia	r4!, {r1, r2, r3}
1000016e:	2900      	cmp	r1, #0
10000170:	d002      	beq.n	10000178 <hold_non_core0_in_bootrom+0x14>
10000172:	f000 f815 	bl	100001a0 <data_cpy>
10000176:	e7f9      	b.n	1000016c <hold_non_core0_in_bootrom+0x8>
10000178:	4917      	ldr	r1, [pc, #92]	@ (100001d8 <data_cpy_table+0x30>)
1000017a:	4a18      	ldr	r2, [pc, #96]	@ (100001dc <data_cpy_table+0x34>)
1000017c:	2000      	movs	r0, #0
1000017e:	e000      	b.n	10000182 <bss_fill_test>

10000180 <bss_fill_loop>:
10000180:	c101      	stmia	r1!, {r0}

10000182 <bss_fill_test>:
10000182:	4291      	cmp	r1, r2
10000184:	d1fc      	bne.n	10000180 <bss_fill_loop>

10000186 <platform_entry>:
10000186:	2000      	movs	r0, #0
10000188:	f380 880a 	msr	MSPLIM, r0
1000018c:	4914      	ldr	r1, [pc, #80]	@ (100001e0 <data_cpy_table+0x38>)
1000018e:	4788      	blx	r1
10000190:	4914      	ldr	r1, [pc, #80]	@ (100001e4 <data_cpy_table+0x3c>)
10000192:	4788      	blx	r1
10000194:	4914      	ldr	r1, [pc, #80]	@ (100001e8 <data_cpy_table+0x40>)
10000196:	4788      	blx	r1
10000198:	be00      	bkpt	0x0000
1000019a:	e7fd      	b.n	10000198 <platform_entry+0x12>

1000019c <data_cpy_loop>:
1000019c:	c901      	ldmia	r1!, {r0}
1000019e:	c201      	stmia	r2!, {r0}

100001a0 <data_cpy>:
100001a0:	429a      	cmp	r2, r3
100001a2:	d3fb      	bcc.n	1000019c <data_cpy_loop>
100001a4:	4770      	bx	lr
100001a6:	bf00      	nop

100001a8 <data_cpy_table>:
100001a8:	100085b4 	.word	0x100085b4
100001ac:	20000110 	.word	0x20000110
100001b0:	200013f0 	.word	0x200013f0
100001b4:	10009894 	.word	0x10009894
100001b8:	20080000 	.word	0x20080000
100001bc:	20080000 	.word	0x20080000
100001c0:	10009894 	.word	0x10009894
100001c4:	20081000 	.word	0x20081000
100001c8:	20081000 	.word	0x20081000
100001cc:	00000000 	.word	0x00000000
100001d0:	4770      	bx	lr
100001d2:	0000      	.short	0x0000
100001d4:	e000ed08 	.word	0xe000ed08
100001d8:	200013f0 	.word	0x200013f0
100001dc:	200024c4 	.word	0x200024c4
100001e0:	100019d9 	.word	0x100019d9
100001e4:	100002d5 	.word	0x100002d5
100001e8:	100019d1 	.word	0x100019d1

100001ec <_init>:
100001ec:	b5f8      	push	{r3, r4, r5, r6, r7, lr}
100001ee:	bf00      	nop

100001f0 <deregister_tm_clones>:
100001f0:	4803      	ldr	r0, [pc, #12]	@ (10000200 <deregister_tm_clones+0x10>)
100001f2:	4b04      	ldr	r3, [pc, #16]	@ (10000204 <deregister_tm_clones+0x14>)
100001f4:	4283      	cmp	r3, r0
100001f6:	d002      	beq.n	100001fe <deregister_tm_clones+0xe>
100001f8:	4b03      	ldr	r3, [pc, #12]	@ (10000208 <deregister_tm_clones+0x18>)
100001fa:	b103      	cbz	r3, 100001fe <deregister_tm_clones+0xe>
100001fc:	4718      	bx	r3
100001fe:	4770      	bx	lr
10000200:	200013f0 	.word	0x200013f0
10000204:	200013f0 	.word	0x200013f0
10000208:	00000000 	.word	0x00000000

1000020c <register_tm_clones>:
1000020c:	4b06      	ldr	r3, [pc, #24]	@ (10000228 <register_tm_clones+0x1c>)
1000020e:	4907      	ldr	r1, [pc, #28]	@ (1000022c <register_tm_clones+0x20>)
10000210:	1ac9      	subs	r1, r1, r3
10000212:	1089      	asrs	r1, r1, #2
10000214:	bf48      	it	mi
10000216:	3101      	addmi	r1, #1
10000218:	1049      	asrs	r1, r1, #1
1000021a:	d003      	beq.n	10000224 <register_tm_clones+0x18>
1000021c:	4b04      	ldr	r3, [pc, #16]	@ (10000230 <register_tm_clones+0x24>)
1000021e:	b10b      	cbz	r3, 10000224 <register_tm_clones+0x18>
10000220:	4801      	ldr	r0, [pc, #4]	@ (10000228 <register_tm_clones+0x1c>)
10000222:	4718      	bx	r3
10000224:	4770      	bx	lr
10000226:	bf00      	nop
10000228:	200013f0 	.word	0x200013f0
1000022c:	200013f0 	.word	0x200013f0
10000230:	00000000 	.word	0x00000000

10000234 <__do_global_dtors_aux>:
10000234:	b510      	push	{r4, lr}
10000236:	4c06      	ldr	r4, [pc, #24]	@ (10000250 <__do_global_dtors_aux+0x1c>)
10000238:	7823      	ldrb	r3, [r4, #0]
1000023a:	b943      	cbnz	r3, 1000024e <__do_global_dtors_aux+0x1a>
1000023c:	f7ff ffd8 	bl	100001f0 <deregister_tm_clones>
10000240:	4b04      	ldr	r3, [pc, #16]	@ (10000254 <__do_global_dtors_aux+0x20>)
10000242:	b113      	cbz	r3, 1000024a <__do_global_dtors_aux+0x16>
10000244:	4804      	ldr	r0, [pc, #16]	@ (10000258 <__do_global_dtors_aux+0x24>)
10000246:	f3af 8000 	nop.w
1000024a:	2301      	movs	r3, #1
1000024c:	7023      	strb	r3, [r4, #0]
1000024e:	bd10      	pop	{r4, pc}
10000250:	20001690 	.word	0x20001690
10000254:	00000000 	.word	0x00000000
10000258:	1000816c 	.word	0x1000816c

1000025c <frame_dummy>:
1000025c:	b508      	push	{r3, lr}
1000025e:	4b04      	ldr	r3, [pc, #16]	@ (10000270 <frame_dummy+0x14>)
10000260:	b11b      	cbz	r3, 1000026a <frame_dummy+0xe>
10000262:	4904      	ldr	r1, [pc, #16]	@ (10000274 <frame_dummy+0x18>)
10000264:	4804      	ldr	r0, [pc, #16]	@ (10000278 <frame_dummy+0x1c>)
10000266:	f3af 8000 	nop.w
1000026a:	e8bd 4008 	ldmia.w	sp!, {r3, lr}
1000026e:	e7cd      	b.n	1000020c <register_tm_clones>
10000270:	00000000 	.word	0x00000000
10000274:	20001694 	.word	0x20001694
10000278:	1000816c 	.word	0x1000816c

1000027c <led_task>:
1000027c:	b570      	push	{r4, r5, r6, lr}
1000027e:	2019      	movs	r0, #25
10000280:	f000 f86a 	bl	10000358 <gpio_init>
10000284:	f04f 0501 	mov.w	r5, #1
10000288:	2319      	movs	r3, #25
1000028a:	ec45 3044 	gpioc_bit_oe_put r3, r5
1000028e:	f04f 0600 	mov.w	r6, #0
10000292:	2419      	movs	r4, #25
10000294:	ec45 4040 	gpioc_bit_out_put r4, r5
10000298:	2064      	movs	r0, #100	@ 0x64
1000029a:	f004 ffbb 	bl	10005214 <vTaskDelay>
1000029e:	ec46 4040 	gpioc_bit_out_put r4, r6
100002a2:	2064      	movs	r0, #100	@ 0x64
100002a4:	f004 ffb6 	bl	10005214 <vTaskDelay>
100002a8:	e7f3      	b.n	10000292 <led_task+0x16>
100002aa:	bf00      	nop

100002ac <print_task>:
100002ac:	b508      	push	{r3, lr}
100002ae:	4d07      	ldr	r5, [pc, #28]	@ (100002cc <print_task+0x20>)
100002b0:	4c07      	ldr	r4, [pc, #28]	@ (100002d0 <print_task+0x24>)
100002b2:	4628      	mov	r0, r5
100002b4:	f001 fcd6 	bl	10001c64 <__wrap_puts>
100002b8:	2096      	movs	r0, #150	@ 0x96
100002ba:	f004 ffab 	bl	10005214 <vTaskDelay>
100002be:	4620      	mov	r0, r4
100002c0:	f001 fcd0 	bl	10001c64 <__wrap_puts>
100002c4:	2032      	movs	r0, #50	@ 0x32
100002c6:	f004 ffa5 	bl	10005214 <vTaskDelay>
100002ca:	e7f2      	b.n	100002b2 <print_task+0x6>
100002cc:	1000816c 	.word	0x1000816c
100002d0:	1000817c 	.word	0x1000817c

100002d4 <main>:
100002d4:	2400      	movs	r4, #0
100002d6:	2501      	movs	r5, #1
100002d8:	b500      	push	{lr}
100002da:	b083      	sub	sp, #12
100002dc:	f001 fc78 	bl	10001bd0 <stdio_init_all>
100002e0:	f44f 7280 	mov.w	r2, #256	@ 0x100
100002e4:	4623      	mov	r3, r4
100002e6:	4909      	ldr	r1, [pc, #36]	@ (1000030c <main+0x38>)
100002e8:	e9cd 5400 	strd	r5, r4, [sp]
100002ec:	4808      	ldr	r0, [pc, #32]	@ (10000310 <main+0x3c>)
100002ee:	f004 faa1 	bl	10004834 <xTaskCreate>
100002f2:	f44f 7280 	mov.w	r2, #256	@ 0x100
100002f6:	4623      	mov	r3, r4
100002f8:	4906      	ldr	r1, [pc, #24]	@ (10000314 <main+0x40>)
100002fa:	e9cd 5400 	strd	r5, r4, [sp]
100002fe:	4806      	ldr	r0, [pc, #24]	@ (10000318 <main+0x44>)
10000300:	f004 fa98 	bl	10004834 <xTaskCreate>
10000304:	f004 fdc4 	bl	10004e90 <vTaskStartScheduler>
10000308:	e7fe      	b.n	10000308 <main+0x34>
1000030a:	bf00      	nop
1000030c:	10008198 	.word	0x10008198
10000310:	1000027d 	.word	0x1000027d
10000314:	100081a4 	.word	0x100081a4
10000318:	100002ad 	.word	0x100002ad

1000031c <gpio_set_function>:
1000031c:	b410      	push	{r4}
1000031e:	f44f 7480 	mov.w	r4, #256	@ 0x100
10000322:	4b0c      	ldr	r3, [pc, #48]	@ (10000354 <gpio_set_function+0x38>)
10000324:	f853 2020 	ldr.w	r2, [r3, r0, lsl #2]
10000328:	eb03 0380 	add.w	r3, r3, r0, lsl #2
1000032c:	00c0      	lsls	r0, r0, #3
1000032e:	f082 0240 	eor.w	r2, r2, #64	@ 0x40
10000332:	f100 4080 	add.w	r0, r0, #1073741824	@ 0x40000000
10000336:	f503 5c80 	add.w	ip, r3, #4096	@ 0x1000
1000033a:	f002 02c0 	and.w	r2, r2, #192	@ 0xc0
1000033e:	f500 3020 	add.w	r0, r0, #163840	@ 0x28000
10000342:	f503 5340 	add.w	r3, r3, #12288	@ 0x3000
10000346:	f8cc 2000 	str.w	r2, [ip]
1000034a:	6041      	str	r1, [r0, #4]
1000034c:	601c      	str	r4, [r3, #0]
1000034e:	f85d 4b04 	ldr.w	r4, [sp], #4
10000352:	4770      	bx	lr
10000354:	40038004 	.word	0x40038004

10000358 <gpio_init>:
10000358:	b430      	push	{r4, r5}
1000035a:	f04f 0300 	mov.w	r3, #0
1000035e:	ec43 0044 	gpioc_bit_oe_put r0, r3
10000362:	ec43 0040 	gpioc_bit_out_put r0, r3
10000366:	2505      	movs	r5, #5
10000368:	f44f 7480 	mov.w	r4, #256	@ 0x100
1000036c:	4b0b      	ldr	r3, [pc, #44]	@ (1000039c <gpio_init+0x44>)
1000036e:	00c2      	lsls	r2, r0, #3
10000370:	f853 1020 	ldr.w	r1, [r3, r0, lsl #2]
10000374:	eb03 0080 	add.w	r0, r3, r0, lsl #2
10000378:	f081 0140 	eor.w	r1, r1, #64	@ 0x40
1000037c:	f102 4380 	add.w	r3, r2, #1073741824	@ 0x40000000
10000380:	f503 3320 	add.w	r3, r3, #163840	@ 0x28000
10000384:	f001 02c0 	and.w	r2, r1, #192	@ 0xc0
10000388:	f500 5180 	add.w	r1, r0, #4096	@ 0x1000
1000038c:	f500 5040 	add.w	r0, r0, #12288	@ 0x3000
10000390:	600a      	str	r2, [r1, #0]
10000392:	605d      	str	r5, [r3, #4]
10000394:	6004      	str	r4, [r0, #0]
10000396:	bc30      	pop	{r4, r5}
10000398:	4770      	bx	lr
1000039a:	bf00      	nop
1000039c:	40038004 	.word	0x40038004

100003a0 <panic>:
100003a0:	b40f      	push	{r0, r1, r2, r3}
100003a2:	b500      	push	{lr}
100003a4:	b083      	sub	sp, #12
100003a6:	9c04      	ldr	r4, [sp, #16]
100003a8:	4807      	ldr	r0, [pc, #28]	@ (100003c8 <panic+0x28>)
100003aa:	f001 fc5b 	bl	10001c64 <__wrap_puts>
100003ae:	b13c      	cbz	r4, 100003c0 <panic+0x20>
100003b0:	a905      	add	r1, sp, #20
100003b2:	4620      	mov	r0, r4
100003b4:	9101      	str	r1, [sp, #4]
100003b6:	f001 fadb 	bl	10001970 <weak_raw_vprintf>
100003ba:	4804      	ldr	r0, [pc, #16]	@ (100003cc <panic+0x2c>)
100003bc:	f001 fc52 	bl	10001c64 <__wrap_puts>
100003c0:	2001      	movs	r0, #1
100003c2:	f001 faed 	bl	100019a0 <_exit>
100003c6:	bf00      	nop
100003c8:	100081b0 	.word	0x100081b0
100003cc:	100081c0 	.word	0x100081c0

100003d0 <hw_claim_or_assert>:
100003d0:	b570      	push	{r4, r5, r6, lr}
100003d2:	4686      	mov	lr, r0
100003d4:	f3ef 8510 	mrs	r5, PRIMASK
100003d8:	b672      	cpsid	i
100003da:	4c12      	ldr	r4, [pc, #72]	@ (10000424 <hw_claim_or_assert+0x54>)
100003dc:	e8d4 6fcf 	ldaexb	r6, [r4]
100003e0:	2001      	movs	r0, #1
100003e2:	2e00      	cmp	r6, #0
100003e4:	d1fa      	bne.n	100003dc <hw_claim_or_assert+0xc>
100003e6:	e8c4 0f46 	strexb	r6, r0, [r4]
100003ea:	2e00      	cmp	r6, #0
100003ec:	d1f6      	bne.n	100003dc <hw_claim_or_assert+0xc>
100003ee:	f3bf 8f5f 	dmb	sy
100003f2:	f04f 0c01 	mov.w	ip, #1
100003f6:	08c8      	lsrs	r0, r1, #3
100003f8:	f001 0307 	and.w	r3, r1, #7
100003fc:	fa0c f303 	lsl.w	r3, ip, r3
10000400:	f81e c000 	ldrb.w	ip, [lr, r0]
10000404:	ea1c 0603 	ands.w	r6, ip, r3
10000408:	d108      	bne.n	1000041c <hw_claim_or_assert+0x4c>
1000040a:	ea4c 0c03 	orr.w	ip, ip, r3
1000040e:	f80e c000 	strb.w	ip, [lr, r0]
10000412:	e8c4 6f8f 	stlb	r6, [r4]
10000416:	f385 8810 	msr	PRIMASK, r5
1000041a:	bd70      	pop	{r4, r5, r6, pc}
1000041c:	4610      	mov	r0, r2
1000041e:	f7ff ffbf 	bl	100003a0 <panic>
10000422:	bf00      	nop
10000424:	20001bd7 	.word	0x20001bd7

10000428 <hw_claim_unused_from_range>:
10000428:	b5f8      	push	{r3, r4, r5, r6, r7, lr}
1000042a:	f3ef 8510 	mrs	r5, PRIMASK
1000042e:	b672      	cpsid	i
10000430:	4c23      	ldr	r4, [pc, #140]	@ (100004c0 <hw_claim_unused_from_range+0x98>)
10000432:	e8d4 7fcf 	ldaexb	r7, [r4]
10000436:	2601      	movs	r6, #1
10000438:	2f00      	cmp	r7, #0
1000043a:	d1fa      	bne.n	10000432 <hw_claim_unused_from_range+0xa>
1000043c:	e8c4 6f47 	strexb	r7, r6, [r4]
10000440:	2f00      	cmp	r7, #0
10000442:	d1f6      	bne.n	10000432 <hw_claim_unused_from_range+0xa>
10000444:	f3bf 8f5f 	dmb	sy
10000448:	429a      	cmp	r2, r3
1000044a:	d827      	bhi.n	1000049c <hw_claim_unused_from_range+0x74>
1000044c:	2601      	movs	r6, #1
1000044e:	08d7      	lsrs	r7, r2, #3
10000450:	f810 e007 	ldrb.w	lr, [r0, r7]
10000454:	f002 0c07 	and.w	ip, r2, #7
10000458:	fa06 fc0c 	lsl.w	ip, r6, ip
1000045c:	ea1e 0f0c 	tst.w	lr, ip
10000460:	eb00 07d2 	add.w	r7, r0, r2, lsr #3
10000464:	d10d      	bne.n	10000482 <hw_claim_unused_from_range+0x5a>
10000466:	e025      	b.n	100004b4 <hw_claim_unused_from_range+0x8c>
10000468:	ea4f 0ed2 	mov.w	lr, r2, lsr #3
1000046c:	f810 e00e 	ldrb.w	lr, [r0, lr]
10000470:	f002 0c07 	and.w	ip, r2, #7
10000474:	fa06 fc0c 	lsl.w	ip, r6, ip
10000478:	ea1e 0f0c 	tst.w	lr, ip
1000047c:	eb00 07d2 	add.w	r7, r0, r2, lsr #3
10000480:	d018      	beq.n	100004b4 <hw_claim_unused_from_range+0x8c>
10000482:	3201      	adds	r2, #1
10000484:	4293      	cmp	r3, r2
10000486:	d2ef      	bcs.n	10000468 <hw_claim_unused_from_range+0x40>
10000488:	f04f 30ff 	mov.w	r0, #4294967295	@ 0xffffffff
1000048c:	2300      	movs	r3, #0
1000048e:	e8c4 3f8f 	stlb	r3, [r4]
10000492:	f385 8810 	msr	PRIMASK, r5
10000496:	4298      	cmp	r0, r3
10000498:	db07      	blt.n	100004aa <hw_claim_unused_from_range+0x82>
1000049a:	bdf8      	pop	{r3, r4, r5, r6, r7, pc}
1000049c:	2300      	movs	r3, #0
1000049e:	e8c4 3f8f 	stlb	r3, [r4]
100004a2:	f385 8810 	msr	PRIMASK, r5
100004a6:	f04f 30ff 	mov.w	r0, #4294967295	@ 0xffffffff
100004aa:	2900      	cmp	r1, #0
100004ac:	d0f5      	beq.n	1000049a <hw_claim_unused_from_range+0x72>
100004ae:	9806      	ldr	r0, [sp, #24]
100004b0:	f7ff ff76 	bl	100003a0 <panic>
100004b4:	ea4e 0e0c 	orr.w	lr, lr, ip
100004b8:	4610      	mov	r0, r2
100004ba:	f887 e000 	strb.w	lr, [r7]
100004be:	e7e5      	b.n	1000048c <hw_claim_unused_from_range+0x64>
100004c0:	20001bd7 	.word	0x20001bd7

100004c4 <next_striped_spin_lock_num>:
100004c4:	4a04      	ldr	r2, [pc, #16]	@ (100004d8 <next_striped_spin_lock_num+0x14>)
100004c6:	7810      	ldrb	r0, [r2, #0]
100004c8:	1c43      	adds	r3, r0, #1
100004ca:	b2db      	uxtb	r3, r3
100004cc:	2b18      	cmp	r3, #24
100004ce:	bf28      	it	cs
100004d0:	2310      	movcs	r3, #16
100004d2:	7013      	strb	r3, [r2, #0]
100004d4:	4770      	bx	lr
100004d6:	bf00      	nop
100004d8:	20000df0 	.word	0x20000df0

100004dc <spin_lock_claim_unused>:
100004dc:	b510      	push	{r4, lr}
100004de:	4c05      	ldr	r4, [pc, #20]	@ (100004f4 <spin_lock_claim_unused+0x18>)
100004e0:	b082      	sub	sp, #8
100004e2:	4601      	mov	r1, r0
100004e4:	231f      	movs	r3, #31
100004e6:	2218      	movs	r2, #24
100004e8:	9400      	str	r4, [sp, #0]
100004ea:	4803      	ldr	r0, [pc, #12]	@ (100004f8 <spin_lock_claim_unused+0x1c>)
100004ec:	f7ff ff9c 	bl	10000428 <hw_claim_unused_from_range>
100004f0:	b002      	add	sp, #8
100004f2:	bd10      	pop	{r4, pc}
100004f4:	100081c4 	.word	0x100081c4
100004f8:	20001ff0 	.word	0x20001ff0

100004fc <spinlock_set_extexclall>:
100004fc:	f04f 22e0 	mov.w	r2, #3758153728	@ 0xe000e000
10000500:	6893      	ldr	r3, [r2, #8]
10000502:	f043 5300 	orr.w	r3, r3, #536870912	@ 0x20000000
10000506:	6093      	str	r3, [r2, #8]
10000508:	4770      	bx	lr
1000050a:	bf00      	nop

1000050c <spin_locks_reset>:
1000050c:	2100      	movs	r1, #0
1000050e:	4b04      	ldr	r3, [pc, #16]	@ (10000520 <spin_locks_reset+0x14>)
10000510:	f103 0220 	add.w	r2, r3, #32
10000514:	e8c3 1f8f 	stlb	r1, [r3]
10000518:	3301      	adds	r3, #1
1000051a:	4293      	cmp	r3, r2
1000051c:	d1fa      	bne.n	10000514 <spin_locks_reset+0x8>
1000051e:	4770      	bx	lr
10000520:	20001bcc 	.word	0x20001bcc

10000524 <runtime_init_per_core_irq_priorities>:
10000524:	f04f 23e0 	mov.w	r3, #3758153728	@ 0xe000e000
10000528:	f04f 3280 	mov.w	r2, #2155905152	@ 0x80808080
1000052c:	f8c3 2400 	str.w	r2, [r3, #1024]	@ 0x400
10000530:	f8c3 2404 	str.w	r2, [r3, #1028]	@ 0x404
10000534:	f8c3 2408 	str.w	r2, [r3, #1032]	@ 0x408
10000538:	f8c3 240c 	str.w	r2, [r3, #1036]	@ 0x40c
1000053c:	f8c3 2410 	str.w	r2, [r3, #1040]	@ 0x410
10000540:	f8c3 2414 	str.w	r2, [r3, #1044]	@ 0x414
10000544:	f8c3 2418 	str.w	r2, [r3, #1048]	@ 0x418
10000548:	f8c3 241c 	str.w	r2, [r3, #1052]	@ 0x41c
1000054c:	f8c3 2420 	str.w	r2, [r3, #1056]	@ 0x420
10000550:	f8c3 2424 	str.w	r2, [r3, #1060]	@ 0x424
10000554:	f8c3 2428 	str.w	r2, [r3, #1064]	@ 0x428
10000558:	f8c3 242c 	str.w	r2, [r3, #1068]	@ 0x42c
1000055c:	f8c3 2430 	str.w	r2, [r3, #1072]	@ 0x430
10000560:	4770      	bx	lr
10000562:	bf00      	nop

10000564 <irq_set_enabled>:
10000564:	2301      	movs	r3, #1
10000566:	f000 021f 	and.w	r2, r0, #31
1000056a:	4093      	lsls	r3, r2
1000056c:	0940      	lsrs	r0, r0, #5
1000056e:	b141      	cbz	r1, 10000582 <irq_set_enabled+0x1e>
10000570:	0080      	lsls	r0, r0, #2
10000572:	f100 4060 	add.w	r0, r0, #3758096384	@ 0xe0000000
10000576:	f500 4061 	add.w	r0, r0, #57600	@ 0xe100
1000057a:	f8c0 3180 	str.w	r3, [r0, #384]	@ 0x180
1000057e:	6003      	str	r3, [r0, #0]
10000580:	4770      	bx	lr
10000582:	4a02      	ldr	r2, [pc, #8]	@ (1000058c <irq_set_enabled+0x28>)
10000584:	3020      	adds	r0, #32
10000586:	f842 3020 	str.w	r3, [r2, r0, lsl #2]
1000058a:	4770      	bx	lr
1000058c:	e000e100 	.word	0xe000e100

10000590 <irq_is_enabled>:
10000590:	2301      	movs	r3, #1
10000592:	4a06      	ldr	r2, [pc, #24]	@ (100005ac <irq_is_enabled+0x1c>)
10000594:	0941      	lsrs	r1, r0, #5
10000596:	f852 2021 	ldr.w	r2, [r2, r1, lsl #2]
1000059a:	f000 001f 	and.w	r0, r0, #31
1000059e:	4083      	lsls	r3, r0
100005a0:	4213      	tst	r3, r2
100005a2:	bf14      	ite	ne
100005a4:	2001      	movne	r0, #1
100005a6:	2000      	moveq	r0, #0
100005a8:	4770      	bx	lr
100005aa:	bf00      	nop
100005ac:	e000e100 	.word	0xe000e100

100005b0 <irq_set_pending>:
100005b0:	2201      	movs	r2, #1
100005b2:	0943      	lsrs	r3, r0, #5
100005b4:	4903      	ldr	r1, [pc, #12]	@ (100005c4 <irq_set_pending+0x14>)
100005b6:	f000 001f 	and.w	r0, r0, #31
100005ba:	4082      	lsls	r2, r0
100005bc:	3340      	adds	r3, #64	@ 0x40
100005be:	f841 2023 	str.w	r2, [r1, r3, lsl #2]
100005c2:	4770      	bx	lr
100005c4:	e000e100 	.word	0xe000e100

100005c8 <irq_has_shared_handler>:
100005c8:	4a05      	ldr	r2, [pc, #20]	@ (100005e0 <irq_has_shared_handler+0x18>)
100005ca:	3010      	adds	r0, #16
100005cc:	6892      	ldr	r2, [r2, #8]
100005ce:	4b05      	ldr	r3, [pc, #20]	@ (100005e4 <irq_has_shared_handler+0x1c>)
100005d0:	f852 0020 	ldr.w	r0, [r2, r0, lsl #2]
100005d4:	1ac0      	subs	r0, r0, r3
100005d6:	282f      	cmp	r0, #47	@ 0x2f
100005d8:	bf8c      	ite	hi
100005da:	2000      	movhi	r0, #0
100005dc:	2001      	movls	r0, #1
100005de:	4770      	bx	lr
100005e0:	e000ed00 	.word	0xe000ed00
100005e4:	20000df4 	.word	0x20000df4

100005e8 <irq_set_exclusive_handler>:
100005e8:	b5f8      	push	{r3, r4, r5, r6, r7, lr}
100005ea:	460d      	mov	r5, r1
100005ec:	f3ef 8710 	mrs	r7, PRIMASK
100005f0:	b672      	cpsid	i
100005f2:	4e12      	ldr	r6, [pc, #72]	@ (1000063c <irq_set_exclusive_handler+0x54>)
100005f4:	e8d6 2fcf 	ldaexb	r2, [r6]
100005f8:	2301      	movs	r3, #1
100005fa:	2a00      	cmp	r2, #0
100005fc:	d1fa      	bne.n	100005f4 <irq_set_exclusive_handler+0xc>
100005fe:	e8c6 3f42 	strexb	r2, r3, [r6]
10000602:	2a00      	cmp	r2, #0
10000604:	d1f6      	bne.n	100005f4 <irq_set_exclusive_handler+0xc>
10000606:	f3bf 8f5f 	dmb	sy
1000060a:	4b0d      	ldr	r3, [pc, #52]	@ (10000640 <irq_set_exclusive_handler+0x58>)
1000060c:	f100 0410 	add.w	r4, r0, #16
10000610:	689b      	ldr	r3, [r3, #8]
10000612:	4a0c      	ldr	r2, [pc, #48]	@ (10000644 <irq_set_exclusive_handler+0x5c>)
10000614:	f853 3024 	ldr.w	r3, [r3, r4, lsl #2]
10000618:	4293      	cmp	r3, r2
1000061a:	d003      	beq.n	10000624 <irq_set_exclusive_handler+0x3c>
1000061c:	4299      	cmp	r1, r3
1000061e:	d001      	beq.n	10000624 <irq_set_exclusive_handler+0x3c>
10000620:	f001 f89e 	bl	10001760 <hard_assertion_failure>
10000624:	4b06      	ldr	r3, [pc, #24]	@ (10000640 <irq_set_exclusive_handler+0x58>)
10000626:	689b      	ldr	r3, [r3, #8]
10000628:	f843 5024 	str.w	r5, [r3, r4, lsl #2]
1000062c:	f3bf 8f5f 	dmb	sy
10000630:	2300      	movs	r3, #0
10000632:	e8c6 3f8f 	stlb	r3, [r6]
10000636:	f387 8810 	msr	PRIMASK, r7
1000063a:	bdf8      	pop	{r3, r4, r5, r6, r7, pc}
1000063c:	20001bd5 	.word	0x20001bd5
10000640:	e000ed00 	.word	0xe000ed00
10000644:	1000011d 	.word	0x1000011d

10000648 <irq_add_shared_handler>:
10000648:	e92d 4ff0 	stmdb	sp!, {r4, r5, r6, r7, r8, r9, sl, fp, lr}
1000064c:	4681      	mov	r9, r0
1000064e:	468b      	mov	fp, r1
10000650:	4616      	mov	r6, r2
10000652:	b083      	sub	sp, #12
10000654:	f3ef 8310 	mrs	r3, PRIMASK
10000658:	b672      	cpsid	i
1000065a:	f8df a1d0 	ldr.w	sl, [pc, #464]	@ 1000082c <irq_add_shared_handler+0x1e4>
1000065e:	9300      	str	r3, [sp, #0]
10000660:	e8da 1fcf 	ldaexb	r1, [sl]
10000664:	2301      	movs	r3, #1
10000666:	2900      	cmp	r1, #0
10000668:	d1fa      	bne.n	10000660 <irq_add_shared_handler+0x18>
1000066a:	e8ca 3f41 	strexb	r1, r3, [sl]
1000066e:	2900      	cmp	r1, #0
10000670:	d1f6      	bne.n	10000660 <irq_add_shared_handler+0x18>
10000672:	f3bf 8f5f 	dmb	sy
10000676:	4b66      	ldr	r3, [pc, #408]	@ (10000810 <irq_add_shared_handler+0x1c8>)
10000678:	f993 4000 	ldrsb.w	r4, [r3]
1000067c:	2c00      	cmp	r4, #0
1000067e:	f2c0 80a0 	blt.w	100007c2 <irq_add_shared_handler+0x17a>
10000682:	4d64      	ldr	r5, [pc, #400]	@ (10000814 <irq_add_shared_handler+0x1cc>)
10000684:	eb04 0744 	add.w	r7, r4, r4, lsl #1
10000688:	eb05 0887 	add.w	r8, r5, r7, lsl #2
1000068c:	f898 1006 	ldrb.w	r1, [r8, #6]
10000690:	f109 0910 	add.w	r9, r9, #16
10000694:	7019      	strb	r1, [r3, #0]
10000696:	4b60      	ldr	r3, [pc, #384]	@ (10000818 <irq_add_shared_handler+0x1d0>)
10000698:	00bf      	lsls	r7, r7, #2
1000069a:	689b      	ldr	r3, [r3, #8]
1000069c:	f853 0029 	ldr.w	r0, [r3, r9, lsl #2]
100006a0:	0063      	lsls	r3, r4, #1
100006a2:	1b41      	subs	r1, r0, r5
100006a4:	292f      	cmp	r1, #47	@ 0x2f
100006a6:	d92f      	bls.n	10000708 <irq_add_shared_handler+0xc0>
100006a8:	495c      	ldr	r1, [pc, #368]	@ (1000081c <irq_add_shared_handler+0x1d4>)
100006aa:	4288      	cmp	r0, r1
100006ac:	f040 80a4 	bne.w	100007f8 <irq_add_shared_handler+0x1b0>
100006b0:	441c      	add	r4, r3
100006b2:	4b5b      	ldr	r3, [pc, #364]	@ (10000820 <irq_add_shared_handler+0x1d8>)
100006b4:	3702      	adds	r7, #2
100006b6:	442f      	add	r7, r5
100006b8:	3b04      	subs	r3, #4
100006ba:	1bdb      	subs	r3, r3, r7
100006bc:	f3c3 034a 	ubfx	r3, r3, #1, #11
100006c0:	ea6f 43c3 	mvn.w	r3, r3, lsl #19
100006c4:	f44f 4121 	mov.w	r1, #41216	@ 0xa100
100006c8:	ea6f 43d3 	mvn.w	r3, r3, lsr #19
100006cc:	f825 1024 	strh.w	r1, [r5, r4, lsl #2]
100006d0:	eb05 0484 	add.w	r4, r5, r4, lsl #2
100006d4:	8063      	strh	r3, [r4, #2]
100006d6:	f64b 5301 	movw	r3, #48385	@ 0xbd01
100006da:	80a3      	strh	r3, [r4, #4]
100006dc:	23ff      	movs	r3, #255	@ 0xff
100006de:	f048 0001 	orr.w	r0, r8, #1
100006e2:	71e6      	strb	r6, [r4, #7]
100006e4:	f8c4 b008 	str.w	fp, [r4, #8]
100006e8:	71a3      	strb	r3, [r4, #6]
100006ea:	4b4b      	ldr	r3, [pc, #300]	@ (10000818 <irq_add_shared_handler+0x1d0>)
100006ec:	689b      	ldr	r3, [r3, #8]
100006ee:	f843 0029 	str.w	r0, [r3, r9, lsl #2]
100006f2:	f3bf 8f5f 	dmb	sy
100006f6:	2300      	movs	r3, #0
100006f8:	e8ca 3f8f 	stlb	r3, [sl]
100006fc:	9b00      	ldr	r3, [sp, #0]
100006fe:	f383 8810 	msr	PRIMASK, r3
10000702:	b003      	add	sp, #12
10000704:	e8bd 8ff0 	ldmia.w	sp!, {r4, r5, r6, r7, r8, r9, sl, fp, pc}
10000708:	f020 0e01 	bic.w	lr, r0, #1
1000070c:	f89e 1007 	ldrb.w	r1, [lr, #7]
10000710:	42b1      	cmp	r1, r6
10000712:	d82e      	bhi.n	10000772 <irq_add_shared_handler+0x12a>
10000714:	f44f 4321 	mov.w	r3, #41216	@ 0xa100
10000718:	53eb      	strh	r3, [r5, r7]
1000071a:	4b41      	ldr	r3, [pc, #260]	@ (10000820 <irq_add_shared_handler+0x1d8>)
1000071c:	1cb9      	adds	r1, r7, #2
1000071e:	4429      	add	r1, r5
10000720:	3b04      	subs	r3, #4
10000722:	3704      	adds	r7, #4
10000724:	1a5b      	subs	r3, r3, r1
10000726:	442f      	add	r7, r5
10000728:	f1ae 0104 	sub.w	r1, lr, #4
1000072c:	4c3d      	ldr	r4, [pc, #244]	@ (10000824 <irq_add_shared_handler+0x1dc>)
1000072e:	1bc9      	subs	r1, r1, r7
10000730:	f3c1 014a 	ubfx	r1, r1, #1, #11
10000734:	4321      	orrs	r1, r4
10000736:	f8a8 1004 	strh.w	r1, [r8, #4]
1000073a:	f3c3 034a 	ubfx	r3, r3, #1, #11
1000073e:	493a      	ldr	r1, [pc, #232]	@ (10000828 <irq_add_shared_handler+0x1e0>)
10000740:	4323      	orrs	r3, r4
10000742:	f8a8 3002 	strh.w	r3, [r8, #2]
10000746:	f64a 20aa 	movw	r0, #43690	@ 0xaaaa
1000074a:	4673      	mov	r3, lr
1000074c:	1b5b      	subs	r3, r3, r5
1000074e:	415b      	adcs	r3, r3
10000750:	4358      	muls	r0, r3
10000752:	0d00      	lsrs	r0, r0, #20
10000754:	f888 6007 	strb.w	r6, [r8, #7]
10000758:	f888 0006 	strb.w	r0, [r8, #6]
1000075c:	f8c8 b008 	str.w	fp, [r8, #8]
10000760:	f048 0001 	orr.w	r0, r8, #1
10000764:	f8ce 1000 	str.w	r1, [lr]
10000768:	e7bf      	b.n	100006ea <irq_add_shared_handler+0xa2>
1000076a:	79d1      	ldrb	r1, [r2, #7]
1000076c:	42b1      	cmp	r1, r6
1000076e:	d92e      	bls.n	100007ce <irq_add_shared_handler+0x186>
10000770:	4696      	mov	lr, r2
10000772:	f99e c006 	ldrsb.w	ip, [lr, #6]
10000776:	eb0c 024c 	add.w	r2, ip, ip, lsl #1
1000077a:	f1bc 0f00 	cmp.w	ip, #0
1000077e:	eb05 0282 	add.w	r2, r5, r2, lsl #2
10000782:	daf2      	bge.n	1000076a <irq_add_shared_handler+0x122>
10000784:	f64b 5101 	movw	r1, #48385	@ 0xbd01
10000788:	f10e 0204 	add.w	r2, lr, #4
1000078c:	f1a8 0704 	sub.w	r7, r8, #4
10000790:	1abf      	subs	r7, r7, r2
10000792:	f3c7 074a 	ubfx	r7, r7, #1, #11
10000796:	ea6f 47c7 	mvn.w	r7, r7, lsl #19
1000079a:	ea6f 47d7 	mvn.w	r7, r7, lsr #19
1000079e:	f88e 4006 	strb.w	r4, [lr, #6]
100007a2:	eb03 0804 	add.w	r8, r3, r4
100007a6:	4c20      	ldr	r4, [pc, #128]	@ (10000828 <irq_add_shared_handler+0x1e0>)
100007a8:	eb05 0388 	add.w	r3, r5, r8, lsl #2
100007ac:	f8ae 7004 	strh.w	r7, [lr, #4]
100007b0:	f845 4028 	str.w	r4, [r5, r8, lsl #2]
100007b4:	8099      	strh	r1, [r3, #4]
100007b6:	f883 c006 	strb.w	ip, [r3, #6]
100007ba:	71de      	strb	r6, [r3, #7]
100007bc:	f8c3 b008 	str.w	fp, [r3, #8]
100007c0:	e793      	b.n	100006ea <irq_add_shared_handler+0xa2>
100007c2:	f000 ffcd 	bl	10001760 <hard_assertion_failure>
100007c6:	4b12      	ldr	r3, [pc, #72]	@ (10000810 <irq_add_shared_handler+0x1c8>)
100007c8:	f993 4000 	ldrsb.w	r4, [r3]
100007cc:	e759      	b.n	10000682 <irq_add_shared_handler+0x3a>
100007ce:	4672      	mov	r2, lr
100007d0:	f832 1f04 	ldrh.w	r1, [r2, #4]!
100007d4:	0549      	lsls	r1, r1, #21
100007d6:	d414      	bmi.n	10000802 <irq_add_shared_handler+0x1ba>
100007d8:	1549      	asrs	r1, r1, #21
100007da:	3102      	adds	r1, #2
100007dc:	eb02 0141 	add.w	r1, r2, r1, lsl #1
100007e0:	9101      	str	r1, [sp, #4]
100007e2:	f06f 0107 	mvn.w	r1, #7
100007e6:	1bc9      	subs	r1, r1, r7
100007e8:	9f01      	ldr	r7, [sp, #4]
100007ea:	1b49      	subs	r1, r1, r5
100007ec:	4439      	add	r1, r7
100007ee:	f3c1 014a 	ubfx	r1, r1, #1, #11
100007f2:	f441 4160 	orr.w	r1, r1, #57344	@ 0xe000
100007f6:	e7c9      	b.n	1000078c <irq_add_shared_handler+0x144>
100007f8:	9301      	str	r3, [sp, #4]
100007fa:	f000 ffb1 	bl	10001760 <hard_assertion_failure>
100007fe:	9b01      	ldr	r3, [sp, #4]
10000800:	e756      	b.n	100006b0 <irq_add_shared_handler+0x68>
10000802:	f501 11ff 	add.w	r1, r1, #2088960	@ 0x1fe000
10000806:	f501 51ff 	add.w	r1, r1, #8160	@ 0x1fe0
1000080a:	311f      	adds	r1, #31
1000080c:	e7e4      	b.n	100007d8 <irq_add_shared_handler+0x190>
1000080e:	bf00      	nop
10000810:	200024bc 	.word	0x200024bc
10000814:	20000df4 	.word	0x20000df4
10000818:	e000ed00 	.word	0xe000ed00
1000081c:	1000011d 	.word	0x1000011d
10000820:	20000e24 	.word	0x20000e24
10000824:	ffffe000 	.word	0xffffe000
10000828:	47804801 	.word	0x47804801
1000082c:	20001bd5 	.word	0x20001bd5

10000830 <irq_remove_handler>:
10000830:	e92d 4ff0 	stmdb	sp!, {r4, r5, r6, r7, r8, r9, sl, fp, lr}
10000834:	b083      	sub	sp, #12
10000836:	f3ef 8a10 	mrs	sl, PRIMASK
1000083a:	b672      	cpsid	i
1000083c:	4e74      	ldr	r6, [pc, #464]	@ (10000a10 <irq_remove_handler+0x1e0>)
1000083e:	e8d6 2fcf 	ldaexb	r2, [r6]
10000842:	2301      	movs	r3, #1
10000844:	2a00      	cmp	r2, #0
10000846:	d1fa      	bne.n	1000083e <irq_remove_handler+0xe>
10000848:	e8c6 3f42 	strexb	r2, r3, [r6]
1000084c:	2a00      	cmp	r2, #0
1000084e:	d1f6      	bne.n	1000083e <irq_remove_handler+0xe>
10000850:	f3bf 8f5f 	dmb	sy
10000854:	4b6f      	ldr	r3, [pc, #444]	@ (10000a14 <irq_remove_handler+0x1e4>)
10000856:	f100 0810 	add.w	r8, r0, #16
1000085a:	689b      	ldr	r3, [r3, #8]
1000085c:	4a6e      	ldr	r2, [pc, #440]	@ (10000a18 <irq_remove_handler+0x1e8>)
1000085e:	f853 5028 	ldr.w	r5, [r3, r8, lsl #2]
10000862:	4295      	cmp	r5, r2
10000864:	d03f      	beq.n	100008e6 <irq_remove_handler+0xb6>
10000866:	428d      	cmp	r5, r1
10000868:	460c      	mov	r4, r1
1000086a:	d04a      	beq.n	10000902 <irq_remove_handler+0xd2>
1000086c:	4f6b      	ldr	r7, [pc, #428]	@ (10000a1c <irq_remove_handler+0x1ec>)
1000086e:	1beb      	subs	r3, r5, r7
10000870:	2b2f      	cmp	r3, #47	@ 0x2f
10000872:	d838      	bhi.n	100008e6 <irq_remove_handler+0xb6>
10000874:	2101      	movs	r1, #1
10000876:	ea4f 1950 	mov.w	r9, r0, lsr #5
1000087a:	ea4f 0989 	mov.w	r9, r9, lsl #2
1000087e:	f109 4960 	add.w	r9, r9, #3758096384	@ 0xe0000000
10000882:	f509 4961 	add.w	r9, r9, #57600	@ 0xe100
10000886:	f000 031f 	and.w	r3, r0, #31
1000088a:	fa01 f003 	lsl.w	r0, r1, r3
1000088e:	f8d9 3000 	ldr.w	r3, [r9]
10000892:	f8c9 0080 	str.w	r0, [r9, #128]	@ 0x80
10000896:	ea00 0b03 	and.w	fp, r0, r3
1000089a:	f3bf 8f5f 	dmb	sy
1000089e:	f3ef 8105 	mrs	r1, IPSR
100008a2:	b2c9      	uxtb	r1, r1
100008a4:	b379      	cbz	r1, 10000906 <irq_remove_handler+0xd6>
100008a6:	4588      	cmp	r8, r1
100008a8:	d177      	bne.n	1000099a <irq_remove_handler+0x16a>
100008aa:	f025 0e01 	bic.w	lr, r5, #1
100008ae:	f8de c008 	ldr.w	ip, [lr, #8]
100008b2:	4564      	cmp	r4, ip
100008b4:	d105      	bne.n	100008c2 <irq_remove_handler+0x92>
100008b6:	e07c      	b.n	100009b2 <irq_remove_handler+0x182>
100008b8:	f8d3 c008 	ldr.w	ip, [r3, #8]
100008bc:	4564      	cmp	r4, ip
100008be:	d032      	beq.n	10000926 <irq_remove_handler+0xf6>
100008c0:	469e      	mov	lr, r3
100008c2:	f99e 2006 	ldrsb.w	r2, [lr, #6]
100008c6:	eb02 0342 	add.w	r3, r2, r2, lsl #1
100008ca:	2a00      	cmp	r2, #0
100008cc:	eb07 0383 	add.w	r3, r7, r3, lsl #2
100008d0:	daf2      	bge.n	100008b8 <irq_remove_handler+0x88>
100008d2:	4564      	cmp	r4, ip
100008d4:	f000 8081 	beq.w	100009da <irq_remove_handler+0x1aa>
100008d8:	f1bb 0f00 	cmp.w	fp, #0
100008dc:	d020      	beq.n	10000920 <irq_remove_handler+0xf0>
100008de:	f8c9 0180 	str.w	r0, [r9, #384]	@ 0x180
100008e2:	f8c9 0000 	str.w	r0, [r9]
100008e6:	4b4b      	ldr	r3, [pc, #300]	@ (10000a14 <irq_remove_handler+0x1e4>)
100008e8:	689b      	ldr	r3, [r3, #8]
100008ea:	f843 5028 	str.w	r5, [r3, r8, lsl #2]
100008ee:	f3bf 8f5f 	dmb	sy
100008f2:	2300      	movs	r3, #0
100008f4:	e8c6 3f8f 	stlb	r3, [r6]
100008f8:	f38a 8810 	msr	PRIMASK, sl
100008fc:	b003      	add	sp, #12
100008fe:	e8bd 8ff0 	ldmia.w	sp!, {r4, r5, r6, r7, r8, r9, sl, fp, pc}
10000902:	4615      	mov	r5, r2
10000904:	e7ef      	b.n	100008e6 <irq_remove_handler+0xb6>
10000906:	f025 0e01 	bic.w	lr, r5, #1
1000090a:	f8de c008 	ldr.w	ip, [lr, #8]
1000090e:	4564      	cmp	r4, ip
10000910:	d1d7      	bne.n	100008c2 <irq_remove_handler+0x92>
10000912:	f99e 4006 	ldrsb.w	r4, [lr, #6]
10000916:	4673      	mov	r3, lr
10000918:	2c00      	cmp	r4, #0
1000091a:	da08      	bge.n	1000092e <irq_remove_handler+0xfe>
1000091c:	4615      	mov	r5, r2
1000091e:	e066      	b.n	100009ee <irq_remove_handler+0x1be>
10000920:	f8c9 0080 	str.w	r0, [r9, #128]	@ 0x80
10000924:	e7df      	b.n	100008e6 <irq_remove_handler+0xb6>
10000926:	f993 4006 	ldrsb.w	r4, [r3, #6]
1000092a:	2c00      	cmp	r4, #0
1000092c:	db56      	blt.n	100009dc <irq_remove_handler+0x1ac>
1000092e:	eb04 0c44 	add.w	ip, r4, r4, lsl #1
10000932:	eb07 0c8c 	add.w	ip, r7, ip, lsl #2
10000936:	f8dc 2008 	ldr.w	r2, [ip, #8]
1000093a:	0061      	lsls	r1, r4, #1
1000093c:	609a      	str	r2, [r3, #8]
1000093e:	f89c 2007 	ldrb.w	r2, [ip, #7]
10000942:	71da      	strb	r2, [r3, #7]
10000944:	f99c 2006 	ldrsb.w	r2, [ip, #6]
10000948:	2a00      	cmp	r2, #0
1000094a:	719a      	strb	r2, [r3, #6]
1000094c:	db5d      	blt.n	10000a0a <irq_remove_handler+0x1da>
1000094e:	f8bc 2004 	ldrh.w	r2, [ip, #4]
10000952:	0552      	lsls	r2, r2, #21
10000954:	d504      	bpl.n	10000960 <irq_remove_handler+0x130>
10000956:	f502 12ff 	add.w	r2, r2, #2088960	@ 0x1fe000
1000095a:	f502 52ff 	add.w	r2, r2, #8160	@ 0x1fe0
1000095e:	321f      	adds	r2, #31
10000960:	1552      	asrs	r2, r2, #21
10000962:	f102 0c02 	add.w	ip, r2, #2
10000966:	f04f 0e04 	mov.w	lr, #4
1000096a:	220c      	movs	r2, #12
1000096c:	fb12 e204 	smlabb	r2, r2, r4, lr
10000970:	eb02 024c 	add.w	r2, r2, ip, lsl #1
10000974:	f06f 0c07 	mvn.w	ip, #7
10000978:	443a      	add	r2, r7
1000097a:	ebac 0c03 	sub.w	ip, ip, r3
1000097e:	4462      	add	r2, ip
10000980:	f3c2 024a 	ubfx	r2, r2, #1, #11
10000984:	f442 4260 	orr.w	r2, r2, #57344	@ 0xe000
10000988:	809a      	strh	r2, [r3, #4]
1000098a:	4b25      	ldr	r3, [pc, #148]	@ (10000a20 <irq_remove_handler+0x1f0>)
1000098c:	4421      	add	r1, r4
1000098e:	781a      	ldrb	r2, [r3, #0]
10000990:	eb07 0181 	add.w	r1, r7, r1, lsl #2
10000994:	701c      	strb	r4, [r3, #0]
10000996:	718a      	strb	r2, [r1, #6]
10000998:	e79e      	b.n	100008d8 <irq_remove_handler+0xa8>
1000099a:	e9cd 0100 	strd	r0, r1, [sp]
1000099e:	f000 fedf 	bl	10001760 <hard_assertion_failure>
100009a2:	e9dd 0100 	ldrd	r0, r1, [sp]
100009a6:	f025 0e01 	bic.w	lr, r5, #1
100009aa:	f8de c008 	ldr.w	ip, [lr, #8]
100009ae:	4564      	cmp	r4, ip
100009b0:	d187      	bne.n	100008c2 <irq_remove_handler+0x92>
100009b2:	f99e 4006 	ldrsb.w	r4, [lr, #6]
100009b6:	4673      	mov	r3, lr
100009b8:	2c00      	cmp	r4, #0
100009ba:	dab8      	bge.n	1000092e <irq_remove_handler+0xfe>
100009bc:	4a19      	ldr	r2, [pc, #100]	@ (10000a24 <irq_remove_handler+0x1f4>)
100009be:	4c1a      	ldr	r4, [pc, #104]	@ (10000a28 <irq_remove_handler+0x1f8>)
100009c0:	1ad2      	subs	r2, r2, r3
100009c2:	3a08      	subs	r2, #8
100009c4:	f3c2 310a 	ubfx	r1, r2, #12, #11
100009c8:	ea6f 5101 	mvn.w	r1, r1, lsl #20
100009cc:	ea6f 5111 	mvn.w	r1, r1, lsr #20
100009d0:	ea44 0252 	orr.w	r2, r4, r2, lsr #1
100009d4:	80da      	strh	r2, [r3, #6]
100009d6:	8099      	strh	r1, [r3, #4]
100009d8:	e77e      	b.n	100008d8 <irq_remove_handler+0xa8>
100009da:	4673      	mov	r3, lr
100009dc:	2900      	cmp	r1, #0
100009de:	d1ed      	bne.n	100009bc <irq_remove_handler+0x18c>
100009e0:	22ff      	movs	r2, #255	@ 0xff
100009e2:	f88e 2006 	strb.w	r2, [lr, #6]
100009e6:	f64b 5201 	movw	r2, #48385	@ 0xbd01
100009ea:	f8ae 2004 	strh.w	r2, [lr, #4]
100009ee:	4c0c      	ldr	r4, [pc, #48]	@ (10000a20 <irq_remove_handler+0x1f0>)
100009f0:	f64a 22aa 	movw	r2, #43690	@ 0xaaaa
100009f4:	f894 c000 	ldrb.w	ip, [r4]
100009f8:	4619      	mov	r1, r3
100009fa:	1bc9      	subs	r1, r1, r7
100009fc:	4149      	adcs	r1, r1
100009fe:	434a      	muls	r2, r1
10000a00:	0d12      	lsrs	r2, r2, #20
10000a02:	f883 c006 	strb.w	ip, [r3, #6]
10000a06:	7022      	strb	r2, [r4, #0]
10000a08:	e766      	b.n	100008d8 <irq_remove_handler+0xa8>
10000a0a:	f64b 5201 	movw	r2, #48385	@ 0xbd01
10000a0e:	e7bb      	b.n	10000988 <irq_remove_handler+0x158>
10000a10:	20001bd5 	.word	0x20001bd5
10000a14:	e000ed00 	.word	0xe000ed00
10000a18:	1000011d 	.word	0x1000011d
10000a1c:	20000df4 	.word	0x20000df4
10000a20:	200024bc 	.word	0x200024bc
10000a24:	20000e2e 	.word	0x20000e2e
10000a28:	fffff800 	.word	0xfffff800

10000a2c <irq_add_tail_to_free_list>:
10000a2c:	b5f0      	push	{r4, r5, r6, r7, lr}
10000a2e:	f3ef 8505 	mrs	r5, IPSR
10000a32:	b2ed      	uxtb	r5, r5
10000a34:	f3ef 8c10 	mrs	ip, PRIMASK
10000a38:	b672      	cpsid	i
10000a3a:	4926      	ldr	r1, [pc, #152]	@ (10000ad4 <irq_add_tail_to_free_list+0xa8>)
10000a3c:	e8d1 2fcf 	ldaexb	r2, [r1]
10000a40:	2301      	movs	r3, #1
10000a42:	2a00      	cmp	r2, #0
10000a44:	d1fa      	bne.n	10000a3c <irq_add_tail_to_free_list+0x10>
10000a46:	e8c1 3f42 	strexb	r2, r3, [r1]
10000a4a:	2a00      	cmp	r2, #0
10000a4c:	d1f6      	bne.n	10000a3c <irq_add_tail_to_free_list+0x10>
10000a4e:	f3bf 8f5f 	dmb	sy
10000a52:	4e21      	ldr	r6, [pc, #132]	@ (10000ad8 <irq_add_tail_to_free_list+0xac>)
10000a54:	f040 0e01 	orr.w	lr, r0, #1
10000a58:	68b4      	ldr	r4, [r6, #8]
10000a5a:	f64a 23aa 	movw	r3, #43690	@ 0xaaaa
10000a5e:	f854 7025 	ldr.w	r7, [r4, r5, lsl #2]
10000a62:	4a1e      	ldr	r2, [pc, #120]	@ (10000adc <irq_add_tail_to_free_list+0xb0>)
10000a64:	4604      	mov	r4, r0
10000a66:	1aa4      	subs	r4, r4, r2
10000a68:	4164      	adcs	r4, r4
10000a6a:	4363      	muls	r3, r4
10000a6c:	0d1b      	lsrs	r3, r3, #20
10000a6e:	4577      	cmp	r7, lr
10000a70:	b25b      	sxtb	r3, r3
10000a72:	d01b      	beq.n	10000aac <irq_add_tail_to_free_list+0x80>
10000a74:	f992 4006 	ldrsb.w	r4, [r2, #6]
10000a78:	429c      	cmp	r4, r3
10000a7a:	d01c      	beq.n	10000ab6 <irq_add_tail_to_free_list+0x8a>
10000a7c:	f992 4012 	ldrsb.w	r4, [r2, #18]
10000a80:	429c      	cmp	r4, r3
10000a82:	d023      	beq.n	10000acc <irq_add_tail_to_free_list+0xa0>
10000a84:	f992 401e 	ldrsb.w	r4, [r2, #30]
10000a88:	429c      	cmp	r4, r3
10000a8a:	d021      	beq.n	10000ad0 <irq_add_tail_to_free_list+0xa4>
10000a8c:	f992 402a 	ldrsb.w	r4, [r2, #42]	@ 0x2a
10000a90:	429c      	cmp	r4, r3
10000a92:	bf08      	it	eq
10000a94:	2403      	moveq	r4, #3
10000a96:	d00f      	beq.n	10000ab8 <irq_add_tail_to_free_list+0x8c>
10000a98:	4a11      	ldr	r2, [pc, #68]	@ (10000ae0 <irq_add_tail_to_free_list+0xb4>)
10000a9a:	2400      	movs	r4, #0
10000a9c:	7815      	ldrb	r5, [r2, #0]
10000a9e:	7013      	strb	r3, [r2, #0]
10000aa0:	7185      	strb	r5, [r0, #6]
10000aa2:	e8c1 4f8f 	stlb	r4, [r1]
10000aa6:	f38c 8810 	msr	PRIMASK, ip
10000aaa:	bdf0      	pop	{r4, r5, r6, r7, pc}
10000aac:	68b2      	ldr	r2, [r6, #8]
10000aae:	4c0d      	ldr	r4, [pc, #52]	@ (10000ae4 <irq_add_tail_to_free_list+0xb8>)
10000ab0:	f842 4025 	str.w	r4, [r2, r5, lsl #2]
10000ab4:	e7f0      	b.n	10000a98 <irq_add_tail_to_free_list+0x6c>
10000ab6:	2400      	movs	r4, #0
10000ab8:	eb04 0444 	add.w	r4, r4, r4, lsl #1
10000abc:	eb02 0284 	add.w	r2, r2, r4, lsl #2
10000ac0:	24ff      	movs	r4, #255	@ 0xff
10000ac2:	7194      	strb	r4, [r2, #6]
10000ac4:	f64b 5401 	movw	r4, #48385	@ 0xbd01
10000ac8:	8094      	strh	r4, [r2, #4]
10000aca:	e7e5      	b.n	10000a98 <irq_add_tail_to_free_list+0x6c>
10000acc:	2401      	movs	r4, #1
10000ace:	e7f3      	b.n	10000ab8 <irq_add_tail_to_free_list+0x8c>
10000ad0:	2402      	movs	r4, #2
10000ad2:	e7f1      	b.n	10000ab8 <irq_add_tail_to_free_list+0x8c>
10000ad4:	20001bd5 	.word	0x20001bd5
10000ad8:	e000ed00 	.word	0xe000ed00
10000adc:	20000df4 	.word	0x20000df4
10000ae0:	200024bc 	.word	0x200024bc
10000ae4:	1000011d 	.word	0x1000011d

10000ae8 <user_irq_claim_unused>:
10000ae8:	b510      	push	{r4, lr}
10000aea:	4c07      	ldr	r4, [pc, #28]	@ (10000b08 <user_irq_claim_unused+0x20>)
10000aec:	b082      	sub	sp, #8
10000aee:	4601      	mov	r1, r0
10000af0:	2305      	movs	r3, #5
10000af2:	2200      	movs	r2, #0
10000af4:	9400      	str	r4, [sp, #0]
10000af6:	4805      	ldr	r0, [pc, #20]	@ (10000b0c <user_irq_claim_unused+0x24>)
10000af8:	f7ff fc96 	bl	10000428 <hw_claim_unused_from_range>
10000afc:	2800      	cmp	r0, #0
10000afe:	bfa8      	it	ge
10000b00:	f1c0 0033 	rsbge	r0, r0, #51	@ 0x33
10000b04:	b002      	add	sp, #8
10000b06:	bd10      	pop	{r4, pc}
10000b08:	100081e0 	.word	0x100081e0
10000b0c:	200024c0 	.word	0x200024c0

10000b10 <lock_init>:
10000b10:	4b01      	ldr	r3, [pc, #4]	@ (10000b18 <lock_init+0x8>)
10000b12:	440b      	add	r3, r1
10000b14:	6003      	str	r3, [r0, #0]
10000b16:	4770      	bx	lr
10000b18:	20001bcc 	.word	0x20001bcc

10000b1c <runtime_init_mutex>:
10000b1c:	b570      	push	{r4, r5, r6, lr}
10000b1e:	4c10      	ldr	r4, [pc, #64]	@ (10000b60 <runtime_init_mutex+0x44>)
10000b20:	4d10      	ldr	r5, [pc, #64]	@ (10000b64 <runtime_init_mutex+0x48>)
10000b22:	42ac      	cmp	r4, r5
10000b24:	d20e      	bcs.n	10000b44 <runtime_init_mutex+0x28>
10000b26:	26ff      	movs	r6, #255	@ 0xff
10000b28:	6823      	ldr	r3, [r4, #0]
10000b2a:	b163      	cbz	r3, 10000b46 <runtime_init_mutex+0x2a>
10000b2c:	f7ff fcca 	bl	100004c4 <next_striped_spin_lock_num>
10000b30:	4601      	mov	r1, r0
10000b32:	4620      	mov	r0, r4
10000b34:	f7ff ffec 	bl	10000b10 <lock_init>
10000b38:	80a6      	strh	r6, [r4, #4]
10000b3a:	f3bf 8f5f 	dmb	sy
10000b3e:	3408      	adds	r4, #8
10000b40:	42ac      	cmp	r4, r5
10000b42:	d3f1      	bcc.n	10000b28 <runtime_init_mutex+0xc>
10000b44:	bd70      	pop	{r4, r5, r6, pc}
10000b46:	f7ff fcbd 	bl	100004c4 <next_striped_spin_lock_num>
10000b4a:	4601      	mov	r1, r0
10000b4c:	4620      	mov	r0, r4
10000b4e:	f7ff ffdf 	bl	10000b10 <lock_init>
10000b52:	7126      	strb	r6, [r4, #4]
10000b54:	f3bf 8f5f 	dmb	sy
10000b58:	3408      	adds	r4, #8
10000b5a:	42ac      	cmp	r4, r5
10000b5c:	d3e4      	bcc.n	10000b28 <runtime_init_mutex+0xc>
10000b5e:	bd70      	pop	{r4, r5, r6, pc}
10000b60:	200013e8 	.word	0x200013e8
10000b64:	200013f0 	.word	0x200013f0

10000b68 <mutex_init>:
10000b68:	b510      	push	{r4, lr}
10000b6a:	4604      	mov	r4, r0
10000b6c:	f7ff fcaa 	bl	100004c4 <next_striped_spin_lock_num>
10000b70:	4601      	mov	r1, r0
10000b72:	4620      	mov	r0, r4
10000b74:	f7ff ffcc 	bl	10000b10 <lock_init>
10000b78:	23ff      	movs	r3, #255	@ 0xff
10000b7a:	7123      	strb	r3, [r4, #4]
10000b7c:	f3bf 8f5f 	dmb	sy
10000b80:	bd10      	pop	{r4, pc}
10000b82:	bf00      	nop

10000b84 <critical_section_init>:
10000b84:	b510      	push	{r4, lr}
10000b86:	4604      	mov	r4, r0
10000b88:	2001      	movs	r0, #1
10000b8a:	f7ff fca7 	bl	100004dc <spin_lock_claim_unused>
10000b8e:	4b03      	ldr	r3, [pc, #12]	@ (10000b9c <critical_section_init+0x18>)
10000b90:	4403      	add	r3, r0
10000b92:	6023      	str	r3, [r4, #0]
10000b94:	f3bf 8f5f 	dmb	sy
10000b98:	bd10      	pop	{r4, pc}
10000b9a:	bf00      	nop
10000b9c:	20001bcc 	.word	0x20001bcc

10000ba0 <critical_section_init_with_lock_num>:
10000ba0:	4b02      	ldr	r3, [pc, #8]	@ (10000bac <critical_section_init_with_lock_num+0xc>)
10000ba2:	440b      	add	r3, r1
10000ba4:	6003      	str	r3, [r0, #0]
10000ba6:	f3bf 8f5f 	dmb	sy
10000baa:	4770      	bx	lr
10000bac:	20001bcc 	.word	0x20001bcc

10000bb0 <sleep_until_callback>:
10000bb0:	4b0d      	ldr	r3, [pc, #52]	@ (10000be8 <sleep_until_callback+0x38>)
10000bb2:	681a      	ldr	r2, [r3, #0]
10000bb4:	f3ef 8110 	mrs	r1, PRIMASK
10000bb8:	b672      	cpsid	i
10000bba:	e8d2 cfcf 	ldaexb	ip, [r2]
10000bbe:	2001      	movs	r0, #1
10000bc0:	f1bc 0f00 	cmp.w	ip, #0
10000bc4:	d1f9      	bne.n	10000bba <sleep_until_callback+0xa>
10000bc6:	e8c2 0f4c 	strexb	ip, r0, [r2]
10000bca:	f1bc 0f00 	cmp.w	ip, #0
10000bce:	d1f4      	bne.n	10000bba <sleep_until_callback+0xa>
10000bd0:	f3bf 8f5f 	dmb	sy
10000bd4:	2200      	movs	r2, #0
10000bd6:	681b      	ldr	r3, [r3, #0]
10000bd8:	e8c3 2f8f 	stlb	r2, [r3]
10000bdc:	f381 8810 	msr	PRIMASK, r1
10000be0:	bf40      	sev
10000be2:	2000      	movs	r0, #0
10000be4:	2100      	movs	r1, #0
10000be6:	4770      	bx	lr
10000be8:	20002494 	.word	0x20002494
10000bec:	00000000 	.word	0x00000000

10000bf0 <alarm_pool_irq_handler>:
10000bf0:	e92d 4ff0 	stmdb	sp!, {r4, r5, r6, r7, r8, r9, sl, fp, lr}
10000bf4:	ed2d 8b02 	vpush	{d8}
10000bf8:	b085      	sub	sp, #20
10000bfa:	f3ef 8305 	mrs	r3, IPSR
10000bfe:	b2db      	uxtb	r3, r3
10000c00:	3b10      	subs	r3, #16
10000c02:	089a      	lsrs	r2, r3, #2
10000c04:	bf18      	it	ne
10000c06:	2201      	movne	r2, #1
10000c08:	f04f 0101 	mov.w	r1, #1
10000c0c:	f003 0003 	and.w	r0, r3, #3
10000c10:	bf18      	it	ne
10000c12:	4daf      	ldrne	r5, [pc, #700]	@ (10000ed0 <alarm_pool_irq_handler+0x2e0>)
10000c14:	4baf      	ldr	r3, [pc, #700]	@ (10000ed4 <alarm_pool_irq_handler+0x2e4>)
10000c16:	bf08      	it	eq
10000c18:	4daf      	ldreq	r5, [pc, #700]	@ (10000ed8 <alarm_pool_irq_handler+0x2e8>)
10000c1a:	eb00 0282 	add.w	r2, r0, r2, lsl #2
10000c1e:	f853 6022 	ldr.w	r6, [r3, r2, lsl #2]
10000c22:	fa01 fb00 	lsl.w	fp, r1, r0
10000c26:	f505 5341 	add.w	r3, r5, #12352	@ 0x3040
10000c2a:	ed9f 8ba7 	vldr	d8, [pc, #668]	@ 10000ec8 <alarm_pool_irq_handler+0x2d8>
10000c2e:	9001      	str	r0, [sp, #4]
10000c30:	f8c3 b004 	str.w	fp, [r3, #4]
10000c34:	e02e      	b.n	10000c94 <alarm_pool_irq_handler+0xa4>
10000c36:	88b3      	ldrh	r3, [r6, #4]
10000c38:	0418      	lsls	r0, r3, #16
10000c3a:	f140 8092 	bpl.w	10000d62 <alarm_pool_irq_handler+0x172>
10000c3e:	79b3      	ldrb	r3, [r6, #6]
10000c40:	2b00      	cmp	r3, #0
10000c42:	f040 80dc 	bne.w	10000dfe <alarm_pool_irq_handler+0x20e>
10000c46:	f9b6 1008 	ldrsh.w	r1, [r6, #8]
10000c4a:	2900      	cmp	r1, #0
10000c4c:	f2c0 811d 	blt.w	10000e8a <alarm_pool_irq_handler+0x29a>
10000c50:	6973      	ldr	r3, [r6, #20]
10000c52:	eb01 0141 	add.w	r1, r1, r1, lsl #1
10000c56:	eb03 03c1 	add.w	r3, r3, r1, lsl #3
10000c5a:	e9d3 4702 	ldrd	r4, r7, [r3, #8]
10000c5e:	f1b7 3fff 	cmp.w	r7, #4294967295	@ 0xffffffff
10000c62:	bf08      	it	eq
10000c64:	f1b4 3fff 	cmpeq.w	r4, #4294967295	@ 0xffffffff
10000c68:	d00d      	beq.n	10000c86 <alarm_pool_irq_handler+0x96>
10000c6a:	9b01      	ldr	r3, [sp, #4]
10000c6c:	eb05 0183 	add.w	r1, r5, r3, lsl #2
10000c70:	6aab      	ldr	r3, [r5, #40]	@ 0x28
10000c72:	690a      	ldr	r2, [r1, #16]
10000c74:	1ad2      	subs	r2, r2, r3
10000c76:	1ae3      	subs	r3, r4, r3
10000c78:	4293      	cmp	r3, r2
10000c7a:	d303      	bcc.n	10000c84 <alarm_pool_irq_handler+0x94>
10000c7c:	6a2b      	ldr	r3, [r5, #32]
10000c7e:	ea13 0f0b 	tst.w	r3, fp
10000c82:	d100      	bne.n	10000c86 <alarm_pool_irq_handler+0x96>
10000c84:	610c      	str	r4, [r1, #16]
10000c86:	4628      	mov	r0, r5
10000c88:	f000 fb32 	bl	100012f0 <timer_time_us_64>
10000c8c:	42a0      	cmp	r0, r4
10000c8e:	41b9      	sbcs	r1, r7
10000c90:	f2c0 80fb 	blt.w	10000e8a <alarm_pool_irq_handler+0x29a>
10000c94:	f9b6 3008 	ldrsh.w	r3, [r6, #8]
10000c98:	f8c5 b03c 	str.w	fp, [r5, #60]	@ 0x3c
10000c9c:	2b00      	cmp	r3, #0
10000c9e:	9300      	str	r3, [sp, #0]
10000ca0:	dbc9      	blt.n	10000c36 <alarm_pool_irq_handler+0x46>
10000ca2:	f8d6 9014 	ldr.w	r9, [r6, #20]
10000ca6:	eb03 0a43 	add.w	sl, r3, r3, lsl #1
10000caa:	4628      	mov	r0, r5
10000cac:	eb09 07ca 	add.w	r7, r9, sl, lsl #3
10000cb0:	e9d7 4802 	ldrd	r4, r8, [r7, #8]
10000cb4:	f000 fb1c 	bl	100012f0 <timer_time_us_64>
10000cb8:	42a0      	cmp	r0, r4
10000cba:	eb71 0108 	sbcs.w	r1, r1, r8
10000cbe:	dbba      	blt.n	10000c36 <alarm_pool_irq_handler+0x46>
10000cc0:	f1b8 0f00 	cmp.w	r8, #0
10000cc4:	f2c0 80c3 	blt.w	10000e4e <alarm_pool_irq_handler+0x25e>
10000cc8:	e9d7 3104 	ldrd	r3, r1, [r7, #16]
10000ccc:	4a83      	ldr	r2, [pc, #524]	@ (10000edc <alarm_pool_irq_handler+0x2ec>)
10000cce:	4293      	cmp	r3, r2
10000cd0:	f000 80ed 	beq.w	10000eae <alarm_pool_irq_handler+0x2be>
10000cd4:	887a      	ldrh	r2, [r7, #2]
10000cd6:	f9b6 0008 	ldrsh.w	r0, [r6, #8]
10000cda:	b292      	uxth	r2, r2
10000cdc:	ea42 4000 	orr.w	r0, r2, r0, lsl #16
10000ce0:	4798      	blx	r3
10000ce2:	4602      	mov	r2, r0
10000ce4:	460b      	mov	r3, r1
10000ce6:	ea52 0103 	orrs.w	r1, r2, r3
10000cea:	f000 80b0 	beq.w	10000e4e <alarm_pool_irq_handler+0x25e>
10000cee:	2b00      	cmp	r3, #0
10000cf0:	f280 80d1 	bge.w	10000e96 <alarm_pool_irq_handler+0x2a6>
10000cf4:	ebb4 0e02 	subs.w	lr, r4, r2
10000cf8:	eb68 0803 	sbc.w	r8, r8, r3
10000cfc:	f939 303a 	ldrsh.w	r3, [r9, sl, lsl #3]
10000d00:	e9c7 e802 	strd	lr, r8, [r7, #8]
10000d04:	2b00      	cmp	r3, #0
10000d06:	db96      	blt.n	10000c36 <alarm_pool_irq_handler+0x46>
10000d08:	6971      	ldr	r1, [r6, #20]
10000d0a:	eb03 0243 	add.w	r2, r3, r3, lsl #1
10000d0e:	eb01 02c2 	add.w	r2, r1, r2, lsl #3
10000d12:	e9d2 7002 	ldrd	r7, r0, [r2, #8]
10000d16:	45be      	cmp	lr, r7
10000d18:	eb78 0c00 	sbcs.w	ip, r8, r0
10000d1c:	ea4f 0243 	mov.w	r2, r3, lsl #1
10000d20:	db89      	blt.n	10000c36 <alarm_pool_irq_handler+0x46>
10000d22:	46b4      	mov	ip, r6
10000d24:	f82c 3f08 	strh.w	r3, [ip, #8]!
10000d28:	e00b      	b.n	10000d42 <alarm_pool_irq_handler+0x152>
10000d2a:	f931 3032 	ldrsh.w	r3, [r1, r2, lsl #3]
10000d2e:	46a4      	mov	ip, r4
10000d30:	2b00      	cmp	r3, #0
10000d32:	db0d      	blt.n	10000d50 <alarm_pool_irq_handler+0x160>
10000d34:	eb03 0043 	add.w	r0, r3, r3, lsl #1
10000d38:	eb01 00c0 	add.w	r0, r1, r0, lsl #3
10000d3c:	005a      	lsls	r2, r3, #1
10000d3e:	e9d0 7002 	ldrd	r7, r0, [r0, #8]
10000d42:	45be      	cmp	lr, r7
10000d44:	441a      	add	r2, r3
10000d46:	eb78 0000 	sbcs.w	r0, r8, r0
10000d4a:	eb01 04c2 	add.w	r4, r1, r2, lsl #3
10000d4e:	daec      	bge.n	10000d2a <alarm_pool_irq_handler+0x13a>
10000d50:	f829 303a 	strh.w	r3, [r9, sl, lsl #3]
10000d54:	9b00      	ldr	r3, [sp, #0]
10000d56:	f8ac 3000 	strh.w	r3, [ip]
10000d5a:	88b3      	ldrh	r3, [r6, #4]
10000d5c:	0418      	lsls	r0, r3, #16
10000d5e:	f53f af6e 	bmi.w	10000c3e <alarm_pool_irq_handler+0x4e>
10000d62:	6933      	ldr	r3, [r6, #16]
10000d64:	f3ef 8210 	mrs	r2, PRIMASK
10000d68:	b672      	cpsid	i
10000d6a:	e8d3 0fcf 	ldaexb	r0, [r3]
10000d6e:	2101      	movs	r1, #1
10000d70:	2800      	cmp	r0, #0
10000d72:	d1fa      	bne.n	10000d6a <alarm_pool_irq_handler+0x17a>
10000d74:	e8c3 1f40 	strexb	r0, r1, [r3]
10000d78:	2800      	cmp	r0, #0
10000d7a:	d1f6      	bne.n	10000d6a <alarm_pool_irq_handler+0x17a>
10000d7c:	f3bf 8f5f 	dmb	sy
10000d80:	f64f 74ff 	movw	r4, #65535	@ 0xffff
10000d84:	88b0      	ldrh	r0, [r6, #4]
10000d86:	2300      	movs	r3, #0
10000d88:	6931      	ldr	r1, [r6, #16]
10000d8a:	b200      	sxth	r0, r0
10000d8c:	80b4      	strh	r4, [r6, #4]
10000d8e:	e8c1 3f8f 	stlb	r3, [r1]
10000d92:	f382 8810 	msr	PRIMASK, r2
10000d96:	4298      	cmp	r0, r3
10000d98:	f6ff af51 	blt.w	10000c3e <alarm_pool_irq_handler+0x4e>
10000d9c:	4607      	mov	r7, r0
10000d9e:	46a9      	mov	r9, r5
10000da0:	6974      	ldr	r4, [r6, #20]
10000da2:	f106 0808 	add.w	r8, r6, #8
10000da6:	eb07 0e47 	add.w	lr, r7, r7, lsl #1
10000daa:	eb04 03ce 	add.w	r3, r4, lr, lsl #3
10000dae:	e9d3 5002 	ldrd	r5, r0, [r3, #8]
10000db2:	f9b6 3008 	ldrsh.w	r3, [r6, #8]
10000db6:	46c4      	mov	ip, r8
10000db8:	2b00      	cmp	r3, #0
10000dba:	db13      	blt.n	10000de4 <alarm_pool_irq_handler+0x1f4>
10000dbc:	46b2      	mov	sl, r6
10000dbe:	9700      	str	r7, [sp, #0]
10000dc0:	e004      	b.n	10000dcc <alarm_pool_irq_handler+0x1dc>
10000dc2:	f934 3036 	ldrsh.w	r3, [r4, r6, lsl #3]
10000dc6:	4694      	mov	ip, r2
10000dc8:	2b00      	cmp	r3, #0
10000dca:	db09      	blt.n	10000de0 <alarm_pool_irq_handler+0x1f0>
10000dcc:	eb03 0643 	add.w	r6, r3, r3, lsl #1
10000dd0:	eb04 02c6 	add.w	r2, r4, r6, lsl #3
10000dd4:	e9d2 7102 	ldrd	r7, r1, [r2, #8]
10000dd8:	42bd      	cmp	r5, r7
10000dda:	eb70 0101 	sbcs.w	r1, r0, r1
10000dde:	daf0      	bge.n	10000dc2 <alarm_pool_irq_handler+0x1d2>
10000de0:	4656      	mov	r6, sl
10000de2:	9f00      	ldr	r7, [sp, #0]
10000de4:	f8ac 7000 	strh.w	r7, [ip]
10000de8:	f934 703e 	ldrsh.w	r7, [r4, lr, lsl #3]
10000dec:	f824 303e 	strh.w	r3, [r4, lr, lsl #3]
10000df0:	2f00      	cmp	r7, #0
10000df2:	dad8      	bge.n	10000da6 <alarm_pool_irq_handler+0x1b6>
10000df4:	79b3      	ldrb	r3, [r6, #6]
10000df6:	464d      	mov	r5, r9
10000df8:	2b00      	cmp	r3, #0
10000dfa:	f43f af24 	beq.w	10000c46 <alarm_pool_irq_handler+0x56>
10000dfe:	2300      	movs	r3, #0
10000e00:	71b3      	strb	r3, [r6, #6]
10000e02:	f9b6 3008 	ldrsh.w	r3, [r6, #8]
10000e06:	f106 0808 	add.w	r8, r6, #8
10000e0a:	1c59      	adds	r1, r3, #1
10000e0c:	d03d      	beq.n	10000e8a <alarm_pool_irq_handler+0x29a>
10000e0e:	4619      	mov	r1, r3
10000e10:	6977      	ldr	r7, [r6, #20]
10000e12:	e003      	b.n	10000e1c <alarm_pool_irq_handler+0x22c>
10000e14:	4680      	mov	r8, r0
10000e16:	1c5a      	adds	r2, r3, #1
10000e18:	f43f af17 	beq.w	10000c4a <alarm_pool_irq_handler+0x5a>
10000e1c:	eb03 0243 	add.w	r2, r3, r3, lsl #1
10000e20:	eb07 00c2 	add.w	r0, r7, r2, lsl #3
10000e24:	f8b0 c002 	ldrh.w	ip, [r0, #2]
10000e28:	461c      	mov	r4, r3
10000e2a:	f41c 4f00 	tst.w	ip, #32768	@ 0x8000
10000e2e:	469e      	mov	lr, r3
10000e30:	f937 3032 	ldrsh.w	r3, [r7, r2, lsl #3]
10000e34:	d0ee      	beq.n	10000e14 <alarm_pool_irq_handler+0x224>
10000e36:	428c      	cmp	r4, r1
10000e38:	ed80 8b02 	vstr	d8, [r0, #8]
10000e3c:	d005      	beq.n	10000e4a <alarm_pool_irq_handler+0x25a>
10000e3e:	f8a8 3000 	strh.w	r3, [r8]
10000e42:	8931      	ldrh	r1, [r6, #8]
10000e44:	f827 1032 	strh.w	r1, [r7, r2, lsl #3]
10000e48:	8134      	strh	r4, [r6, #8]
10000e4a:	4671      	mov	r1, lr
10000e4c:	e7e3      	b.n	10000e16 <alarm_pool_irq_handler+0x226>
10000e4e:	f839 303a 	ldrh.w	r3, [r9, sl, lsl #3]
10000e52:	8133      	strh	r3, [r6, #8]
10000e54:	6933      	ldr	r3, [r6, #16]
10000e56:	f3ef 8210 	mrs	r2, PRIMASK
10000e5a:	b672      	cpsid	i
10000e5c:	e8d3 0fcf 	ldaexb	r0, [r3]
10000e60:	2101      	movs	r1, #1
10000e62:	2800      	cmp	r0, #0
10000e64:	d1fa      	bne.n	10000e5c <alarm_pool_irq_handler+0x26c>
10000e66:	e8c3 1f40 	strexb	r0, r1, [r3]
10000e6a:	2800      	cmp	r0, #0
10000e6c:	d1f6      	bne.n	10000e5c <alarm_pool_irq_handler+0x26c>
10000e6e:	f3bf 8f5f 	dmb	sy
10000e72:	8873      	ldrh	r3, [r6, #2]
10000e74:	6931      	ldr	r1, [r6, #16]
10000e76:	f829 303a 	strh.w	r3, [r9, sl, lsl #3]
10000e7a:	9b00      	ldr	r3, [sp, #0]
10000e7c:	8073      	strh	r3, [r6, #2]
10000e7e:	2300      	movs	r3, #0
10000e80:	e8c1 3f8f 	stlb	r3, [r1]
10000e84:	f382 8810 	msr	PRIMASK, r2
10000e88:	e6d5      	b.n	10000c36 <alarm_pool_irq_handler+0x46>
10000e8a:	bf40      	sev
10000e8c:	b005      	add	sp, #20
10000e8e:	ecbd 8b02 	vpop	{d8}
10000e92:	e8bd 8ff0 	ldmia.w	sp!, {r4, r5, r6, r7, r8, r9, sl, fp, pc}
10000e96:	4628      	mov	r0, r5
10000e98:	e9cd 2302 	strd	r2, r3, [sp, #8]
10000e9c:	f000 fa28 	bl	100012f0 <timer_time_us_64>
10000ea0:	9a02      	ldr	r2, [sp, #8]
10000ea2:	9b03      	ldr	r3, [sp, #12]
10000ea4:	eb10 0e02 	adds.w	lr, r0, r2
10000ea8:	eb43 0801 	adc.w	r8, r3, r1
10000eac:	e726      	b.n	10000cfc <alarm_pool_irq_handler+0x10c>
10000eae:	4608      	mov	r0, r1
10000eb0:	690b      	ldr	r3, [r1, #16]
10000eb2:	9102      	str	r1, [sp, #8]
10000eb4:	4798      	blx	r3
10000eb6:	2800      	cmp	r0, #0
10000eb8:	d0c9      	beq.n	10000e4e <alarm_pool_irq_handler+0x25e>
10000eba:	9902      	ldr	r1, [sp, #8]
10000ebc:	e9d1 2300 	ldrd	r2, r3, [r1]
10000ec0:	e711      	b.n	10000ce6 <alarm_pool_irq_handler+0xf6>
10000ec2:	bf00      	nop
10000ec4:	f3af 8000 	nop.w
10000ec8:	ffffffff 	.word	0xffffffff
10000ecc:	ffffffff 	.word	0xffffffff
10000ed0:	400b8000 	.word	0x400b8000
10000ed4:	2000246c 	.word	0x2000246c
10000ed8:	400b0000 	.word	0x400b0000
10000edc:	10000bf1 	.word	0x10000bf1

10000ee0 <runtime_init_default_alarm_pool>:
10000ee0:	e92d 4ff8 	stmdb	sp!, {r3, r4, r5, r6, r7, r8, r9, sl, fp, lr}
10000ee4:	4c36      	ldr	r4, [pc, #216]	@ (10000fc0 <runtime_init_default_alarm_pool+0xe0>)
10000ee6:	6925      	ldr	r5, [r4, #16]
10000ee8:	b12d      	cbz	r5, 10000ef6 <runtime_init_default_alarm_pool+0x16>
10000eea:	e8bd 4ff8 	ldmia.w	sp!, {r3, r4, r5, r6, r7, r8, r9, sl, fp, lr}
10000eee:	210a      	movs	r1, #10
10000ef0:	4834      	ldr	r0, [pc, #208]	@ (10000fc4 <runtime_init_default_alarm_pool+0xe4>)
10000ef2:	f7ff be0d 	b.w	10000b10 <lock_init>
10000ef6:	f8df 80e4 	ldr.w	r8, [pc, #228]	@ 10000fdc <runtime_init_default_alarm_pool+0xfc>
10000efa:	2103      	movs	r1, #3
10000efc:	4640      	mov	r0, r8
10000efe:	f000 f9e5 	bl	100012cc <timer_hardware_alarm_claim>
10000f02:	2603      	movs	r6, #3
10000f04:	f8c4 800c 	str.w	r8, [r4, #12]
10000f08:	f7ff fadc 	bl	100004c4 <next_striped_spin_lock_num>
10000f0c:	f04f 4c50 	mov.w	ip, #3489660928	@ 0xd0000000
10000f10:	4b2d      	ldr	r3, [pc, #180]	@ (10000fc8 <runtime_init_default_alarm_pool+0xe8>)
10000f12:	7026      	strb	r6, [r4, #0]
10000f14:	4403      	add	r3, r0
10000f16:	6123      	str	r3, [r4, #16]
10000f18:	f8dc 3000 	ldr.w	r3, [ip]
10000f1c:	210f      	movs	r1, #15
10000f1e:	7063      	strb	r3, [r4, #1]
10000f20:	6963      	ldr	r3, [r4, #20]
10000f22:	8061      	strh	r1, [r4, #2]
10000f24:	831d      	strh	r5, [r3, #24]
10000f26:	f04f 0504 	mov.w	r5, #4
10000f2a:	f8a3 5078 	strh.w	r5, [r3, #120]	@ 0x78
10000f2e:	f04f 0505 	mov.w	r5, #5
10000f32:	f8a3 5090 	strh.w	r5, [r3, #144]	@ 0x90
10000f36:	f04f 0506 	mov.w	r5, #6
10000f3a:	f8a3 50a8 	strh.w	r5, [r3, #168]	@ 0xa8
10000f3e:	f04f 0507 	mov.w	r5, #7
10000f42:	210e      	movs	r1, #14
10000f44:	f64f 72ff 	movw	r2, #65535	@ 0xffff
10000f48:	2708      	movs	r7, #8
10000f4a:	f04f 0e0a 	mov.w	lr, #10
10000f4e:	f8a3 50c0 	strh.w	r5, [r3, #192]	@ 0xc0
10000f52:	f04f 0901 	mov.w	r9, #1
10000f56:	f04f 0c0c 	mov.w	ip, #12
10000f5a:	f04f 0b02 	mov.w	fp, #2
10000f5e:	f04f 0a09 	mov.w	sl, #9
10000f62:	200d      	movs	r0, #13
10000f64:	f04f 050b 	mov.w	r5, #11
10000f68:	f8a3 1168 	strh.w	r1, [r3, #360]	@ 0x168
10000f6c:	4917      	ldr	r1, [pc, #92]	@ (10000fcc <runtime_init_default_alarm_pool+0xec>)
10000f6e:	80a2      	strh	r2, [r4, #4]
10000f70:	f8a3 e108 	strh.w	lr, [r3, #264]	@ 0x108
10000f74:	60a1      	str	r1, [r4, #8]
10000f76:	f8a3 b048 	strh.w	fp, [r3, #72]	@ 0x48
10000f7a:	f8a3 a0f0 	strh.w	sl, [r3, #240]	@ 0xf0
10000f7e:	f8a3 5120 	strh.w	r5, [r3, #288]	@ 0x120
10000f82:	f8a3 c138 	strh.w	ip, [r3, #312]	@ 0x138
10000f86:	f8a3 0150 	strh.w	r0, [r3, #336]	@ 0x150
10000f8a:	f8a3 9030 	strh.w	r9, [r3, #48]	@ 0x30
10000f8e:	f8a3 6060 	strh.w	r6, [r3, #96]	@ 0x60
10000f92:	f8a3 70d8 	strh.w	r7, [r3, #216]	@ 0xd8
10000f96:	801a      	strh	r2, [r3, #0]
10000f98:	4b0d      	ldr	r3, [pc, #52]	@ (10000fd0 <runtime_init_default_alarm_pool+0xf0>)
10000f9a:	4630      	mov	r0, r6
10000f9c:	f8c8 7020 	str.w	r7, [r8, #32]
10000fa0:	490c      	ldr	r1, [pc, #48]	@ (10000fd4 <runtime_init_default_alarm_pool+0xf4>)
10000fa2:	60dc      	str	r4, [r3, #12]
10000fa4:	f7ff fb20 	bl	100005e8 <irq_set_exclusive_handler>
10000fa8:	4649      	mov	r1, r9
10000faa:	4630      	mov	r0, r6
10000fac:	f7ff fada 	bl	10000564 <irq_set_enabled>
10000fb0:	4b09      	ldr	r3, [pc, #36]	@ (10000fd8 <runtime_init_default_alarm_pool+0xf8>)
10000fb2:	210a      	movs	r1, #10
10000fb4:	641f      	str	r7, [r3, #64]	@ 0x40
10000fb6:	4803      	ldr	r0, [pc, #12]	@ (10000fc4 <runtime_init_default_alarm_pool+0xe4>)
10000fb8:	e8bd 4ff8 	ldmia.w	sp!, {r3, r4, r5, r6, r7, r8, r9, sl, fp, lr}
10000fbc:	f7ff bda8 	b.w	10000b10 <lock_init>
10000fc0:	20000e3c 	.word	0x20000e3c
10000fc4:	20002494 	.word	0x20002494
10000fc8:	20001bcc 	.word	0x20001bcc
10000fcc:	0010ffff 	.word	0x0010ffff
10000fd0:	2000246c 	.word	0x2000246c
10000fd4:	10000bf1 	.word	0x10000bf1
10000fd8:	400b2000 	.word	0x400b2000
10000fdc:	400b0000 	.word	0x400b0000

10000fe0 <alarm_pool_get_default>:
10000fe0:	4800      	ldr	r0, [pc, #0]	@ (10000fe4 <alarm_pool_get_default+0x4>)
10000fe2:	4770      	bx	lr
10000fe4:	20000e3c 	.word	0x20000e3c

10000fe8 <alarm_pool_add_alarm_at>:
10000fe8:	b5f8      	push	{r3, r4, r5, r6, r7, lr}
10000fea:	f89d 7020 	ldrb.w	r7, [sp, #32]
10000fee:	4604      	mov	r4, r0
10000ff0:	4616      	mov	r6, r2
10000ff2:	461d      	mov	r5, r3
10000ff4:	b937      	cbnz	r7, 10001004 <alarm_pool_add_alarm_at+0x1c>
10000ff6:	f000 f983 	bl	10001300 <time_us_64>
10000ffa:	4286      	cmp	r6, r0
10000ffc:	eb65 0101 	sbc.w	r1, r5, r1
10001000:	2900      	cmp	r1, #0
10001002:	db5c      	blt.n	100010be <alarm_pool_add_alarm_at+0xd6>
10001004:	6923      	ldr	r3, [r4, #16]
10001006:	f3ef 8710 	mrs	r7, PRIMASK
1000100a:	b672      	cpsid	i
1000100c:	e8d3 1fcf 	ldaexb	r1, [r3]
10001010:	2201      	movs	r2, #1
10001012:	2900      	cmp	r1, #0
10001014:	d1fa      	bne.n	1000100c <alarm_pool_add_alarm_at+0x24>
10001016:	e8c3 2f41 	strexb	r1, r2, [r3]
1000101a:	2900      	cmp	r1, #0
1000101c:	d1f6      	bne.n	1000100c <alarm_pool_add_alarm_at+0x24>
1000101e:	f3bf 8f5f 	dmb	sy
10001022:	f9b4 c002 	ldrsh.w	ip, [r4, #2]
10001026:	6963      	ldr	r3, [r4, #20]
10001028:	eb0c 014c 	add.w	r1, ip, ip, lsl #1
1000102c:	f1bc 0f00 	cmp.w	ip, #0
10001030:	ea4f 02c1 	mov.w	r2, r1, lsl #3
10001034:	eb03 01c1 	add.w	r1, r3, r1, lsl #3
10001038:	db38      	blt.n	100010ac <alarm_pool_add_alarm_at+0xc4>
1000103a:	5a98      	ldrh	r0, [r3, r2]
1000103c:	f04f 0e00 	mov.w	lr, #0
10001040:	8060      	strh	r0, [r4, #2]
10001042:	6920      	ldr	r0, [r4, #16]
10001044:	e8c0 ef8f 	stlb	lr, [r0]
10001048:	f387 8810 	msr	PRIMASK, r7
1000104c:	9806      	ldr	r0, [sp, #24]
1000104e:	e9c1 6502 	strd	r6, r5, [r1, #8]
10001052:	6108      	str	r0, [r1, #16]
10001054:	9807      	ldr	r0, [sp, #28]
10001056:	6148      	str	r0, [r1, #20]
10001058:	8848      	ldrh	r0, [r1, #2]
1000105a:	3001      	adds	r0, #1
1000105c:	f3c0 000e 	ubfx	r0, r0, #0, #15
10001060:	2801      	cmp	r0, #1
10001062:	bf38      	it	cc
10001064:	2001      	movcc	r0, #1
10001066:	8048      	strh	r0, [r1, #2]
10001068:	ea40 400c 	orr.w	r0, r0, ip, lsl #16
1000106c:	6921      	ldr	r1, [r4, #16]
1000106e:	f3ef 8510 	mrs	r5, PRIMASK
10001072:	b672      	cpsid	i
10001074:	e8d1 7fcf 	ldaexb	r7, [r1]
10001078:	2601      	movs	r6, #1
1000107a:	2f00      	cmp	r7, #0
1000107c:	d1fa      	bne.n	10001074 <alarm_pool_add_alarm_at+0x8c>
1000107e:	e8c1 6f47 	strexb	r7, r6, [r1]
10001082:	2f00      	cmp	r7, #0
10001084:	d1f6      	bne.n	10001074 <alarm_pool_add_alarm_at+0x8c>
10001086:	f3bf 8f5f 	dmb	sy
1000108a:	88a1      	ldrh	r1, [r4, #4]
1000108c:	5299      	strh	r1, [r3, r2]
1000108e:	f8a4 c004 	strh.w	ip, [r4, #4]
10001092:	6923      	ldr	r3, [r4, #16]
10001094:	e8c3 ef8f 	stlb	lr, [r3]
10001098:	f385 8810 	msr	PRIMASK, r5
1000109c:	2201      	movs	r2, #1
1000109e:	68e3      	ldr	r3, [r4, #12]
100010a0:	7821      	ldrb	r1, [r4, #0]
100010a2:	f503 5301 	add.w	r3, r3, #8256	@ 0x2040
100010a6:	408a      	lsls	r2, r1
100010a8:	605a      	str	r2, [r3, #4]
100010aa:	bdf8      	pop	{r3, r4, r5, r6, r7, pc}
100010ac:	2300      	movs	r3, #0
100010ae:	6922      	ldr	r2, [r4, #16]
100010b0:	e8c2 3f8f 	stlb	r3, [r2]
100010b4:	f387 8810 	msr	PRIMASK, r7
100010b8:	f04f 30ff 	mov.w	r0, #4294967295	@ 0xffffffff
100010bc:	bdf8      	pop	{r3, r4, r5, r6, r7, pc}
100010be:	4638      	mov	r0, r7
100010c0:	bdf8      	pop	{r3, r4, r5, r6, r7, pc}
100010c2:	bf00      	nop

100010c4 <alarm_pool_add_alarm_at_force_in_context>:
100010c4:	4601      	mov	r1, r0
100010c6:	b5f0      	push	{r4, r5, r6, r7, lr}
100010c8:	6900      	ldr	r0, [r0, #16]
100010ca:	f3ef 8710 	mrs	r7, PRIMASK
100010ce:	b672      	cpsid	i
100010d0:	e8d0 5fcf 	ldaexb	r5, [r0]
100010d4:	2401      	movs	r4, #1
100010d6:	2d00      	cmp	r5, #0
100010d8:	d1fa      	bne.n	100010d0 <alarm_pool_add_alarm_at_force_in_context+0xc>
100010da:	e8c0 4f45 	strexb	r5, r4, [r0]
100010de:	2d00      	cmp	r5, #0
100010e0:	d1f6      	bne.n	100010d0 <alarm_pool_add_alarm_at_force_in_context+0xc>
100010e2:	f3bf 8f5f 	dmb	sy
100010e6:	f9b1 e002 	ldrsh.w	lr, [r1, #2]
100010ea:	694c      	ldr	r4, [r1, #20]
100010ec:	eb0e 0c4e 	add.w	ip, lr, lr, lsl #1
100010f0:	f1be 0f00 	cmp.w	lr, #0
100010f4:	ea4f 05cc 	mov.w	r5, ip, lsl #3
100010f8:	eb04 0ccc 	add.w	ip, r4, ip, lsl #3
100010fc:	db3d      	blt.n	1000117a <alarm_pool_add_alarm_at_force_in_context+0xb6>
100010fe:	5b60      	ldrh	r0, [r4, r5]
10001100:	2600      	movs	r6, #0
10001102:	8048      	strh	r0, [r1, #2]
10001104:	6908      	ldr	r0, [r1, #16]
10001106:	e8c0 6f8f 	stlb	r6, [r0]
1000110a:	f387 8810 	msr	PRIMASK, r7
1000110e:	f8bc 0002 	ldrh.w	r0, [ip, #2]
10001112:	e9cc 2302 	strd	r2, r3, [ip, #8]
10001116:	3001      	adds	r0, #1
10001118:	f3c0 000e 	ubfx	r0, r0, #0, #15
1000111c:	2801      	cmp	r0, #1
1000111e:	bf38      	it	cc
10001120:	2001      	movcc	r0, #1
10001122:	9b05      	ldr	r3, [sp, #20]
10001124:	f8ac 0002 	strh.w	r0, [ip, #2]
10001128:	f8cc 3010 	str.w	r3, [ip, #16]
1000112c:	9b06      	ldr	r3, [sp, #24]
1000112e:	ea40 400e 	orr.w	r0, r0, lr, lsl #16
10001132:	f8cc 3014 	str.w	r3, [ip, #20]
10001136:	690b      	ldr	r3, [r1, #16]
10001138:	f3ef 8210 	mrs	r2, PRIMASK
1000113c:	b672      	cpsid	i
1000113e:	e8d3 cfcf 	ldaexb	ip, [r3]
10001142:	2701      	movs	r7, #1
10001144:	f1bc 0f00 	cmp.w	ip, #0
10001148:	d1f9      	bne.n	1000113e <alarm_pool_add_alarm_at_force_in_context+0x7a>
1000114a:	e8c3 7f4c 	strexb	ip, r7, [r3]
1000114e:	f1bc 0f00 	cmp.w	ip, #0
10001152:	d1f4      	bne.n	1000113e <alarm_pool_add_alarm_at_force_in_context+0x7a>
10001154:	f3bf 8f5f 	dmb	sy
10001158:	888b      	ldrh	r3, [r1, #4]
1000115a:	5363      	strh	r3, [r4, r5]
1000115c:	f8a1 e004 	strh.w	lr, [r1, #4]
10001160:	690b      	ldr	r3, [r1, #16]
10001162:	e8c3 6f8f 	stlb	r6, [r3]
10001166:	f382 8810 	msr	PRIMASK, r2
1000116a:	2201      	movs	r2, #1
1000116c:	68cb      	ldr	r3, [r1, #12]
1000116e:	7809      	ldrb	r1, [r1, #0]
10001170:	f503 5301 	add.w	r3, r3, #8256	@ 0x2040
10001174:	408a      	lsls	r2, r1
10001176:	605a      	str	r2, [r3, #4]
10001178:	bdf0      	pop	{r4, r5, r6, r7, pc}
1000117a:	2300      	movs	r3, #0
1000117c:	690a      	ldr	r2, [r1, #16]
1000117e:	e8c2 3f8f 	stlb	r3, [r2]
10001182:	f387 8810 	msr	PRIMASK, r7
10001186:	f04f 30ff 	mov.w	r0, #4294967295	@ 0xffffffff
1000118a:	bdf0      	pop	{r4, r5, r6, r7, pc}

1000118c <alarm_pool_cancel_alarm>:
1000118c:	4603      	mov	r3, r0
1000118e:	8940      	ldrh	r0, [r0, #10]
10001190:	ebb0 4f21 	cmp.w	r0, r1, asr #16
10001194:	dd37      	ble.n	10001206 <alarm_pool_cancel_alarm+0x7a>
10001196:	6958      	ldr	r0, [r3, #20]
10001198:	140a      	asrs	r2, r1, #16
1000119a:	eb02 0242 	add.w	r2, r2, r2, lsl #1
1000119e:	b510      	push	{r4, lr}
100011a0:	eb00 00c2 	add.w	r0, r0, r2, lsl #3
100011a4:	691c      	ldr	r4, [r3, #16]
100011a6:	f3ef 8c10 	mrs	ip, PRIMASK
100011aa:	b672      	cpsid	i
100011ac:	e8d4 efcf 	ldaexb	lr, [r4]
100011b0:	2201      	movs	r2, #1
100011b2:	f1be 0f00 	cmp.w	lr, #0
100011b6:	d1f9      	bne.n	100011ac <alarm_pool_cancel_alarm+0x20>
100011b8:	e8c4 2f4e 	strexb	lr, r2, [r4]
100011bc:	f1be 0f00 	cmp.w	lr, #0
100011c0:	d1f4      	bne.n	100011ac <alarm_pool_cancel_alarm+0x20>
100011c2:	f3bf 8f5f 	dmb	sy
100011c6:	8842      	ldrh	r2, [r0, #2]
100011c8:	b289      	uxth	r1, r1
100011ca:	b292      	uxth	r2, r2
100011cc:	428a      	cmp	r2, r1
100011ce:	d007      	beq.n	100011e0 <alarm_pool_cancel_alarm+0x54>
100011d0:	2200      	movs	r2, #0
100011d2:	691b      	ldr	r3, [r3, #16]
100011d4:	e8c3 2f8f 	stlb	r2, [r3]
100011d8:	f38c 8810 	msr	PRIMASK, ip
100011dc:	2000      	movs	r0, #0
100011de:	bd10      	pop	{r4, pc}
100011e0:	f442 4200 	orr.w	r2, r2, #32768	@ 0x8000
100011e4:	8042      	strh	r2, [r0, #2]
100011e6:	2101      	movs	r1, #1
100011e8:	2200      	movs	r2, #0
100011ea:	6918      	ldr	r0, [r3, #16]
100011ec:	7199      	strb	r1, [r3, #6]
100011ee:	e8c0 2f8f 	stlb	r2, [r0]
100011f2:	f38c 8810 	msr	PRIMASK, ip
100011f6:	781c      	ldrb	r4, [r3, #0]
100011f8:	68da      	ldr	r2, [r3, #12]
100011fa:	4608      	mov	r0, r1
100011fc:	f502 5301 	add.w	r3, r2, #8256	@ 0x2040
10001200:	40a1      	lsls	r1, r4
10001202:	6059      	str	r1, [r3, #4]
10001204:	bd10      	pop	{r4, pc}
10001206:	2000      	movs	r0, #0
10001208:	4770      	bx	lr
1000120a:	bf00      	nop

1000120c <alarm_pool_core_num>:
1000120c:	7840      	ldrb	r0, [r0, #1]
1000120e:	4770      	bx	lr

10001210 <best_effort_wfe_or_timeout>:
10001210:	e92d 43f0 	stmdb	sp!, {r4, r5, r6, r7, r8, r9, lr}
10001214:	4606      	mov	r6, r0
10001216:	460d      	mov	r5, r1
10001218:	b083      	sub	sp, #12
1000121a:	f3ef 8405 	mrs	r4, IPSR
1000121e:	b2e4      	uxtb	r4, r4
10001220:	b13c      	cbz	r4, 10001232 <best_effort_wfe_or_timeout+0x22>
10001222:	4b27      	ldr	r3, [pc, #156]	@ (100012c0 <best_effort_wfe_or_timeout+0xb0>)
10001224:	6a58      	ldr	r0, [r3, #36]	@ 0x24
10001226:	42a8      	cmp	r0, r5
10001228:	d21c      	bcs.n	10001264 <best_effort_wfe_or_timeout+0x54>
1000122a:	2000      	movs	r0, #0
1000122c:	b003      	add	sp, #12
1000122e:	e8bd 83f0 	ldmia.w	sp!, {r4, r5, r6, r7, r8, r9, pc}
10001232:	4f24      	ldr	r7, [pc, #144]	@ (100012c4 <best_effort_wfe_or_timeout+0xb4>)
10001234:	f8d7 900c 	ldr.w	r9, [r7, #12]
10001238:	f897 8000 	ldrb.w	r8, [r7]
1000123c:	4648      	mov	r0, r9
1000123e:	f000 f857 	bl	100012f0 <timer_time_us_64>
10001242:	f108 0804 	add.w	r8, r8, #4
10001246:	f859 3028 	ldr.w	r3, [r9, r8, lsl #2]
1000124a:	1a1b      	subs	r3, r3, r0
1000124c:	1a30      	subs	r0, r6, r0
1000124e:	eb65 0101 	sbc.w	r1, r5, r1
10001252:	4298      	cmp	r0, r3
10001254:	f171 0100 	sbcs.w	r1, r1, #0
10001258:	db11      	blt.n	1000127e <best_effort_wfe_or_timeout+0x6e>
1000125a:	bf20      	wfe
1000125c:	4b18      	ldr	r3, [pc, #96]	@ (100012c0 <best_effort_wfe_or_timeout+0xb0>)
1000125e:	6a58      	ldr	r0, [r3, #36]	@ 0x24
10001260:	42a8      	cmp	r0, r5
10001262:	d3e2      	bcc.n	1000122a <best_effort_wfe_or_timeout+0x1a>
10001264:	6a9b      	ldr	r3, [r3, #40]	@ 0x28
10001266:	42b3      	cmp	r3, r6
10001268:	d303      	bcc.n	10001272 <best_effort_wfe_or_timeout+0x62>
1000126a:	2001      	movs	r0, #1
1000126c:	b003      	add	sp, #12
1000126e:	e8bd 83f0 	ldmia.w	sp!, {r4, r5, r6, r7, r8, r9, pc}
10001272:	1b40      	subs	r0, r0, r5
10001274:	bf18      	it	ne
10001276:	2001      	movne	r0, #1
10001278:	b003      	add	sp, #12
1000127a:	e8bd 83f0 	ldmia.w	sp!, {r4, r5, r6, r7, r8, r9, pc}
1000127e:	f000 f83f 	bl	10001300 <time_us_64>
10001282:	4286      	cmp	r6, r0
10001284:	eb65 0101 	sbc.w	r1, r5, r1
10001288:	2900      	cmp	r1, #0
1000128a:	dbca      	blt.n	10001222 <best_effort_wfe_or_timeout+0x12>
1000128c:	4b0e      	ldr	r3, [pc, #56]	@ (100012c8 <best_effort_wfe_or_timeout+0xb8>)
1000128e:	4638      	mov	r0, r7
10001290:	e9cd 3400 	strd	r3, r4, [sp]
10001294:	4632      	mov	r2, r6
10001296:	462b      	mov	r3, r5
10001298:	f7ff ff14 	bl	100010c4 <alarm_pool_add_alarm_at_force_in_context>
1000129c:	1e01      	subs	r1, r0, #0
1000129e:	ddc0      	ble.n	10001222 <best_effort_wfe_or_timeout+0x12>
100012a0:	4b07      	ldr	r3, [pc, #28]	@ (100012c0 <best_effort_wfe_or_timeout+0xb0>)
100012a2:	6a5a      	ldr	r2, [r3, #36]	@ 0x24
100012a4:	42aa      	cmp	r2, r5
100012a6:	d308      	bcc.n	100012ba <best_effort_wfe_or_timeout+0xaa>
100012a8:	6a9b      	ldr	r3, [r3, #40]	@ 0x28
100012aa:	42b3      	cmp	r3, r6
100012ac:	d303      	bcc.n	100012b6 <best_effort_wfe_or_timeout+0xa6>
100012ae:	4805      	ldr	r0, [pc, #20]	@ (100012c4 <best_effort_wfe_or_timeout+0xb4>)
100012b0:	f7ff ff6c 	bl	1000118c <alarm_pool_cancel_alarm>
100012b4:	e7b5      	b.n	10001222 <best_effort_wfe_or_timeout+0x12>
100012b6:	42aa      	cmp	r2, r5
100012b8:	d1f9      	bne.n	100012ae <best_effort_wfe_or_timeout+0x9e>
100012ba:	bf20      	wfe
100012bc:	e7f7      	b.n	100012ae <best_effort_wfe_or_timeout+0x9e>
100012be:	bf00      	nop
100012c0:	400b0000 	.word	0x400b0000
100012c4:	20000e3c 	.word	0x20000e3c
100012c8:	10000bb1 	.word	0x10000bb1

100012cc <timer_hardware_alarm_claim>:
100012cc:	b410      	push	{r4}
100012ce:	4b05      	ldr	r3, [pc, #20]	@ (100012e4 <timer_hardware_alarm_claim+0x18>)
100012d0:	4c05      	ldr	r4, [pc, #20]	@ (100012e8 <timer_hardware_alarm_claim+0x1c>)
100012d2:	4a06      	ldr	r2, [pc, #24]	@ (100012ec <timer_hardware_alarm_claim+0x20>)
100012d4:	42a0      	cmp	r0, r4
100012d6:	bf14      	ite	ne
100012d8:	4618      	movne	r0, r3
100012da:	1c58      	addeq	r0, r3, #1
100012dc:	f85d 4b04 	ldr.w	r4, [sp], #4
100012e0:	f7ff b876 	b.w	100003d0 <hw_claim_or_assert>
100012e4:	20001ff4 	.word	0x20001ff4
100012e8:	400b8000 	.word	0x400b8000
100012ec:	100081fc 	.word	0x100081fc

100012f0 <timer_time_us_64>:
100012f0:	4603      	mov	r3, r0
100012f2:	6a41      	ldr	r1, [r0, #36]	@ 0x24
100012f4:	460a      	mov	r2, r1
100012f6:	6a98      	ldr	r0, [r3, #40]	@ 0x28
100012f8:	6a59      	ldr	r1, [r3, #36]	@ 0x24
100012fa:	428a      	cmp	r2, r1
100012fc:	d1fa      	bne.n	100012f4 <timer_time_us_64+0x4>
100012fe:	4770      	bx	lr

10001300 <time_us_64>:
10001300:	4b03      	ldr	r3, [pc, #12]	@ (10001310 <time_us_64+0x10>)
10001302:	6a59      	ldr	r1, [r3, #36]	@ 0x24
10001304:	460a      	mov	r2, r1
10001306:	6a98      	ldr	r0, [r3, #40]	@ 0x28
10001308:	6a59      	ldr	r1, [r3, #36]	@ 0x24
1000130a:	4291      	cmp	r1, r2
1000130c:	d1fa      	bne.n	10001304 <time_us_64+0x4>
1000130e:	4770      	bx	lr
10001310:	400b0000 	.word	0x400b0000

10001314 <busy_wait_us>:
10001314:	b410      	push	{r4}
10001316:	4a17      	ldr	r2, [pc, #92]	@ (10001374 <busy_wait_us+0x60>)
10001318:	6a53      	ldr	r3, [r2, #36]	@ 0x24
1000131a:	469c      	mov	ip, r3
1000131c:	6a94      	ldr	r4, [r2, #40]	@ 0x28
1000131e:	6a53      	ldr	r3, [r2, #36]	@ 0x24
10001320:	4563      	cmp	r3, ip
10001322:	d1fa      	bne.n	1000131a <busy_wait_us+0x6>
10001324:	1900      	adds	r0, r0, r4
10001326:	4159      	adcs	r1, r3
10001328:	f04f 0200 	mov.w	r2, #0
1000132c:	bf28      	it	cs
1000132e:	2201      	movcs	r2, #1
10001330:	4603      	mov	r3, r0
10001332:	b1ca      	cbz	r2, 10001368 <busy_wait_us+0x54>
10001334:	4b0f      	ldr	r3, [pc, #60]	@ (10001374 <busy_wait_us+0x60>)
10001336:	6a59      	ldr	r1, [r3, #36]	@ 0x24
10001338:	1c4b      	adds	r3, r1, #1
1000133a:	bf08      	it	eq
1000133c:	460b      	moveq	r3, r1
1000133e:	d008      	beq.n	10001352 <busy_wait_us+0x3e>
10001340:	f04f 31ff 	mov.w	r1, #4294967295	@ 0xffffffff
10001344:	460b      	mov	r3, r1
10001346:	480b      	ldr	r0, [pc, #44]	@ (10001374 <busy_wait_us+0x60>)
10001348:	6a42      	ldr	r2, [r0, #36]	@ 0x24
1000134a:	428a      	cmp	r2, r1
1000134c:	d3fc      	bcc.n	10001348 <busy_wait_us+0x34>
1000134e:	428a      	cmp	r2, r1
10001350:	d107      	bne.n	10001362 <busy_wait_us+0x4e>
10001352:	4a08      	ldr	r2, [pc, #32]	@ (10001374 <busy_wait_us+0x60>)
10001354:	e002      	b.n	1000135c <busy_wait_us+0x48>
10001356:	6a50      	ldr	r0, [r2, #36]	@ 0x24
10001358:	4288      	cmp	r0, r1
1000135a:	d102      	bne.n	10001362 <busy_wait_us+0x4e>
1000135c:	6a90      	ldr	r0, [r2, #40]	@ 0x28
1000135e:	4298      	cmp	r0, r3
10001360:	d3f9      	bcc.n	10001356 <busy_wait_us+0x42>
10001362:	f85d 4b04 	ldr.w	r4, [sp], #4
10001366:	4770      	bx	lr
10001368:	4a02      	ldr	r2, [pc, #8]	@ (10001374 <busy_wait_us+0x60>)
1000136a:	6a52      	ldr	r2, [r2, #36]	@ 0x24
1000136c:	4291      	cmp	r1, r2
1000136e:	d8ea      	bhi.n	10001346 <busy_wait_us+0x32>
10001370:	e7ed      	b.n	1000134e <busy_wait_us+0x3a>
10001372:	bf00      	nop
10001374:	400b0000 	.word	0x400b0000

10001378 <uart_init>:
10001378:	b5f8      	push	{r3, r4, r5, r6, r7, lr}
1000137a:	4605      	mov	r5, r0
1000137c:	2006      	movs	r0, #6
1000137e:	460e      	mov	r6, r1
10001380:	f000 f8e4 	bl	1000154c <clock_get_hz>
10001384:	2800      	cmp	r0, #0
10001386:	d042      	beq.n	1000140e <uart_init+0x96>
10001388:	4a35      	ldr	r2, [pc, #212]	@ (10001460 <uart_init+0xe8>)
1000138a:	4836      	ldr	r0, [pc, #216]	@ (10001464 <uart_init+0xec>)
1000138c:	4295      	cmp	r5, r2
1000138e:	bf14      	ite	ne
10001390:	f04f 6280 	movne.w	r2, #67108864	@ 0x4000000
10001394:	f04f 6200 	moveq.w	r2, #134217728	@ 0x8000000
10001398:	4b33      	ldr	r3, [pc, #204]	@ (10001468 <uart_init+0xf0>)
1000139a:	4934      	ldr	r1, [pc, #208]	@ (1000146c <uart_init+0xf4>)
1000139c:	6002      	str	r2, [r0, #0]
1000139e:	601a      	str	r2, [r3, #0]
100013a0:	688c      	ldr	r4, [r1, #8]
100013a2:	ea32 0404 	bics.w	r4, r2, r4
100013a6:	d1fb      	bne.n	100013a0 <uart_init+0x28>
100013a8:	4b2d      	ldr	r3, [pc, #180]	@ (10001460 <uart_init+0xe8>)
100013aa:	f44f 7180 	mov.w	r1, #256	@ 0x100
100013ae:	1aeb      	subs	r3, r5, r3
100013b0:	fab3 f383 	clz	r3, r3
100013b4:	4a2e      	ldr	r2, [pc, #184]	@ (10001470 <uart_init+0xf8>)
100013b6:	095b      	lsrs	r3, r3, #5
100013b8:	2006      	movs	r0, #6
100013ba:	f822 1013 	strh.w	r1, [r2, r3, lsl #1]
100013be:	f000 f8c5 	bl	1000154c <clock_get_hz>
100013c2:	00c3      	lsls	r3, r0, #3
100013c4:	fbb3 f3f6 	udiv	r3, r3, r6
100013c8:	3301      	adds	r3, #1
100013ca:	09da      	lsrs	r2, r3, #7
100013cc:	d120      	bne.n	10001410 <uart_init+0x98>
100013ce:	2640      	movs	r6, #64	@ 0x40
100013d0:	2101      	movs	r1, #1
100013d2:	6269      	str	r1, [r5, #36]	@ 0x24
100013d4:	62aa      	str	r2, [r5, #40]	@ 0x28
100013d6:	6b2f      	ldr	r7, [r5, #48]	@ 0x30
100013d8:	07fb      	lsls	r3, r7, #31
100013da:	d422      	bmi.n	10001422 <uart_init+0xaa>
100013dc:	462b      	mov	r3, r5
100013de:	2200      	movs	r2, #0
100013e0:	f853 1f2c 	ldr.w	r1, [r3, #44]!
100013e4:	2006      	movs	r0, #6
100013e6:	f503 5480 	add.w	r4, r3, #4096	@ 0x1000
100013ea:	6022      	str	r2, [r4, #0]
100013ec:	632f      	str	r7, [r5, #48]	@ 0x30
100013ee:	f000 f8ad 	bl	1000154c <clock_get_hz>
100013f2:	f240 3101 	movw	r1, #769	@ 0x301
100013f6:	2203      	movs	r2, #3
100013f8:	0080      	lsls	r0, r0, #2
100013fa:	fbb0 f0f6 	udiv	r0, r0, r6
100013fe:	6aeb      	ldr	r3, [r5, #44]	@ 0x2c
10001400:	f083 0370 	eor.w	r3, r3, #112	@ 0x70
10001404:	f003 037e 	and.w	r3, r3, #126	@ 0x7e
10001408:	6023      	str	r3, [r4, #0]
1000140a:	6329      	str	r1, [r5, #48]	@ 0x30
1000140c:	64aa      	str	r2, [r5, #72]	@ 0x48
1000140e:	bdf8      	pop	{r3, r4, r5, r6, r7, pc}
10001410:	f64f 71fe 	movw	r1, #65534	@ 0xfffe
10001414:	428a      	cmp	r2, r1
10001416:	d91b      	bls.n	10001450 <uart_init+0xd8>
10001418:	4622      	mov	r2, r4
1000141a:	f64f 71ff 	movw	r1, #65535	@ 0xffff
1000141e:	4e15      	ldr	r6, [pc, #84]	@ (10001474 <uart_init+0xfc>)
10001420:	e7d7      	b.n	100013d2 <uart_init+0x5a>
10001422:	f240 3201 	movw	r2, #769	@ 0x301
10001426:	f505 5340 	add.w	r3, r5, #12288	@ 0x3000
1000142a:	631a      	str	r2, [r3, #48]	@ 0x30
1000142c:	6a6b      	ldr	r3, [r5, #36]	@ 0x24
1000142e:	6aac      	ldr	r4, [r5, #40]	@ 0x28
10001430:	2006      	movs	r0, #6
10001432:	eb04 1483 	add.w	r4, r4, r3, lsl #6
10001436:	f000 f889 	bl	1000154c <clock_get_hz>
1000143a:	4b0f      	ldr	r3, [pc, #60]	@ (10001478 <uart_init+0x100>)
1000143c:	02a4      	lsls	r4, r4, #10
1000143e:	fba3 2300 	umull	r2, r3, r3, r0
10001442:	0adb      	lsrs	r3, r3, #11
10001444:	2100      	movs	r1, #0
10001446:	fbb4 f0f3 	udiv	r0, r4, r3
1000144a:	f7ff ff63 	bl	10001314 <busy_wait_us>
1000144e:	e7c5      	b.n	100013dc <uart_init+0x64>
10001450:	f3c3 0345 	ubfx	r3, r3, #1, #6
10001454:	4611      	mov	r1, r2
10001456:	eb03 1682 	add.w	r6, r3, r2, lsl #6
1000145a:	461a      	mov	r2, r3
1000145c:	e7b9      	b.n	100013d2 <uart_init+0x5a>
1000145e:	bf00      	nop
10001460:	40078000 	.word	0x40078000
10001464:	40022000 	.word	0x40022000
10001468:	40023000 	.word	0x40023000
1000146c:	40020000 	.word	0x40020000
10001470:	200024a0 	.word	0x200024a0
10001474:	003fffc0 	.word	0x003fffc0
10001478:	8f2b7b75 	.word	0x8f2b7b75

1000147c <clock_configure_undivided>:
1000147c:	eb00 0c40 	add.w	ip, r0, r0, lsl #1
10001480:	ea4f 0c8c 	mov.w	ip, ip, lsl #2
10001484:	f10c 4c80 	add.w	ip, ip, #1073741824	@ 0x40000000
10001488:	f50c 3c80 	add.w	ip, ip, #65536	@ 0x10000
1000148c:	b5f0      	push	{r4, r5, r6, r7, lr}
1000148e:	4616      	mov	r6, r2
10001490:	f8dc 2004 	ldr.w	r2, [ip, #4]
10001494:	1f05      	subs	r5, r0, #4
10001496:	f5b2 3f80 	cmp.w	r2, #65536	@ 0x10000
1000149a:	bf38      	it	cc
1000149c:	f44f 3280 	movcc.w	r2, #65536	@ 0x10000
100014a0:	b2ed      	uxtb	r5, r5
100014a2:	bf38      	it	cc
100014a4:	f8cc 2004 	strcc.w	r2, [ip, #4]
100014a8:	2d01      	cmp	r5, #1
100014aa:	d92a      	bls.n	10001502 <clock_configure_undivided+0x86>
100014ac:	f44f 6700 	mov.w	r7, #2048	@ 0x800
100014b0:	4c25      	ldr	r4, [pc, #148]	@ (10001548 <clock_configure_undivided+0xcc>)
100014b2:	f50c 5240 	add.w	r2, ip, #12288	@ 0x3000
100014b6:	6017      	str	r7, [r2, #0]
100014b8:	f854 2020 	ldr.w	r2, [r4, r0, lsl #2]
100014bc:	b9b2      	cbnz	r2, 100014ec <clock_configure_undivided+0x70>
100014be:	f8dc 2000 	ldr.w	r2, [ip]
100014c2:	2d01      	cmp	r5, #1
100014c4:	ea82 1246 	eor.w	r2, r2, r6, lsl #5
100014c8:	f002 02e0 	and.w	r2, r2, #224	@ 0xe0
100014cc:	f50c 5680 	add.w	r6, ip, #4096	@ 0x1000
100014d0:	6032      	str	r2, [r6, #0]
100014d2:	d92a      	bls.n	1000152a <clock_configure_undivided+0xae>
100014d4:	f44f 6100 	mov.w	r1, #2048	@ 0x800
100014d8:	f844 3020 	str.w	r3, [r4, r0, lsl #2]
100014dc:	f44f 3380 	mov.w	r3, #65536	@ 0x10000
100014e0:	f50c 5200 	add.w	r2, ip, #8192	@ 0x2000
100014e4:	6011      	str	r1, [r2, #0]
100014e6:	f8cc 3004 	str.w	r3, [ip, #4]
100014ea:	bdf0      	pop	{r4, r5, r6, r7, pc}
100014ec:	6967      	ldr	r7, [r4, #20]
100014ee:	fbb7 fef2 	udiv	lr, r7, r2
100014f2:	f10e 0e01 	add.w	lr, lr, #1
100014f6:	eb0e 0e4e 	add.w	lr, lr, lr, lsl #1
100014fa:	f1be 0e03 	subs.w	lr, lr, #3
100014fe:	d2fc      	bcs.n	100014fa <clock_configure_undivided+0x7e>
10001500:	e7dd      	b.n	100014be <clock_configure_undivided+0x42>
10001502:	2901      	cmp	r1, #1
10001504:	d1d2      	bne.n	100014ac <clock_configure_undivided+0x30>
10001506:	2403      	movs	r4, #3
10001508:	f50c 5240 	add.w	r2, ip, #12288	@ 0x3000
1000150c:	6014      	str	r4, [r2, #0]
1000150e:	f8dc 2008 	ldr.w	r2, [ip, #8]
10001512:	07d2      	lsls	r2, r2, #31
10001514:	d5fb      	bpl.n	1000150e <clock_configure_undivided+0x92>
10001516:	f8dc 2000 	ldr.w	r2, [ip]
1000151a:	4c0b      	ldr	r4, [pc, #44]	@ (10001548 <clock_configure_undivided+0xcc>)
1000151c:	ea82 1246 	eor.w	r2, r2, r6, lsl #5
10001520:	f002 02e0 	and.w	r2, r2, #224	@ 0xe0
10001524:	f50c 5680 	add.w	r6, ip, #4096	@ 0x1000
10001528:	6032      	str	r2, [r6, #0]
1000152a:	2201      	movs	r2, #1
1000152c:	f8dc 5000 	ldr.w	r5, [ip]
10001530:	404d      	eors	r5, r1
10001532:	f005 0503 	and.w	r5, r5, #3
10001536:	6035      	str	r5, [r6, #0]
10001538:	fa02 f101 	lsl.w	r1, r2, r1
1000153c:	f8dc 2008 	ldr.w	r2, [ip, #8]
10001540:	420a      	tst	r2, r1
10001542:	d0fb      	beq.n	1000153c <clock_configure_undivided+0xc0>
10001544:	e7c6      	b.n	100014d4 <clock_configure_undivided+0x58>
10001546:	bf00      	nop
10001548:	20001ff8 	.word	0x20001ff8

1000154c <clock_get_hz>:
1000154c:	4b01      	ldr	r3, [pc, #4]	@ (10001554 <clock_get_hz+0x8>)
1000154e:	f853 0020 	ldr.w	r0, [r3, r0, lsl #2]
10001552:	4770      	bx	lr
10001554:	20001ff8 	.word	0x20001ff8

10001558 <pll_init>:
10001558:	b470      	push	{r4, r5, r6}
1000155a:	9d03      	ldr	r5, [sp, #12]
1000155c:	6804      	ldr	r4, [r0, #0]
1000155e:	032d      	lsls	r5, r5, #12
10001560:	ea45 4503 	orr.w	r5, r5, r3, lsl #16
10001564:	4b1b      	ldr	r3, [pc, #108]	@ (100015d4 <pll_init+0x7c>)
10001566:	2c00      	cmp	r4, #0
10001568:	fbb3 f3f1 	udiv	r3, r3, r1
1000156c:	fbb2 f6f3 	udiv	r6, r2, r3
10001570:	db1f      	blt.n	100015b2 <pll_init+0x5a>
10001572:	4a19      	ldr	r2, [pc, #100]	@ (100015d8 <pll_init+0x80>)
10001574:	4b19      	ldr	r3, [pc, #100]	@ (100015dc <pll_init+0x84>)
10001576:	4290      	cmp	r0, r2
10001578:	bf14      	ite	ne
1000157a:	f44f 4280 	movne.w	r2, #16384	@ 0x4000
1000157e:	f44f 4200 	moveq.w	r2, #32768	@ 0x8000
10001582:	4c17      	ldr	r4, [pc, #92]	@ (100015e0 <pll_init+0x88>)
10001584:	601a      	str	r2, [r3, #0]
10001586:	f503 5380 	add.w	r3, r3, #4096	@ 0x1000
1000158a:	601a      	str	r2, [r3, #0]
1000158c:	68a3      	ldr	r3, [r4, #8]
1000158e:	ea32 0303 	bics.w	r3, r2, r3
10001592:	d1fb      	bne.n	1000158c <pll_init+0x34>
10001594:	2221      	movs	r2, #33	@ 0x21
10001596:	f500 5340 	add.w	r3, r0, #12288	@ 0x3000
1000159a:	3304      	adds	r3, #4
1000159c:	6001      	str	r1, [r0, #0]
1000159e:	6086      	str	r6, [r0, #8]
100015a0:	601a      	str	r2, [r3, #0]
100015a2:	6802      	ldr	r2, [r0, #0]
100015a4:	2a00      	cmp	r2, #0
100015a6:	dafc      	bge.n	100015a2 <pll_init+0x4a>
100015a8:	2208      	movs	r2, #8
100015aa:	60c5      	str	r5, [r0, #12]
100015ac:	601a      	str	r2, [r3, #0]
100015ae:	bc70      	pop	{r4, r5, r6}
100015b0:	4770      	bx	lr
100015b2:	6803      	ldr	r3, [r0, #0]
100015b4:	f003 033f 	and.w	r3, r3, #63	@ 0x3f
100015b8:	428b      	cmp	r3, r1
100015ba:	d1da      	bne.n	10001572 <pll_init+0x1a>
100015bc:	6883      	ldr	r3, [r0, #8]
100015be:	f3c3 030b 	ubfx	r3, r3, #0, #12
100015c2:	42b3      	cmp	r3, r6
100015c4:	d1d5      	bne.n	10001572 <pll_init+0x1a>
100015c6:	68c3      	ldr	r3, [r0, #12]
100015c8:	f403 23ee 	and.w	r3, r3, #487424	@ 0x77000
100015cc:	42ab      	cmp	r3, r5
100015ce:	d1d0      	bne.n	10001572 <pll_init+0x1a>
100015d0:	e7ed      	b.n	100015ae <pll_init+0x56>
100015d2:	bf00      	nop
100015d4:	00b71b00 	.word	0x00b71b00
100015d8:	40058000 	.word	0x40058000
100015dc:	40022000 	.word	0x40022000
100015e0:	40020000 	.word	0x40020000

100015e4 <watchdog_reboot>:
100015e4:	b430      	push	{r4, r5}
100015e6:	f04f 4480 	mov.w	r4, #1073741824	@ 0x40000000
100015ea:	4b1c      	ldr	r3, [pc, #112]	@ (1000165c <watchdog_reboot+0x78>)
100015ec:	601c      	str	r4, [r3, #0]
100015ee:	b1e0      	cbz	r0, 1000162a <watchdog_reboot+0x46>
100015f0:	4c1b      	ldr	r4, [pc, #108]	@ (10001660 <watchdog_reboot+0x7c>)
100015f2:	f5a3 5340 	sub.w	r3, r3, #12288	@ 0x3000
100015f6:	61dc      	str	r4, [r3, #28]
100015f8:	4c1a      	ldr	r4, [pc, #104]	@ (10001664 <watchdog_reboot+0x80>)
100015fa:	f040 0001 	orr.w	r0, r0, #1
100015fe:	4044      	eors	r4, r0
10001600:	621c      	str	r4, [r3, #32]
10001602:	6259      	str	r1, [r3, #36]	@ 0x24
10001604:	6298      	str	r0, [r3, #40]	@ 0x28
10001606:	f04f 4580 	mov.w	r5, #1073741824	@ 0x40000000
1000160a:	f04f 61e0 	mov.w	r1, #117440512	@ 0x7000000
1000160e:	4b13      	ldr	r3, [pc, #76]	@ (1000165c <watchdog_reboot+0x78>)
10001610:	4815      	ldr	r0, [pc, #84]	@ (10001668 <watchdog_reboot+0x84>)
10001612:	4c16      	ldr	r4, [pc, #88]	@ (1000166c <watchdog_reboot+0x88>)
10001614:	601d      	str	r5, [r3, #0]
10001616:	6084      	str	r4, [r0, #8]
10001618:	6019      	str	r1, [r3, #0]
1000161a:	b94a      	cbnz	r2, 10001630 <watchdog_reboot+0x4c>
1000161c:	bc30      	pop	{r4, r5}
1000161e:	f04f 4200 	mov.w	r2, #2147483648	@ 0x80000000
10001622:	f5a3 5380 	sub.w	r3, r3, #4096	@ 0x1000
10001626:	601a      	str	r2, [r3, #0]
10001628:	4770      	bx	lr
1000162a:	4b11      	ldr	r3, [pc, #68]	@ (10001670 <watchdog_reboot+0x8c>)
1000162c:	61d8      	str	r0, [r3, #28]
1000162e:	e7ea      	b.n	10001606 <watchdog_reboot+0x22>
10001630:	f44f 737a 	mov.w	r3, #1000	@ 0x3e8
10001634:	fb03 f202 	mul.w	r2, r3, r2
10001638:	f1b2 7f80 	cmp.w	r2, #16777216	@ 0x1000000
1000163c:	bf2a      	itet	cs
1000163e:	f06f 437f 	mvncs.w	r3, #4278190080	@ 0xff000000
10001642:	4613      	movcc	r3, r2
10001644:	461a      	movcs	r2, r3
10001646:	f04f 4180 	mov.w	r1, #1073741824	@ 0x40000000
1000164a:	4c0a      	ldr	r4, [pc, #40]	@ (10001674 <watchdog_reboot+0x90>)
1000164c:	4808      	ldr	r0, [pc, #32]	@ (10001670 <watchdog_reboot+0x8c>)
1000164e:	6023      	str	r3, [r4, #0]
10001650:	4b09      	ldr	r3, [pc, #36]	@ (10001678 <watchdog_reboot+0x94>)
10001652:	6042      	str	r2, [r0, #4]
10001654:	bc30      	pop	{r4, r5}
10001656:	6019      	str	r1, [r3, #0]
10001658:	4770      	bx	lr
1000165a:	bf00      	nop
1000165c:	400db000 	.word	0x400db000
10001660:	b007c0d3 	.word	0xb007c0d3
10001664:	4ff83f2d 	.word	0x4ff83f2d
10001668:	4001a000 	.word	0x4001a000
1000166c:	01fffff3 	.word	0x01fffff3
10001670:	400d8000 	.word	0x400d8000
10001674:	2000245c 	.word	0x2000245c
10001678:	400da000 	.word	0x400da000

1000167c <tick_start>:
1000167c:	2301      	movs	r3, #1
1000167e:	eb00 0040 	add.w	r0, r0, r0, lsl #1
10001682:	0080      	lsls	r0, r0, #2
10001684:	f100 4080 	add.w	r0, r0, #1073741824	@ 0x40000000
10001688:	f500 1084 	add.w	r0, r0, #1081344	@ 0x108000
1000168c:	6041      	str	r1, [r0, #4]
1000168e:	6003      	str	r3, [r0, #0]
10001690:	4770      	bx	lr
10001692:	bf00      	nop

10001694 <rom_reboot.constprop.0.isra.0>:
10001694:	2300      	movs	r3, #0
10001696:	b570      	push	{r4, r5, r6, lr}
10001698:	8adb      	ldrh	r3, [r3, #22]
1000169a:	4604      	mov	r4, r0
1000169c:	460d      	mov	r5, r1
1000169e:	2200      	movs	r2, #0
100016a0:	e842 f200 	tt	r2, r2
100016a4:	0252      	lsls	r2, r2, #9
100016a6:	bf54      	ite	pl
100016a8:	2110      	movpl	r1, #16
100016aa:	2104      	movmi	r1, #4
100016ac:	f244 2052 	movw	r0, #16978	@ 0x4252
100016b0:	4798      	blx	r3
100016b2:	4686      	mov	lr, r0
100016b4:	462b      	mov	r3, r5
100016b6:	4622      	mov	r2, r4
100016b8:	46f4      	mov	ip, lr
100016ba:	e8bd 4070 	ldmia.w	sp!, {r4, r5, r6, lr}
100016be:	210a      	movs	r1, #10
100016c0:	f44f 7081 	mov.w	r0, #258	@ 0x102
100016c4:	4760      	bx	ip
100016c6:	bf00      	nop

100016c8 <rom_func_lookup>:
100016c8:	2300      	movs	r3, #0
100016ca:	8adb      	ldrh	r3, [r3, #22]
100016cc:	2200      	movs	r2, #0
100016ce:	e842 f200 	tt	r2, r2
100016d2:	0252      	lsls	r2, r2, #9
100016d4:	d401      	bmi.n	100016da <rom_func_lookup+0x12>
100016d6:	2110      	movs	r1, #16
100016d8:	4718      	bx	r3
100016da:	2104      	movs	r1, #4
100016dc:	4718      	bx	r3
100016de:	bf00      	nop

100016e0 <rom_reset_usb_boot_extra>:
100016e0:	b508      	push	{r3, lr}
100016e2:	4603      	mov	r3, r0
100016e4:	4608      	mov	r0, r1
100016e6:	1e19      	subs	r1, r3, #0
100016e8:	db02      	blt.n	100016f0 <rom_reset_usb_boot_extra+0x10>
100016ea:	b11a      	cbz	r2, 100016f4 <rom_reset_usb_boot_extra+0x14>
100016ec:	f040 0030 	orr.w	r0, r0, #48	@ 0x30
100016f0:	f7ff ffd0 	bl	10001694 <rom_reboot.constprop.0.isra.0>
100016f4:	f040 0020 	orr.w	r0, r0, #32
100016f8:	e7fa      	b.n	100016f0 <rom_reset_usb_boot_extra+0x10>
100016fa:	bf00      	nop

100016fc <runtime_init_bootrom_locking_enable>:
100016fc:	4a03      	ldr	r2, [pc, #12]	@ (1000170c <runtime_init_bootrom_locking_enable+0x10>)
100016fe:	f8d2 3828 	ldr.w	r3, [r2, #2088]	@ 0x828
10001702:	2b00      	cmp	r3, #0
10001704:	d0fb      	beq.n	100016fe <runtime_init_bootrom_locking_enable+0x2>
10001706:	f3bf 8f5f 	dmb	sy
1000170a:	4770      	bx	lr
1000170c:	400e0000 	.word	0x400e0000

10001710 <runtime_init_boot_locks_reset>:
10001710:	2100      	movs	r1, #0
10001712:	4b04      	ldr	r3, [pc, #16]	@ (10001724 <runtime_init_boot_locks_reset+0x14>)
10001714:	4a04      	ldr	r2, [pc, #16]	@ (10001728 <runtime_init_boot_locks_reset+0x18>)
10001716:	f3bf 8f5f 	dmb	sy
1000171a:	f843 1b04 	str.w	r1, [r3], #4
1000171e:	4293      	cmp	r3, r2
10001720:	d1f9      	bne.n	10001716 <runtime_init_boot_locks_reset+0x6>
10001722:	4770      	bx	lr
10001724:	400e080c 	.word	0x400e080c
10001728:	400e082c 	.word	0x400e082c

1000172c <xosc_init>:
1000172c:	b410      	push	{r4}
1000172e:	f44f 708d 	mov.w	r0, #282	@ 0x11a
10001732:	f44f 642a 	mov.w	r4, #2720	@ 0xaa0
10001736:	4a06      	ldr	r2, [pc, #24]	@ (10001750 <xosc_init+0x24>)
10001738:	4b06      	ldr	r3, [pc, #24]	@ (10001754 <xosc_init+0x28>)
1000173a:	4907      	ldr	r1, [pc, #28]	@ (10001758 <xosc_init+0x2c>)
1000173c:	6014      	str	r4, [r2, #0]
1000173e:	60d0      	str	r0, [r2, #12]
10001740:	6019      	str	r1, [r3, #0]
10001742:	6853      	ldr	r3, [r2, #4]
10001744:	2b00      	cmp	r3, #0
10001746:	dafc      	bge.n	10001742 <xosc_init+0x16>
10001748:	f85d 4b04 	ldr.w	r4, [sp], #4
1000174c:	4770      	bx	lr
1000174e:	bf00      	nop
10001750:	40048000 	.word	0x40048000
10001754:	4004a000 	.word	0x4004a000
10001758:	00fab000 	.word	0x00fab000

1000175c <first_per_core_initializer>:
1000175c:	4770      	bx	lr
1000175e:	bf00      	nop

10001760 <hard_assertion_failure>:
10001760:	b508      	push	{r3, lr}
10001762:	4801      	ldr	r0, [pc, #4]	@ (10001768 <hard_assertion_failure+0x8>)
10001764:	f7fe fe1c 	bl	100003a0 <panic>
10001768:	10008220 	.word	0x10008220

1000176c <runtime_run_initializers>:
1000176c:	b538      	push	{r3, r4, r5, lr}
1000176e:	4c05      	ldr	r4, [pc, #20]	@ (10001784 <runtime_run_initializers+0x18>)
10001770:	4d05      	ldr	r5, [pc, #20]	@ (10001788 <runtime_run_initializers+0x1c>)
10001772:	42ac      	cmp	r4, r5
10001774:	d204      	bcs.n	10001780 <runtime_run_initializers+0x14>
10001776:	f854 3b04 	ldr.w	r3, [r4], #4
1000177a:	4798      	blx	r3
1000177c:	42ac      	cmp	r4, r5
1000177e:	d3fa      	bcc.n	10001776 <runtime_run_initializers+0xa>
10001780:	bd38      	pop	{r3, r4, r5, pc}
10001782:	bf00      	nop
10001784:	10008120 	.word	0x10008120
10001788:	10008160 	.word	0x10008160

1000178c <runtime_init_early_resets>:
1000178c:	b410      	push	{r4}
1000178e:	4807      	ldr	r0, [pc, #28]	@ (100017ac <runtime_init_early_resets+0x20>)
10001790:	4c07      	ldr	r4, [pc, #28]	@ (100017b0 <runtime_init_early_resets+0x24>)
10001792:	4b08      	ldr	r3, [pc, #32]	@ (100017b4 <runtime_init_early_resets+0x28>)
10001794:	4a08      	ldr	r2, [pc, #32]	@ (100017b8 <runtime_init_early_resets+0x2c>)
10001796:	4909      	ldr	r1, [pc, #36]	@ (100017bc <runtime_init_early_resets+0x30>)
10001798:	6004      	str	r4, [r0, #0]
1000179a:	601a      	str	r2, [r3, #0]
1000179c:	688b      	ldr	r3, [r1, #8]
1000179e:	ea32 0303 	bics.w	r3, r2, r3
100017a2:	d1fb      	bne.n	1000179c <runtime_init_early_resets+0x10>
100017a4:	f85d 4b04 	ldr.w	r4, [sp], #4
100017a8:	4770      	bx	lr
100017aa:	bf00      	nop
100017ac:	40022000 	.word	0x40022000
100017b0:	efef3b7f 	.word	0xefef3b7f
100017b4:	40023000 	.word	0x40023000
100017b8:	03f3fff6 	.word	0x03f3fff6
100017bc:	40020000 	.word	0x40020000

100017c0 <runtime_init_usb_power_down>:
100017c0:	4b04      	ldr	r3, [pc, #16]	@ (100017d4 <runtime_init_usb_power_down+0x14>)
100017c2:	6cdb      	ldr	r3, [r3, #76]	@ 0x4c
100017c4:	f5b3 4f00 	cmp.w	r3, #32768	@ 0x8000
100017c8:	d103      	bne.n	100017d2 <runtime_init_usb_power_down+0x12>
100017ca:	f44f 2280 	mov.w	r2, #262144	@ 0x40000
100017ce:	4b02      	ldr	r3, [pc, #8]	@ (100017d8 <runtime_init_usb_power_down+0x18>)
100017d0:	64da      	str	r2, [r3, #76]	@ 0x4c
100017d2:	4770      	bx	lr
100017d4:	50110000 	.word	0x50110000
100017d8:	50112000 	.word	0x50112000

100017dc <runtime_init_per_core_enable_coprocessors>:
100017dc:	f04f 22e0 	mov.w	r2, #3758153728	@ 0xe000e000
100017e0:	4b04      	ldr	r3, [pc, #16]	@ (100017f4 <runtime_init_per_core_enable_coprocessors+0x18>)
100017e2:	f8d2 1d88 	ldr.w	r1, [r2, #3464]	@ 0xd88
100017e6:	430b      	orrs	r3, r1
100017e8:	f8c2 3d88 	str.w	r3, [r2, #3464]	@ 0xd88
100017ec:	ee10 0430 	dcp_rcmp r0
100017f0:	4770      	bx	lr
100017f2:	bf00      	nop
100017f4:	00300303 	.word	0x00300303

100017f8 <runtime_init_post_clock_resets>:
100017f8:	f06f 4160 	mvn.w	r1, #3758096384	@ 0xe0000000
100017fc:	4b04      	ldr	r3, [pc, #16]	@ (10001810 <runtime_init_post_clock_resets+0x18>)
100017fe:	4a05      	ldr	r2, [pc, #20]	@ (10001814 <runtime_init_post_clock_resets+0x1c>)
10001800:	6019      	str	r1, [r3, #0]
10001802:	6893      	ldr	r3, [r2, #8]
10001804:	43db      	mvns	r3, r3
10001806:	f033 4360 	bics.w	r3, r3, #3758096384	@ 0xe0000000
1000180a:	d1fa      	bne.n	10001802 <runtime_init_post_clock_resets+0xa>
1000180c:	4770      	bx	lr
1000180e:	bf00      	nop
10001810:	40023000 	.word	0x40023000
10001814:	40020000 	.word	0x40020000

10001818 <runtime_init_bootrom_reset>:
10001818:	b510      	push	{r4, lr}
1000181a:	f245 2053 	movw	r0, #21075	@ 0x5253
1000181e:	f7ff ff53 	bl	100016c8 <rom_func_lookup>
10001822:	e8bd 4010 	ldmia.w	sp!, {r4, lr}
10001826:	4603      	mov	r3, r0
10001828:	2004      	movs	r0, #4
1000182a:	4718      	bx	r3

1000182c <runtime_init_per_core_bootrom_reset>:
1000182c:	b510      	push	{r4, lr}
1000182e:	f245 2053 	movw	r0, #21075	@ 0x5253
10001832:	f7ff ff49 	bl	100016c8 <rom_func_lookup>
10001836:	e8bd 4010 	ldmia.w	sp!, {r4, lr}
1000183a:	4603      	mov	r3, r0
1000183c:	2001      	movs	r0, #1
1000183e:	4718      	bx	r3

10001840 <runtime_init_spin_locks_reset>:
10001840:	f7fe be64 	b.w	1000050c <spin_locks_reset>

10001844 <runtime_init_install_ram_vector_table>:
10001844:	b510      	push	{r4, lr}
10001846:	4b05      	ldr	r3, [pc, #20]	@ (1000185c <runtime_init_install_ram_vector_table+0x18>)
10001848:	4c05      	ldr	r4, [pc, #20]	@ (10001860 <runtime_init_install_ram_vector_table+0x1c>)
1000184a:	f44f 7288 	mov.w	r2, #272	@ 0x110
1000184e:	4618      	mov	r0, r3
10001850:	68a1      	ldr	r1, [r4, #8]
10001852:	f006 fb21 	bl	10007e98 <memcpy>
10001856:	60a0      	str	r0, [r4, #8]
10001858:	bd10      	pop	{r4, pc}
1000185a:	bf00      	nop
1000185c:	20000000 	.word	0x20000000
10001860:	e000ed00 	.word	0xe000ed00

10001864 <runtime_init_clocks>:
10001864:	2300      	movs	r3, #0
10001866:	b570      	push	{r4, r5, r6, lr}
10001868:	4c2b      	ldr	r4, [pc, #172]	@ (10001918 <runtime_init_clocks+0xb4>)
1000186a:	b082      	sub	sp, #8
1000186c:	f8c4 3084 	str.w	r3, [r4, #132]	@ 0x84
10001870:	f7ff ff5c 	bl	1000172c <xosc_init>
10001874:	2201      	movs	r2, #1
10001876:	4b29      	ldr	r3, [pc, #164]	@ (1000191c <runtime_init_clocks+0xb8>)
10001878:	63da      	str	r2, [r3, #60]	@ 0x3c
1000187a:	6c63      	ldr	r3, [r4, #68]	@ 0x44
1000187c:	2b01      	cmp	r3, #1
1000187e:	d1fc      	bne.n	1000187a <runtime_init_clocks+0x16>
10001880:	2103      	movs	r1, #3
10001882:	4a26      	ldr	r2, [pc, #152]	@ (1000191c <runtime_init_clocks+0xb8>)
10001884:	4b24      	ldr	r3, [pc, #144]	@ (10001918 <runtime_init_clocks+0xb4>)
10001886:	6311      	str	r1, [r2, #48]	@ 0x30
10001888:	6b9c      	ldr	r4, [r3, #56]	@ 0x38
1000188a:	2c01      	cmp	r4, #1
1000188c:	d1fc      	bne.n	10001888 <runtime_init_clocks+0x24>
1000188e:	2602      	movs	r6, #2
10001890:	2505      	movs	r5, #5
10001892:	4621      	mov	r1, r4
10001894:	2305      	movs	r3, #5
10001896:	4a22      	ldr	r2, [pc, #136]	@ (10001920 <runtime_init_clocks+0xbc>)
10001898:	4822      	ldr	r0, [pc, #136]	@ (10001924 <runtime_init_clocks+0xc0>)
1000189a:	9600      	str	r6, [sp, #0]
1000189c:	f7ff fe5c 	bl	10001558 <pll_init>
100018a0:	4621      	mov	r1, r4
100018a2:	462b      	mov	r3, r5
100018a4:	4a20      	ldr	r2, [pc, #128]	@ (10001928 <runtime_init_clocks+0xc4>)
100018a6:	4821      	ldr	r0, [pc, #132]	@ (1000192c <runtime_init_clocks+0xc8>)
100018a8:	9500      	str	r5, [sp, #0]
100018aa:	f7ff fe55 	bl	10001558 <pll_init>
100018ae:	2200      	movs	r2, #0
100018b0:	2004      	movs	r0, #4
100018b2:	4631      	mov	r1, r6
100018b4:	4b1e      	ldr	r3, [pc, #120]	@ (10001930 <runtime_init_clocks+0xcc>)
100018b6:	f7ff fde1 	bl	1000147c <clock_configure_undivided>
100018ba:	4621      	mov	r1, r4
100018bc:	4628      	mov	r0, r5
100018be:	2200      	movs	r2, #0
100018c0:	4b1c      	ldr	r3, [pc, #112]	@ (10001934 <runtime_init_clocks+0xd0>)
100018c2:	f7ff fddb 	bl	1000147c <clock_configure_undivided>
100018c6:	2200      	movs	r2, #0
100018c8:	2008      	movs	r0, #8
100018ca:	4611      	mov	r1, r2
100018cc:	4b1a      	ldr	r3, [pc, #104]	@ (10001938 <runtime_init_clocks+0xd4>)
100018ce:	f7ff fdd5 	bl	1000147c <clock_configure_undivided>
100018d2:	2200      	movs	r2, #0
100018d4:	2009      	movs	r0, #9
100018d6:	4611      	mov	r1, r2
100018d8:	4b17      	ldr	r3, [pc, #92]	@ (10001938 <runtime_init_clocks+0xd4>)
100018da:	f7ff fdcf 	bl	1000147c <clock_configure_undivided>
100018de:	2200      	movs	r2, #0
100018e0:	2006      	movs	r0, #6
100018e2:	4611      	mov	r1, r2
100018e4:	4b13      	ldr	r3, [pc, #76]	@ (10001934 <runtime_init_clocks+0xd0>)
100018e6:	f7ff fdc9 	bl	1000147c <clock_configure_undivided>
100018ea:	2200      	movs	r2, #0
100018ec:	4b11      	ldr	r3, [pc, #68]	@ (10001934 <runtime_init_clocks+0xd0>)
100018ee:	2007      	movs	r0, #7
100018f0:	4611      	mov	r1, r2
100018f2:	f7ff fdc3 	bl	1000147c <clock_configure_undivided>
100018f6:	2004      	movs	r0, #4
100018f8:	f7ff fe28 	bl	1000154c <clock_get_hz>
100018fc:	2400      	movs	r4, #0
100018fe:	4b0f      	ldr	r3, [pc, #60]	@ (1000193c <runtime_init_clocks+0xd8>)
10001900:	fba3 3500 	umull	r3, r5, r3, r0
10001904:	0cad      	lsrs	r5, r5, #18
10001906:	b2e0      	uxtb	r0, r4
10001908:	4629      	mov	r1, r5
1000190a:	3401      	adds	r4, #1
1000190c:	f7ff feb6 	bl	1000167c <tick_start>
10001910:	2c06      	cmp	r4, #6
10001912:	d1f8      	bne.n	10001906 <runtime_init_clocks+0xa2>
10001914:	b002      	add	sp, #8
10001916:	bd70      	pop	{r4, r5, r6, pc}
10001918:	40010000 	.word	0x40010000
1000191c:	40013000 	.word	0x40013000
10001920:	59682f00 	.word	0x59682f00
10001924:	40050000 	.word	0x40050000
10001928:	47868c00 	.word	0x47868c00
1000192c:	40058000 	.word	0x40058000
10001930:	00b71b00 	.word	0x00b71b00
10001934:	08f0d180 	.word	0x08f0d180
10001938:	02dc6c00 	.word	0x02dc6c00
1000193c:	431bde83 	.word	0x431bde83

10001940 <__wrap_malloc>:
10001940:	b510      	push	{r4, lr}
10001942:	4604      	mov	r4, r0
10001944:	f006 fa98 	bl	10007e78 <malloc>
10001948:	b128      	cbz	r0, 10001956 <__wrap_malloc+0x16>
1000194a:	4603      	mov	r3, r0
1000194c:	4a03      	ldr	r2, [pc, #12]	@ (1000195c <__wrap_malloc+0x1c>)
1000194e:	4423      	add	r3, r4
10001950:	4293      	cmp	r3, r2
10001952:	d800      	bhi.n	10001956 <__wrap_malloc+0x16>
10001954:	bd10      	pop	{r4, pc}
10001956:	4802      	ldr	r0, [pc, #8]	@ (10001960 <__wrap_malloc+0x20>)
10001958:	f7fe fd22 	bl	100003a0 <panic>
1000195c:	20080000 	.word	0x20080000
10001960:	1000822c 	.word	0x1000822c

10001964 <__wrap_free>:
10001964:	f006 ba90 	b.w	10007e88 <free>

10001968 <_out_char>:
10001968:	b900      	cbnz	r0, 1000196c <_out_char+0x4>
1000196a:	4770      	bx	lr
1000196c:	f000 b938 	b.w	10001be0 <__wrap_putchar>

10001970 <weak_raw_vprintf>:
10001970:	b510      	push	{r4, lr}
10001972:	4b09      	ldr	r3, [pc, #36]	@ (10001998 <weak_raw_vprintf+0x28>)
10001974:	b084      	sub	sp, #16
10001976:	681c      	ldr	r4, [r3, #0]
10001978:	b14c      	cbz	r4, 1000198e <weak_raw_vprintf+0x1e>
1000197a:	4603      	mov	r3, r0
1000197c:	9100      	str	r1, [sp, #0]
1000197e:	f04f 32ff 	mov.w	r2, #4294967295	@ 0xffffffff
10001982:	a903      	add	r1, sp, #12
10001984:	4805      	ldr	r0, [pc, #20]	@ (1000199c <weak_raw_vprintf+0x2c>)
10001986:	47a0      	blx	r4
10001988:	2001      	movs	r0, #1
1000198a:	b004      	add	sp, #16
1000198c:	bd10      	pop	{r4, pc}
1000198e:	f000 f969 	bl	10001c64 <__wrap_puts>
10001992:	4620      	mov	r0, r4
10001994:	b004      	add	sp, #16
10001996:	bd10      	pop	{r4, pc}
10001998:	20002458 	.word	0x20002458
1000199c:	10001969 	.word	0x10001969

100019a0 <_exit>:
100019a0:	be00      	bkpt	0x0000
100019a2:	e7fd      	b.n	100019a0 <_exit>

100019a4 <_sbrk>:
100019a4:	4a07      	ldr	r2, [pc, #28]	@ (100019c4 <_sbrk+0x20>)
100019a6:	4603      	mov	r3, r0
100019a8:	6810      	ldr	r0, [r2, #0]
100019aa:	b138      	cbz	r0, 100019bc <_sbrk+0x18>
100019ac:	4906      	ldr	r1, [pc, #24]	@ (100019c8 <_sbrk+0x24>)
100019ae:	4403      	add	r3, r0
100019b0:	428b      	cmp	r3, r1
100019b2:	bf8c      	ite	hi
100019b4:	f04f 30ff 	movhi.w	r0, #4294967295	@ 0xffffffff
100019b8:	6013      	strls	r3, [r2, #0]
100019ba:	4770      	bx	lr
100019bc:	4903      	ldr	r1, [pc, #12]	@ (100019cc <_sbrk+0x28>)
100019be:	4608      	mov	r0, r1
100019c0:	6011      	str	r1, [r2, #0]
100019c2:	e7f3      	b.n	100019ac <_sbrk+0x8>
100019c4:	20002054 	.word	0x20002054
100019c8:	20080000 	.word	0x20080000
100019cc:	200024c4 	.word	0x200024c4

100019d0 <exit>:
100019d0:	b508      	push	{r3, lr}
100019d2:	f7ff ffe5 	bl	100019a0 <_exit>
100019d6:	bf00      	nop

100019d8 <runtime_init>:
100019d8:	b538      	push	{r3, r4, r5, lr}
100019da:	4c06      	ldr	r4, [pc, #24]	@ (100019f4 <runtime_init+0x1c>)
100019dc:	4d06      	ldr	r5, [pc, #24]	@ (100019f8 <runtime_init+0x20>)
100019de:	f7ff fec5 	bl	1000176c <runtime_run_initializers>
100019e2:	42ac      	cmp	r4, r5
100019e4:	d204      	bcs.n	100019f0 <runtime_init+0x18>
100019e6:	f854 3b04 	ldr.w	r3, [r4], #4
100019ea:	4798      	blx	r3
100019ec:	42ac      	cmp	r4, r5
100019ee:	d3fa      	bcc.n	100019e6 <runtime_init+0xe>
100019f0:	bd38      	pop	{r3, r4, r5, pc}
100019f2:	bf00      	nop
100019f4:	10008160 	.word	0x10008160
100019f8:	1000816c 	.word	0x1000816c

100019fc <stdio_out_chars_no_crlf>:
100019fc:	6803      	ldr	r3, [r0, #0]
100019fe:	4608      	mov	r0, r1
10001a00:	4611      	mov	r1, r2
10001a02:	4718      	bx	r3

10001a04 <stdio_out_chars_crlf>:
10001a04:	7d43      	ldrb	r3, [r0, #21]
10001a06:	e92d 47f0 	stmdb	sp!, {r4, r5, r6, r7, r8, r9, sl, lr}
10001a0a:	4681      	mov	r9, r0
10001a0c:	460f      	mov	r7, r1
10001a0e:	4616      	mov	r6, r2
10001a10:	2b00      	cmp	r3, #0
10001a12:	d043      	beq.n	10001a9c <stdio_out_chars_crlf+0x98>
10001a14:	2a00      	cmp	r2, #0
10001a16:	dd3b      	ble.n	10001a90 <stdio_out_chars_crlf+0x8c>
10001a18:	7d03      	ldrb	r3, [r0, #20]
10001a1a:	2000      	movs	r0, #0
10001a1c:	1e4d      	subs	r5, r1, #1
10001a1e:	4601      	mov	r1, r0
10001a20:	f815 2f01 	ldrb.w	r2, [r5, #1]!
10001a24:	f8df 8084 	ldr.w	r8, [pc, #132]	@ 10001aac <stdio_out_chars_crlf+0xa8>
10001a28:	2a0a      	cmp	r2, #10
10001a2a:	f101 0401 	add.w	r4, r1, #1
10001a2e:	d00e      	beq.n	10001a4e <stdio_out_chars_crlf+0x4a>
10001a30:	42a6      	cmp	r6, r4
10001a32:	d01c      	beq.n	10001a6e <stdio_out_chars_crlf+0x6a>
10001a34:	782b      	ldrb	r3, [r5, #0]
10001a36:	4621      	mov	r1, r4
10001a38:	f1a3 030d 	sub.w	r3, r3, #13
10001a3c:	fab3 f383 	clz	r3, r3
10001a40:	f815 2f01 	ldrb.w	r2, [r5, #1]!
10001a44:	095b      	lsrs	r3, r3, #5
10001a46:	2a0a      	cmp	r2, #10
10001a48:	f101 0401 	add.w	r4, r1, #1
10001a4c:	d1f0      	bne.n	10001a30 <stdio_out_chars_crlf+0x2c>
10001a4e:	2b00      	cmp	r3, #0
10001a50:	d1ee      	bne.n	10001a30 <stdio_out_chars_crlf+0x2c>
10001a52:	4281      	cmp	r1, r0
10001a54:	eba1 0100 	sub.w	r1, r1, r0
10001a58:	4438      	add	r0, r7
10001a5a:	dc1b      	bgt.n	10001a94 <stdio_out_chars_crlf+0x90>
10001a5c:	2102      	movs	r1, #2
10001a5e:	4640      	mov	r0, r8
10001a60:	f8d9 3000 	ldr.w	r3, [r9]
10001a64:	4798      	blx	r3
10001a66:	42a6      	cmp	r6, r4
10001a68:	d008      	beq.n	10001a7c <stdio_out_chars_crlf+0x78>
10001a6a:	4620      	mov	r0, r4
10001a6c:	e7e2      	b.n	10001a34 <stdio_out_chars_crlf+0x30>
10001a6e:	4286      	cmp	r6, r0
10001a70:	dd04      	ble.n	10001a7c <stdio_out_chars_crlf+0x78>
10001a72:	1a31      	subs	r1, r6, r0
10001a74:	f8d9 3000 	ldr.w	r3, [r9]
10001a78:	4438      	add	r0, r7
10001a7a:	4798      	blx	r3
10001a7c:	4437      	add	r7, r6
10001a7e:	f817 3c01 	ldrb.w	r3, [r7, #-1]
10001a82:	f1a3 030d 	sub.w	r3, r3, #13
10001a86:	fab3 f383 	clz	r3, r3
10001a8a:	095b      	lsrs	r3, r3, #5
10001a8c:	f889 3014 	strb.w	r3, [r9, #20]
10001a90:	e8bd 87f0 	ldmia.w	sp!, {r4, r5, r6, r7, r8, r9, sl, pc}
10001a94:	f8d9 3000 	ldr.w	r3, [r9]
10001a98:	4798      	blx	r3
10001a9a:	e7df      	b.n	10001a5c <stdio_out_chars_crlf+0x58>
10001a9c:	4638      	mov	r0, r7
10001a9e:	f8d9 3000 	ldr.w	r3, [r9]
10001aa2:	4611      	mov	r1, r2
10001aa4:	e8bd 47f0 	ldmia.w	sp!, {r4, r5, r6, r7, r8, r9, sl, lr}
10001aa8:	4718      	bx	r3
10001aaa:	bf00      	nop
10001aac:	100083a4 	.word	0x100083a4

10001ab0 <stdio_put_string>:
10001ab0:	e92d 47f0 	stmdb	sp!, {r4, r5, r6, r7, r8, r9, sl, lr}
10001ab4:	b082      	sub	sp, #8
10001ab6:	460d      	mov	r5, r1
10001ab8:	4692      	mov	sl, r2
10001aba:	4699      	mov	r9, r3
10001abc:	4607      	mov	r7, r0
10001abe:	f7ff fc1f 	bl	10001300 <time_us_64>
10001ac2:	f04f 36ff 	mov.w	r6, #4294967295	@ 0xffffffff
10001ac6:	f06f 4400 	mvn.w	r4, #2147483648	@ 0x80000000
10001aca:	4a2f      	ldr	r2, [pc, #188]	@ (10001b88 <stdio_put_string+0xd8>)
10001acc:	1882      	adds	r2, r0, r2
10001ace:	f141 0300 	adc.w	r3, r1, #0
10001ad2:	4296      	cmp	r6, r2
10001ad4:	eb74 0103 	sbcs.w	r1, r4, r3
10001ad8:	bf3c      	itt	cc
10001ada:	4632      	movcc	r2, r6
10001adc:	4623      	movcc	r3, r4
10001ade:	482b      	ldr	r0, [pc, #172]	@ (10001b8c <stdio_put_string+0xdc>)
10001ae0:	f006 fb0e 	bl	10008100 <__mutex_try_enter_block_until_veneer>
10001ae4:	1c6b      	adds	r3, r5, #1
10001ae6:	4680      	mov	r8, r0
10001ae8:	d103      	bne.n	10001af2 <stdio_put_string+0x42>
10001aea:	4638      	mov	r0, r7
10001aec:	f006 fa62 	bl	10007fb4 <strlen>
10001af0:	4605      	mov	r5, r0
10001af2:	4b27      	ldr	r3, [pc, #156]	@ (10001b90 <stdio_put_string+0xe0>)
10001af4:	4e27      	ldr	r6, [pc, #156]	@ (10001b94 <stdio_put_string+0xe4>)
10001af6:	681c      	ldr	r4, [r3, #0]
10001af8:	4b27      	ldr	r3, [pc, #156]	@ (10001b98 <stdio_put_string+0xe8>)
10001afa:	f1b9 0f00 	cmp.w	r9, #0
10001afe:	bf18      	it	ne
10001b00:	461e      	movne	r6, r3
10001b02:	b1b4      	cbz	r4, 10001b32 <stdio_put_string+0x82>
10001b04:	f1ba 0f00 	cmp.w	sl, #0
10001b08:	d11a      	bne.n	10001b40 <stdio_put_string+0x90>
10001b0a:	f8df 9090 	ldr.w	r9, [pc, #144]	@ 10001b9c <stdio_put_string+0xec>
10001b0e:	e001      	b.n	10001b14 <stdio_put_string+0x64>
10001b10:	6924      	ldr	r4, [r4, #16]
10001b12:	b174      	cbz	r4, 10001b32 <stdio_put_string+0x82>
10001b14:	6823      	ldr	r3, [r4, #0]
10001b16:	2b00      	cmp	r3, #0
10001b18:	d0fa      	beq.n	10001b10 <stdio_put_string+0x60>
10001b1a:	f8d9 3000 	ldr.w	r3, [r9]
10001b1e:	b10b      	cbz	r3, 10001b24 <stdio_put_string+0x74>
10001b20:	429c      	cmp	r4, r3
10001b22:	d1f5      	bne.n	10001b10 <stdio_put_string+0x60>
10001b24:	4620      	mov	r0, r4
10001b26:	462a      	mov	r2, r5
10001b28:	4639      	mov	r1, r7
10001b2a:	47b0      	blx	r6
10001b2c:	6924      	ldr	r4, [r4, #16]
10001b2e:	2c00      	cmp	r4, #0
10001b30:	d1f0      	bne.n	10001b14 <stdio_put_string+0x64>
10001b32:	f1b8 0f00 	cmp.w	r8, #0
10001b36:	d11f      	bne.n	10001b78 <stdio_put_string+0xc8>
10001b38:	4628      	mov	r0, r5
10001b3a:	b002      	add	sp, #8
10001b3c:	e8bd 87f0 	ldmia.w	sp!, {r4, r5, r6, r7, r8, r9, sl, pc}
10001b40:	f04f 0a0a 	mov.w	sl, #10
10001b44:	f8df 9054 	ldr.w	r9, [pc, #84]	@ 10001b9c <stdio_put_string+0xec>
10001b48:	e002      	b.n	10001b50 <stdio_put_string+0xa0>
10001b4a:	6924      	ldr	r4, [r4, #16]
10001b4c:	2c00      	cmp	r4, #0
10001b4e:	d0f0      	beq.n	10001b32 <stdio_put_string+0x82>
10001b50:	6823      	ldr	r3, [r4, #0]
10001b52:	2b00      	cmp	r3, #0
10001b54:	d0f9      	beq.n	10001b4a <stdio_put_string+0x9a>
10001b56:	f8d9 3000 	ldr.w	r3, [r9]
10001b5a:	b10b      	cbz	r3, 10001b60 <stdio_put_string+0xb0>
10001b5c:	42a3      	cmp	r3, r4
10001b5e:	d1f4      	bne.n	10001b4a <stdio_put_string+0x9a>
10001b60:	462a      	mov	r2, r5
10001b62:	4639      	mov	r1, r7
10001b64:	4620      	mov	r0, r4
10001b66:	47b0      	blx	r6
10001b68:	2201      	movs	r2, #1
10001b6a:	4620      	mov	r0, r4
10001b6c:	f10d 0107 	add.w	r1, sp, #7
10001b70:	f88d a007 	strb.w	sl, [sp, #7]
10001b74:	47b0      	blx	r6
10001b76:	e7e8      	b.n	10001b4a <stdio_put_string+0x9a>
10001b78:	4804      	ldr	r0, [pc, #16]	@ (10001b8c <stdio_put_string+0xdc>)
10001b7a:	f006 fab5 	bl	100080e8 <__mutex_exit_veneer>
10001b7e:	4628      	mov	r0, r5
10001b80:	b002      	add	sp, #8
10001b82:	e8bd 87f0 	ldmia.w	sp!, {r4, r5, r6, r7, r8, r9, sl, pc}
10001b86:	bf00      	nop
10001b88:	000f4240 	.word	0x000f4240
10001b8c:	200013e8 	.word	0x200013e8
10001b90:	20002048 	.word	0x20002048
10001b94:	100019fd 	.word	0x100019fd
10001b98:	10001a05 	.word	0x10001a05
10001b9c:	20002050 	.word	0x20002050

10001ba0 <stdio_set_driver_enabled>:
10001ba0:	4a0a      	ldr	r2, [pc, #40]	@ (10001bcc <stdio_set_driver_enabled+0x2c>)
10001ba2:	6813      	ldr	r3, [r2, #0]
10001ba4:	b14b      	cbz	r3, 10001bba <stdio_set_driver_enabled+0x1a>
10001ba6:	4283      	cmp	r3, r0
10001ba8:	d102      	bne.n	10001bb0 <stdio_set_driver_enabled+0x10>
10001baa:	e009      	b.n	10001bc0 <stdio_set_driver_enabled+0x20>
10001bac:	4298      	cmp	r0, r3
10001bae:	d007      	beq.n	10001bc0 <stdio_set_driver_enabled+0x20>
10001bb0:	f103 0210 	add.w	r2, r3, #16
10001bb4:	691b      	ldr	r3, [r3, #16]
10001bb6:	2b00      	cmp	r3, #0
10001bb8:	d1f8      	bne.n	10001bac <stdio_set_driver_enabled+0xc>
10001bba:	b101      	cbz	r1, 10001bbe <stdio_set_driver_enabled+0x1e>
10001bbc:	6010      	str	r0, [r2, #0]
10001bbe:	4770      	bx	lr
10001bc0:	2900      	cmp	r1, #0
10001bc2:	d1fc      	bne.n	10001bbe <stdio_set_driver_enabled+0x1e>
10001bc4:	6903      	ldr	r3, [r0, #16]
10001bc6:	6013      	str	r3, [r2, #0]
10001bc8:	6101      	str	r1, [r0, #16]
10001bca:	4770      	bx	lr
10001bcc:	20002048 	.word	0x20002048

10001bd0 <stdio_init_all>:
10001bd0:	b508      	push	{r3, lr}
10001bd2:	f000 f935 	bl	10001e40 <stdio_uart_init>
10001bd6:	f000 fb6b 	bl	100022b0 <stdio_usb_init>
10001bda:	2001      	movs	r0, #1
10001bdc:	bd08      	pop	{r3, pc}
10001bde:	bf00      	nop

10001be0 <__wrap_putchar>:
10001be0:	b5f0      	push	{r4, r5, r6, r7, lr}
10001be2:	b083      	sub	sp, #12
10001be4:	4606      	mov	r6, r0
10001be6:	f88d 0007 	strb.w	r0, [sp, #7]
10001bea:	f7ff fb89 	bl	10001300 <time_us_64>
10001bee:	f04f 35ff 	mov.w	r5, #4294967295	@ 0xffffffff
10001bf2:	f06f 4400 	mvn.w	r4, #2147483648	@ 0x80000000
10001bf6:	4a17      	ldr	r2, [pc, #92]	@ (10001c54 <__wrap_putchar+0x74>)
10001bf8:	1882      	adds	r2, r0, r2
10001bfa:	f141 0300 	adc.w	r3, r1, #0
10001bfe:	4295      	cmp	r5, r2
10001c00:	eb74 0103 	sbcs.w	r1, r4, r3
10001c04:	bf3c      	itt	cc
10001c06:	4623      	movcc	r3, r4
10001c08:	462a      	movcc	r2, r5
10001c0a:	4813      	ldr	r0, [pc, #76]	@ (10001c58 <__wrap_putchar+0x78>)
10001c0c:	f006 fa78 	bl	10008100 <__mutex_try_enter_block_until_veneer>
10001c10:	4b12      	ldr	r3, [pc, #72]	@ (10001c5c <__wrap_putchar+0x7c>)
10001c12:	4607      	mov	r7, r0
10001c14:	681c      	ldr	r4, [r3, #0]
10001c16:	b19c      	cbz	r4, 10001c40 <__wrap_putchar+0x60>
10001c18:	4d11      	ldr	r5, [pc, #68]	@ (10001c60 <__wrap_putchar+0x80>)
10001c1a:	e001      	b.n	10001c20 <__wrap_putchar+0x40>
10001c1c:	6924      	ldr	r4, [r4, #16]
10001c1e:	b17c      	cbz	r4, 10001c40 <__wrap_putchar+0x60>
10001c20:	6823      	ldr	r3, [r4, #0]
10001c22:	2b00      	cmp	r3, #0
10001c24:	d0fa      	beq.n	10001c1c <__wrap_putchar+0x3c>
10001c26:	682b      	ldr	r3, [r5, #0]
10001c28:	b10b      	cbz	r3, 10001c2e <__wrap_putchar+0x4e>
10001c2a:	429c      	cmp	r4, r3
10001c2c:	d1f6      	bne.n	10001c1c <__wrap_putchar+0x3c>
10001c2e:	4620      	mov	r0, r4
10001c30:	2201      	movs	r2, #1
10001c32:	f10d 0107 	add.w	r1, sp, #7
10001c36:	f7ff fee5 	bl	10001a04 <stdio_out_chars_crlf>
10001c3a:	6924      	ldr	r4, [r4, #16]
10001c3c:	2c00      	cmp	r4, #0
10001c3e:	d1ef      	bne.n	10001c20 <__wrap_putchar+0x40>
10001c40:	b917      	cbnz	r7, 10001c48 <__wrap_putchar+0x68>
10001c42:	4630      	mov	r0, r6
10001c44:	b003      	add	sp, #12
10001c46:	bdf0      	pop	{r4, r5, r6, r7, pc}
10001c48:	4803      	ldr	r0, [pc, #12]	@ (10001c58 <__wrap_putchar+0x78>)
10001c4a:	f006 fa4d 	bl	100080e8 <__mutex_exit_veneer>
10001c4e:	4630      	mov	r0, r6
10001c50:	b003      	add	sp, #12
10001c52:	bdf0      	pop	{r4, r5, r6, r7, pc}
10001c54:	000f4240 	.word	0x000f4240
10001c58:	200013e8 	.word	0x200013e8
10001c5c:	20002048 	.word	0x20002048
10001c60:	20002050 	.word	0x20002050

10001c64 <__wrap_puts>:
10001c64:	b538      	push	{r3, r4, r5, lr}
10001c66:	4604      	mov	r4, r0
10001c68:	f006 f9a4 	bl	10007fb4 <strlen>
10001c6c:	2301      	movs	r3, #1
10001c6e:	4605      	mov	r5, r0
10001c70:	461a      	mov	r2, r3
10001c72:	4620      	mov	r0, r4
10001c74:	4629      	mov	r1, r5
10001c76:	f7ff ff1b 	bl	10001ab0 <stdio_put_string>
10001c7a:	4b08      	ldr	r3, [pc, #32]	@ (10001c9c <__wrap_puts+0x38>)
10001c7c:	681c      	ldr	r4, [r3, #0]
10001c7e:	b12c      	cbz	r4, 10001c8c <__wrap_puts+0x28>
10001c80:	6863      	ldr	r3, [r4, #4]
10001c82:	b12b      	cbz	r3, 10001c90 <__wrap_puts+0x2c>
10001c84:	4798      	blx	r3
10001c86:	6924      	ldr	r4, [r4, #16]
10001c88:	2c00      	cmp	r4, #0
10001c8a:	d1f9      	bne.n	10001c80 <__wrap_puts+0x1c>
10001c8c:	4628      	mov	r0, r5
10001c8e:	bd38      	pop	{r3, r4, r5, pc}
10001c90:	6924      	ldr	r4, [r4, #16]
10001c92:	2c00      	cmp	r4, #0
10001c94:	d1f4      	bne.n	10001c80 <__wrap_puts+0x1c>
10001c96:	4628      	mov	r0, r5
10001c98:	bd38      	pop	{r3, r4, r5, pc}
10001c9a:	bf00      	nop
10001c9c:	20002048 	.word	0x20002048

10001ca0 <stdio_uart_out_chars>:
10001ca0:	f1b1 0c00 	subs.w	ip, r1, #0
10001ca4:	dd1d      	ble.n	10001ce2 <stdio_uart_out_chars+0x42>
10001ca6:	4a0f      	ldr	r2, [pc, #60]	@ (10001ce4 <stdio_uart_out_chars+0x44>)
10001ca8:	4b0f      	ldr	r3, [pc, #60]	@ (10001ce8 <stdio_uart_out_chars+0x48>)
10001caa:	6812      	ldr	r2, [r2, #0]
10001cac:	b530      	push	{r4, r5, lr}
10001cae:	1ad3      	subs	r3, r2, r3
10001cb0:	fab3 f383 	clz	r3, r3
10001cb4:	240d      	movs	r4, #13
10001cb6:	4d0d      	ldr	r5, [pc, #52]	@ (10001cec <stdio_uart_out_chars+0x4c>)
10001cb8:	095b      	lsrs	r3, r3, #5
10001cba:	1e41      	subs	r1, r0, #1
10001cbc:	f935 e013 	ldrsh.w	lr, [r5, r3, lsl #1]
10001cc0:	448c      	add	ip, r1
10001cc2:	f811 0f01 	ldrb.w	r0, [r1, #1]!
10001cc6:	4586      	cmp	lr, r0
10001cc8:	d006      	beq.n	10001cd8 <stdio_uart_out_chars+0x38>
10001cca:	6993      	ldr	r3, [r2, #24]
10001ccc:	069b      	lsls	r3, r3, #26
10001cce:	d4fc      	bmi.n	10001cca <stdio_uart_out_chars+0x2a>
10001cd0:	4561      	cmp	r1, ip
10001cd2:	6010      	str	r0, [r2, #0]
10001cd4:	d1f5      	bne.n	10001cc2 <stdio_uart_out_chars+0x22>
10001cd6:	bd30      	pop	{r4, r5, pc}
10001cd8:	6993      	ldr	r3, [r2, #24]
10001cda:	069d      	lsls	r5, r3, #26
10001cdc:	d4fc      	bmi.n	10001cd8 <stdio_uart_out_chars+0x38>
10001cde:	6014      	str	r4, [r2, #0]
10001ce0:	e7f3      	b.n	10001cca <stdio_uart_out_chars+0x2a>
10001ce2:	4770      	bx	lr
10001ce4:	200024a4 	.word	0x200024a4
10001ce8:	40078000 	.word	0x40078000
10001cec:	200024a0 	.word	0x200024a0

10001cf0 <stdio_uart_in_chars>:
10001cf0:	4b22      	ldr	r3, [pc, #136]	@ (10001d7c <stdio_uart_in_chars+0x8c>)
10001cf2:	f1b1 0c00 	subs.w	ip, r1, #0
10001cf6:	b410      	push	{r4}
10001cf8:	681c      	ldr	r4, [r3, #0]
10001cfa:	dd2e      	ble.n	10001d5a <stdio_uart_in_chars+0x6a>
10001cfc:	4603      	mov	r3, r0
10001cfe:	2000      	movs	r0, #0
10001d00:	4a1f      	ldr	r2, [pc, #124]	@ (10001d80 <stdio_uart_in_chars+0x90>)
10001d02:	1e59      	subs	r1, r3, #1
10001d04:	6812      	ldr	r2, [r2, #0]
10001d06:	6993      	ldr	r3, [r2, #24]
10001d08:	06db      	lsls	r3, r3, #27
10001d0a:	d417      	bmi.n	10001d3c <stdio_uart_in_chars+0x4c>
10001d0c:	3001      	adds	r0, #1
10001d0e:	6993      	ldr	r3, [r2, #24]
10001d10:	06db      	lsls	r3, r3, #27
10001d12:	d4fc      	bmi.n	10001d0e <stdio_uart_in_chars+0x1e>
10001d14:	6813      	ldr	r3, [r2, #0]
10001d16:	4584      	cmp	ip, r0
10001d18:	f801 3f01 	strb.w	r3, [r1, #1]!
10001d1c:	d1f3      	bne.n	10001d06 <stdio_uart_in_chars+0x16>
10001d1e:	b14c      	cbz	r4, 10001d34 <stdio_uart_in_chars+0x44>
10001d20:	2150      	movs	r1, #80	@ 0x50
10001d22:	4613      	mov	r3, r2
10001d24:	6391      	str	r1, [r2, #56]	@ 0x38
10001d26:	f853 2f34 	ldr.w	r2, [r3, #52]!
10001d2a:	f002 0238 	and.w	r2, r2, #56	@ 0x38
10001d2e:	f503 5380 	add.w	r3, r3, #4096	@ 0x1000
10001d32:	601a      	str	r2, [r3, #0]
10001d34:	4660      	mov	r0, ip
10001d36:	f85d 4b04 	ldr.w	r4, [sp], #4
10001d3a:	4770      	bx	lr
10001d3c:	b14c      	cbz	r4, 10001d52 <stdio_uart_in_chars+0x62>
10001d3e:	2150      	movs	r1, #80	@ 0x50
10001d40:	4613      	mov	r3, r2
10001d42:	6391      	str	r1, [r2, #56]	@ 0x38
10001d44:	f853 2f34 	ldr.w	r2, [r3, #52]!
10001d48:	f002 0238 	and.w	r2, r2, #56	@ 0x38
10001d4c:	f503 5380 	add.w	r3, r3, #4096	@ 0x1000
10001d50:	601a      	str	r2, [r3, #0]
10001d52:	b178      	cbz	r0, 10001d74 <stdio_uart_in_chars+0x84>
10001d54:	f85d 4b04 	ldr.w	r4, [sp], #4
10001d58:	4770      	bx	lr
10001d5a:	b15c      	cbz	r4, 10001d74 <stdio_uart_in_chars+0x84>
10001d5c:	4b08      	ldr	r3, [pc, #32]	@ (10001d80 <stdio_uart_in_chars+0x90>)
10001d5e:	2150      	movs	r1, #80	@ 0x50
10001d60:	681a      	ldr	r2, [r3, #0]
10001d62:	4613      	mov	r3, r2
10001d64:	6391      	str	r1, [r2, #56]	@ 0x38
10001d66:	f853 2f34 	ldr.w	r2, [r3, #52]!
10001d6a:	f002 0238 	and.w	r2, r2, #56	@ 0x38
10001d6e:	f503 5380 	add.w	r3, r3, #4096	@ 0x1000
10001d72:	601a      	str	r2, [r3, #0]
10001d74:	f06f 0002 	mvn.w	r0, #2
10001d78:	e7ec      	b.n	10001d54 <stdio_uart_in_chars+0x64>
10001d7a:	bf00      	nop
10001d7c:	20001fe0 	.word	0x20001fe0
10001d80:	200024a4 	.word	0x200024a4

10001d84 <on_uart_rx>:
10001d84:	4b05      	ldr	r3, [pc, #20]	@ (10001d9c <on_uart_rx+0x18>)
10001d86:	681b      	ldr	r3, [r3, #0]
10001d88:	b133      	cbz	r3, 10001d98 <on_uart_rx+0x14>
10001d8a:	2100      	movs	r1, #0
10001d8c:	4a04      	ldr	r2, [pc, #16]	@ (10001da0 <on_uart_rx+0x1c>)
10001d8e:	4805      	ldr	r0, [pc, #20]	@ (10001da4 <on_uart_rx+0x20>)
10001d90:	6812      	ldr	r2, [r2, #0]
10001d92:	6800      	ldr	r0, [r0, #0]
10001d94:	6391      	str	r1, [r2, #56]	@ 0x38
10001d96:	4718      	bx	r3
10001d98:	4770      	bx	lr
10001d9a:	bf00      	nop
10001d9c:	20001fe0 	.word	0x20001fe0
10001da0:	200024a4 	.word	0x200024a4
10001da4:	20001fe8 	.word	0x20001fe8

10001da8 <stdio_uart_out_flush>:
10001da8:	4b02      	ldr	r3, [pc, #8]	@ (10001db4 <stdio_uart_out_flush+0xc>)
10001daa:	681a      	ldr	r2, [r3, #0]
10001dac:	6993      	ldr	r3, [r2, #24]
10001dae:	071b      	lsls	r3, r3, #28
10001db0:	d4fc      	bmi.n	10001dac <stdio_uart_out_flush+0x4>
10001db2:	4770      	bx	lr
10001db4:	200024a4 	.word	0x200024a4

10001db8 <stdio_uart_set_chars_available_callback>:
10001db8:	b5f8      	push	{r3, r4, r5, r6, r7, lr}
10001dba:	4f1c      	ldr	r7, [pc, #112]	@ (10001e2c <stdio_uart_set_chars_available_callback+0x74>)
10001dbc:	4d1c      	ldr	r5, [pc, #112]	@ (10001e30 <stdio_uart_set_chars_available_callback+0x78>)
10001dbe:	683a      	ldr	r2, [r7, #0]
10001dc0:	4e1c      	ldr	r6, [pc, #112]	@ (10001e34 <stdio_uart_set_chars_available_callback+0x7c>)
10001dc2:	42aa      	cmp	r2, r5
10001dc4:	bf14      	ite	ne
10001dc6:	2521      	movne	r5, #33	@ 0x21
10001dc8:	2522      	moveq	r5, #34	@ 0x22
10001dca:	4604      	mov	r4, r0
10001dcc:	f8d6 c000 	ldr.w	ip, [r6]
10001dd0:	b118      	cbz	r0, 10001dda <stdio_uart_set_chars_available_callback+0x22>
10001dd2:	f1bc 0f00 	cmp.w	ip, #0
10001dd6:	d010      	beq.n	10001dfa <stdio_uart_set_chars_available_callback+0x42>
10001dd8:	bdf8      	pop	{r3, r4, r5, r6, r7, pc}
10001dda:	f1bc 0f00 	cmp.w	ip, #0
10001dde:	d0fb      	beq.n	10001dd8 <stdio_uart_set_chars_available_callback+0x20>
10001de0:	4601      	mov	r1, r0
10001de2:	6390      	str	r0, [r2, #56]	@ 0x38
10001de4:	4628      	mov	r0, r5
10001de6:	f7fe fbbd 	bl	10000564 <irq_set_enabled>
10001dea:	4628      	mov	r0, r5
10001dec:	4912      	ldr	r1, [pc, #72]	@ (10001e38 <stdio_uart_set_chars_available_callback+0x80>)
10001dee:	f7fe fd1f 	bl	10000830 <irq_remove_handler>
10001df2:	4b12      	ldr	r3, [pc, #72]	@ (10001e3c <stdio_uart_set_chars_available_callback+0x84>)
10001df4:	6034      	str	r4, [r6, #0]
10001df6:	601c      	str	r4, [r3, #0]
10001df8:	bdf8      	pop	{r3, r4, r5, r6, r7, pc}
10001dfa:	460b      	mov	r3, r1
10001dfc:	4a0f      	ldr	r2, [pc, #60]	@ (10001e3c <stdio_uart_set_chars_available_callback+0x84>)
10001dfe:	490e      	ldr	r1, [pc, #56]	@ (10001e38 <stdio_uart_set_chars_available_callback+0x80>)
10001e00:	6030      	str	r0, [r6, #0]
10001e02:	4628      	mov	r0, r5
10001e04:	6013      	str	r3, [r2, #0]
10001e06:	f7fe fbef 	bl	100005e8 <irq_set_exclusive_handler>
10001e0a:	2101      	movs	r1, #1
10001e0c:	4628      	mov	r0, r5
10001e0e:	f7fe fba9 	bl	10000564 <irq_set_enabled>
10001e12:	683a      	ldr	r2, [r7, #0]
10001e14:	2150      	movs	r1, #80	@ 0x50
10001e16:	4613      	mov	r3, r2
10001e18:	6391      	str	r1, [r2, #56]	@ 0x38
10001e1a:	f853 2f34 	ldr.w	r2, [r3, #52]!
10001e1e:	f002 0238 	and.w	r2, r2, #56	@ 0x38
10001e22:	f503 5380 	add.w	r3, r3, #4096	@ 0x1000
10001e26:	601a      	str	r2, [r3, #0]
10001e28:	bdf8      	pop	{r3, r4, r5, r6, r7, pc}
10001e2a:	bf00      	nop
10001e2c:	200024a4 	.word	0x200024a4
10001e30:	40078000 	.word	0x40078000
10001e34:	20001fe0 	.word	0x20001fe0
10001e38:	10001d85 	.word	0x10001d85
10001e3c:	20001fe8 	.word	0x20001fe8

10001e40 <stdio_uart_init>:
10001e40:	b510      	push	{r4, lr}
10001e42:	490e      	ldr	r1, [pc, #56]	@ (10001e7c <stdio_uart_init+0x3c>)
10001e44:	4c0e      	ldr	r4, [pc, #56]	@ (10001e80 <stdio_uart_init+0x40>)
10001e46:	480f      	ldr	r0, [pc, #60]	@ (10001e84 <stdio_uart_init+0x44>)
10001e48:	4a0f      	ldr	r2, [pc, #60]	@ (10001e88 <stdio_uart_init+0x48>)
10001e4a:	4b10      	ldr	r3, [pc, #64]	@ (10001e8c <stdio_uart_init+0x4c>)
10001e4c:	7800      	ldrb	r0, [r0, #0]
10001e4e:	6021      	str	r1, [r4, #0]
10001e50:	2000      	movs	r0, #0
10001e52:	2102      	movs	r1, #2
10001e54:	7812      	ldrb	r2, [r2, #0]
10001e56:	781b      	ldrb	r3, [r3, #0]
10001e58:	f7fe fa60 	bl	1000031c <gpio_set_function>
10001e5c:	2102      	movs	r1, #2
10001e5e:	2001      	movs	r0, #1
10001e60:	f7fe fa5c 	bl	1000031c <gpio_set_function>
10001e64:	f44f 31e1 	mov.w	r1, #115200	@ 0x1c200
10001e68:	6820      	ldr	r0, [r4, #0]
10001e6a:	f7ff fa85 	bl	10001378 <uart_init>
10001e6e:	e8bd 4010 	ldmia.w	sp!, {r4, lr}
10001e72:	2101      	movs	r1, #1
10001e74:	4806      	ldr	r0, [pc, #24]	@ (10001e90 <stdio_uart_init+0x50>)
10001e76:	f7ff be93 	b.w	10001ba0 <stdio_set_driver_enabled>
10001e7a:	bf00      	nop
10001e7c:	40070000 	.word	0x40070000
10001e80:	200024a4 	.word	0x200024a4
10001e84:	100085ac 	.word	0x100085ac
10001e88:	100085a8 	.word	0x100085a8
10001e8c:	100085a4 	.word	0x100085a4
10001e90:	20000e54 	.word	0x20000e54

10001e94 <resetd_init>:
10001e94:	4770      	bx	lr
10001e96:	bf00      	nop

10001e98 <resetd_reset>:
10001e98:	2200      	movs	r2, #0
10001e9a:	4b01      	ldr	r3, [pc, #4]	@ (10001ea0 <resetd_reset+0x8>)
10001e9c:	701a      	strb	r2, [r3, #0]
10001e9e:	4770      	bx	lr
10001ea0:	200024bd 	.word	0x200024bd

10001ea4 <resetd_open>:
10001ea4:	794b      	ldrb	r3, [r1, #5]
10001ea6:	2bff      	cmp	r3, #255	@ 0xff
10001ea8:	d10b      	bne.n	10001ec2 <resetd_open+0x1e>
10001eaa:	7988      	ldrb	r0, [r1, #6]
10001eac:	b948      	cbnz	r0, 10001ec2 <resetd_open+0x1e>
10001eae:	79cb      	ldrb	r3, [r1, #7]
10001eb0:	2b01      	cmp	r3, #1
10001eb2:	d107      	bne.n	10001ec4 <resetd_open+0x20>
10001eb4:	2a08      	cmp	r2, #8
10001eb6:	d905      	bls.n	10001ec4 <resetd_open+0x20>
10001eb8:	4b03      	ldr	r3, [pc, #12]	@ (10001ec8 <resetd_open+0x24>)
10001eba:	788a      	ldrb	r2, [r1, #2]
10001ebc:	2009      	movs	r0, #9
10001ebe:	701a      	strb	r2, [r3, #0]
10001ec0:	4770      	bx	lr
10001ec2:	2000      	movs	r0, #0
10001ec4:	4770      	bx	lr
10001ec6:	bf00      	nop
10001ec8:	200024bd 	.word	0x200024bd

10001ecc <resetd_xfer_cb>:
10001ecc:	2001      	movs	r0, #1
10001ece:	4770      	bx	lr

10001ed0 <resetd_control_xfer_cb>:
10001ed0:	2901      	cmp	r1, #1
10001ed2:	d001      	beq.n	10001ed8 <resetd_control_xfer_cb+0x8>
10001ed4:	2001      	movs	r0, #1
10001ed6:	4770      	bx	lr
10001ed8:	b508      	push	{r3, lr}
10001eda:	4b10      	ldr	r3, [pc, #64]	@ (10001f1c <resetd_control_xfer_cb+0x4c>)
10001edc:	8891      	ldrh	r1, [r2, #4]
10001ede:	781b      	ldrb	r3, [r3, #0]
10001ee0:	4299      	cmp	r1, r3
10001ee2:	d001      	beq.n	10001ee8 <resetd_control_xfer_cb+0x18>
10001ee4:	2000      	movs	r0, #0
10001ee6:	bd08      	pop	{r3, pc}
10001ee8:	7853      	ldrb	r3, [r2, #1]
10001eea:	2b01      	cmp	r3, #1
10001eec:	d008      	beq.n	10001f00 <resetd_control_xfer_cb+0x30>
10001eee:	2b02      	cmp	r3, #2
10001ef0:	d1f8      	bne.n	10001ee4 <resetd_control_xfer_cb+0x14>
10001ef2:	2100      	movs	r1, #0
10001ef4:	2264      	movs	r2, #100	@ 0x64
10001ef6:	4608      	mov	r0, r1
10001ef8:	f7ff fb74 	bl	100015e4 <watchdog_reboot>
10001efc:	2001      	movs	r0, #1
10001efe:	bd08      	pop	{r3, pc}
10001f00:	8851      	ldrh	r1, [r2, #2]
10001f02:	05cb      	lsls	r3, r1, #23
10001f04:	bf4b      	itete	mi
10001f06:	0a4a      	lsrmi	r2, r1, #9
10001f08:	0a4a      	lsrpl	r2, r1, #9
10001f0a:	4610      	movmi	r0, r2
10001f0c:	f04f 30ff 	movpl.w	r0, #4294967295	@ 0xffffffff
10001f10:	f002 0201 	and.w	r2, r2, #1
10001f14:	f001 017f 	and.w	r1, r1, #127	@ 0x7f
10001f18:	f7ff fbe2 	bl	100016e0 <rom_reset_usb_boot_extra>
10001f1c:	200024bd 	.word	0x200024bd

10001f20 <tud_descriptor_bos_cb>:
10001f20:	4800      	ldr	r0, [pc, #0]	@ (10001f24 <tud_descriptor_bos_cb+0x4>)
10001f22:	4770      	bx	lr
10001f24:	1000848c 	.word	0x1000848c

10001f28 <tud_vendor_control_xfer_cb>:
10001f28:	2901      	cmp	r1, #1
10001f2a:	d107      	bne.n	10001f3c <tud_vendor_control_xfer_cb+0x14>
10001f2c:	7853      	ldrb	r3, [r2, #1]
10001f2e:	2b01      	cmp	r3, #1
10001f30:	d102      	bne.n	10001f38 <tud_vendor_control_xfer_cb+0x10>
10001f32:	8893      	ldrh	r3, [r2, #4]
10001f34:	2b07      	cmp	r3, #7
10001f36:	d003      	beq.n	10001f40 <tud_vendor_control_xfer_cb+0x18>
10001f38:	2000      	movs	r0, #0
10001f3a:	4770      	bx	lr
10001f3c:	2001      	movs	r0, #1
10001f3e:	4770      	bx	lr
10001f40:	4611      	mov	r1, r2
10001f42:	23a6      	movs	r3, #166	@ 0xa6
10001f44:	4a01      	ldr	r2, [pc, #4]	@ (10001f4c <tud_vendor_control_xfer_cb+0x24>)
10001f46:	f001 ba3f 	b.w	100033c8 <tud_control_xfer>
10001f4a:	bf00      	nop
10001f4c:	100083e4 	.word	0x100083e4

10001f50 <usbd_app_driver_get_cb>:
10001f50:	4603      	mov	r3, r0
10001f52:	2201      	movs	r2, #1
10001f54:	4801      	ldr	r0, [pc, #4]	@ (10001f5c <usbd_app_driver_get_cb+0xc>)
10001f56:	701a      	strb	r2, [r3, #0]
10001f58:	4770      	bx	lr
10001f5a:	bf00      	nop
10001f5c:	100083c4 	.word	0x100083c4

10001f60 <tud_cdc_line_coding_cb>:
10001f60:	b508      	push	{r3, lr}
10001f62:	680b      	ldr	r3, [r1, #0]
10001f64:	f5b3 6f96 	cmp.w	r3, #1200	@ 0x4b0
10001f68:	d000      	beq.n	10001f6c <tud_cdc_line_coding_cb+0xc>
10001f6a:	bd08      	pop	{r3, pc}
10001f6c:	2200      	movs	r2, #0
10001f6e:	f04f 30ff 	mov.w	r0, #4294967295	@ 0xffffffff
10001f72:	4611      	mov	r1, r2
10001f74:	f7ff fbb4 	bl	100016e0 <rom_reset_usb_boot_extra>

10001f78 <stdio_usb_set_chars_available_callback>:
10001f78:	4a02      	ldr	r2, [pc, #8]	@ (10001f84 <stdio_usb_set_chars_available_callback+0xc>)
10001f7a:	4b03      	ldr	r3, [pc, #12]	@ (10001f88 <stdio_usb_set_chars_available_callback+0x10>)
10001f7c:	6010      	str	r0, [r2, #0]
10001f7e:	6019      	str	r1, [r3, #0]
10001f80:	4770      	bx	lr
10001f82:	bf00      	nop
10001f84:	20001fe4 	.word	0x20001fe4
10001f88:	20001fec 	.word	0x20001fec

10001f8c <timer_task>:
10001f8c:	4b18      	ldr	r3, [pc, #96]	@ (10001ff0 <timer_task+0x64>)
10001f8e:	b570      	push	{r4, r5, r6, lr}
10001f90:	681a      	ldr	r2, [r3, #0]
10001f92:	2a00      	cmp	r2, #0
10001f94:	d028      	beq.n	10001fe8 <timer_task+0x5c>
10001f96:	f3ef 8110 	mrs	r1, PRIMASK
10001f9a:	b672      	cpsid	i
10001f9c:	e8d2 4fcf 	ldaexb	r4, [r2]
10001fa0:	2001      	movs	r0, #1
10001fa2:	2c00      	cmp	r4, #0
10001fa4:	d1fa      	bne.n	10001f9c <timer_task+0x10>
10001fa6:	e8c2 0f44 	strexb	r4, r0, [r2]
10001faa:	2c00      	cmp	r4, #0
10001fac:	d1f6      	bne.n	10001f9c <timer_task+0x10>
10001fae:	f3bf 8f5f 	dmb	sy
10001fb2:	2200      	movs	r2, #0
10001fb4:	4c0f      	ldr	r4, [pc, #60]	@ (10001ff4 <timer_task+0x68>)
10001fb6:	6818      	ldr	r0, [r3, #0]
10001fb8:	6059      	str	r1, [r3, #4]
10001fba:	7022      	strb	r2, [r4, #0]
10001fbc:	e8c0 2f8f 	stlb	r2, [r0]
10001fc0:	f381 8810 	msr	PRIMASK, r1
10001fc4:	2400      	movs	r4, #0
10001fc6:	2500      	movs	r5, #0
10001fc8:	4e0b      	ldr	r6, [pc, #44]	@ (10001ff8 <timer_task+0x6c>)
10001fca:	7830      	ldrb	r0, [r6, #0]
10001fcc:	f7fe fae0 	bl	10000590 <irq_is_enabled>
10001fd0:	b920      	cbnz	r0, 10001fdc <timer_task+0x50>
10001fd2:	2400      	movs	r4, #0
10001fd4:	2500      	movs	r5, #0
10001fd6:	4620      	mov	r0, r4
10001fd8:	4629      	mov	r1, r5
10001fda:	bd70      	pop	{r4, r5, r6, pc}
10001fdc:	7830      	ldrb	r0, [r6, #0]
10001fde:	f7fe fae7 	bl	100005b0 <irq_set_pending>
10001fe2:	4620      	mov	r0, r4
10001fe4:	4629      	mov	r1, r5
10001fe6:	bd70      	pop	{r4, r5, r6, pc}
10001fe8:	f44f 747a 	mov.w	r4, #1000	@ 0x3e8
10001fec:	2500      	movs	r5, #0
10001fee:	e7eb      	b.n	10001fc8 <timer_task+0x3c>
10001ff0:	20002464 	.word	0x20002464
10001ff4:	200024bf 	.word	0x200024bf
10001ff8:	200024be 	.word	0x200024be

10001ffc <usb_irq>:
10001ffc:	4b01      	ldr	r3, [pc, #4]	@ (10002004 <usb_irq+0x8>)
10001ffe:	7818      	ldrb	r0, [r3, #0]
10002000:	f7fe bad6 	b.w	100005b0 <irq_set_pending>
10002004:	200024be 	.word	0x200024be

10002008 <stdio_usb_in_chars>:
10002008:	b538      	push	{r3, r4, r5, lr}
1000200a:	4604      	mov	r4, r0
1000200c:	2000      	movs	r0, #0
1000200e:	460d      	mov	r5, r1
10002010:	f001 fb06 	bl	10003620 <tud_cdc_n_connected>
10002014:	b3a8      	cbz	r0, 10002082 <stdio_usb_in_chars+0x7a>
10002016:	2000      	movs	r0, #0
10002018:	f001 fb18 	bl	1000364c <tud_cdc_n_available>
1000201c:	b388      	cbz	r0, 10002082 <stdio_usb_in_chars+0x7a>
1000201e:	f7ff f96f 	bl	10001300 <time_us_64>
10002022:	f04f 3eff 	mov.w	lr, #4294967295	@ 0xffffffff
10002026:	f06f 4c00 	mvn.w	ip, #2147483648	@ 0x80000000
1000202a:	4a17      	ldr	r2, [pc, #92]	@ (10002088 <stdio_usb_in_chars+0x80>)
1000202c:	1882      	adds	r2, r0, r2
1000202e:	f141 0300 	adc.w	r3, r1, #0
10002032:	4596      	cmp	lr, r2
10002034:	eb7c 0103 	sbcs.w	r1, ip, r3
10002038:	bf3c      	itt	cc
1000203a:	4672      	movcc	r2, lr
1000203c:	4663      	movcc	r3, ip
1000203e:	4813      	ldr	r0, [pc, #76]	@ (1000208c <stdio_usb_in_chars+0x84>)
10002040:	f006 f85e 	bl	10008100 <__mutex_try_enter_block_until_veneer>
10002044:	b1e8      	cbz	r0, 10002082 <stdio_usb_in_chars+0x7a>
10002046:	2000      	movs	r0, #0
10002048:	f001 faea 	bl	10003620 <tud_cdc_n_connected>
1000204c:	b958      	cbnz	r0, 10002066 <stdio_usb_in_chars+0x5e>
1000204e:	2100      	movs	r1, #0
10002050:	f04f 30ff 	mov.w	r0, #4294967295	@ 0xffffffff
10002054:	f000 fd12 	bl	10002a7c <tud_task_ext>
10002058:	f06f 0402 	mvn.w	r4, #2
1000205c:	480b      	ldr	r0, [pc, #44]	@ (1000208c <stdio_usb_in_chars+0x84>)
1000205e:	f006 f843 	bl	100080e8 <__mutex_exit_veneer>
10002062:	4620      	mov	r0, r4
10002064:	bd38      	pop	{r3, r4, r5, pc}
10002066:	2000      	movs	r0, #0
10002068:	f001 faf0 	bl	1000364c <tud_cdc_n_available>
1000206c:	2800      	cmp	r0, #0
1000206e:	d0ee      	beq.n	1000204e <stdio_usb_in_chars+0x46>
10002070:	4621      	mov	r1, r4
10002072:	462a      	mov	r2, r5
10002074:	2000      	movs	r0, #0
10002076:	f001 faf5 	bl	10003664 <tud_cdc_n_read>
1000207a:	4604      	mov	r4, r0
1000207c:	2800      	cmp	r0, #0
1000207e:	d1ed      	bne.n	1000205c <stdio_usb_in_chars+0x54>
10002080:	e7ea      	b.n	10002058 <stdio_usb_in_chars+0x50>
10002082:	f06f 0402 	mvn.w	r4, #2
10002086:	e7ec      	b.n	10002062 <stdio_usb_in_chars+0x5a>
10002088:	000f4240 	.word	0x000f4240
1000208c:	20002498 	.word	0x20002498

10002090 <stdio_usb_out_flush>:
10002090:	b508      	push	{r3, lr}
10002092:	f7ff f935 	bl	10001300 <time_us_64>
10002096:	f04f 3eff 	mov.w	lr, #4294967295	@ 0xffffffff
1000209a:	f06f 4c00 	mvn.w	ip, #2147483648	@ 0x80000000
1000209e:	4a0f      	ldr	r2, [pc, #60]	@ (100020dc <stdio_usb_out_flush+0x4c>)
100020a0:	1882      	adds	r2, r0, r2
100020a2:	f141 0300 	adc.w	r3, r1, #0
100020a6:	4596      	cmp	lr, r2
100020a8:	eb7c 0103 	sbcs.w	r1, ip, r3
100020ac:	bf3c      	itt	cc
100020ae:	4672      	movcc	r2, lr
100020b0:	4663      	movcc	r3, ip
100020b2:	480b      	ldr	r0, [pc, #44]	@ (100020e0 <stdio_usb_out_flush+0x50>)
100020b4:	f006 f824 	bl	10008100 <__mutex_try_enter_block_until_veneer>
100020b8:	b170      	cbz	r0, 100020d8 <stdio_usb_out_flush+0x48>
100020ba:	f04f 30ff 	mov.w	r0, #4294967295	@ 0xffffffff
100020be:	2100      	movs	r1, #0
100020c0:	f000 fcdc 	bl	10002a7c <tud_task_ext>
100020c4:	2000      	movs	r0, #0
100020c6:	f001 fb13 	bl	100036f0 <tud_cdc_n_write_flush>
100020ca:	2800      	cmp	r0, #0
100020cc:	d1f5      	bne.n	100020ba <stdio_usb_out_flush+0x2a>
100020ce:	e8bd 4008 	ldmia.w	sp!, {r3, lr}
100020d2:	4803      	ldr	r0, [pc, #12]	@ (100020e0 <stdio_usb_out_flush+0x50>)
100020d4:	f006 b808 	b.w	100080e8 <__mutex_exit_veneer>
100020d8:	bd08      	pop	{r3, pc}
100020da:	bf00      	nop
100020dc:	000f4240 	.word	0x000f4240
100020e0:	20002498 	.word	0x20002498

100020e4 <stdio_usb_out_chars>:
100020e4:	e92d 43f8 	stmdb	sp!, {r3, r4, r5, r6, r7, r8, r9, lr}
100020e8:	4607      	mov	r7, r0
100020ea:	460e      	mov	r6, r1
100020ec:	f7ff f908 	bl	10001300 <time_us_64>
100020f0:	f04f 35ff 	mov.w	r5, #4294967295	@ 0xffffffff
100020f4:	f06f 4400 	mvn.w	r4, #2147483648	@ 0x80000000
100020f8:	4a33      	ldr	r2, [pc, #204]	@ (100021c8 <stdio_usb_out_chars+0xe4>)
100020fa:	1882      	adds	r2, r0, r2
100020fc:	f141 0300 	adc.w	r3, r1, #0
10002100:	4295      	cmp	r5, r2
10002102:	eb74 0103 	sbcs.w	r1, r4, r3
10002106:	bf3c      	itt	cc
10002108:	462a      	movcc	r2, r5
1000210a:	4623      	movcc	r3, r4
1000210c:	482f      	ldr	r0, [pc, #188]	@ (100021cc <stdio_usb_out_chars+0xe8>)
1000210e:	f005 fff7 	bl	10008100 <__mutex_try_enter_block_until_veneer>
10002112:	b908      	cbnz	r0, 10002118 <stdio_usb_out_chars+0x34>
10002114:	e8bd 83f8 	ldmia.w	sp!, {r3, r4, r5, r6, r7, r8, r9, pc}
10002118:	2000      	movs	r0, #0
1000211a:	f001 fa81 	bl	10003620 <tud_cdc_n_connected>
1000211e:	2800      	cmp	r0, #0
10002120:	d048      	beq.n	100021b4 <stdio_usb_out_chars+0xd0>
10002122:	2e00      	cmp	r6, #0
10002124:	dd41      	ble.n	100021aa <stdio_usb_out_chars+0xc6>
10002126:	2500      	movs	r5, #0
10002128:	f8df 80a4 	ldr.w	r8, [pc, #164]	@ 100021d0 <stdio_usb_out_chars+0xec>
1000212c:	f8df 90a4 	ldr.w	r9, [pc, #164]	@ 100021d4 <stdio_usb_out_chars+0xf0>
10002130:	e013      	b.n	1000215a <stdio_usb_out_chars+0x76>
10002132:	4622      	mov	r2, r4
10002134:	2000      	movs	r0, #0
10002136:	f001 fb21 	bl	1000377c <tud_cdc_n_write>
1000213a:	2100      	movs	r1, #0
1000213c:	4604      	mov	r4, r0
1000213e:	f04f 30ff 	mov.w	r0, #4294967295	@ 0xffffffff
10002142:	f000 fc9b 	bl	10002a7c <tud_task_ext>
10002146:	2000      	movs	r0, #0
10002148:	f001 fad2 	bl	100036f0 <tud_cdc_n_write_flush>
1000214c:	f7ff f8d8 	bl	10001300 <time_us_64>
10002150:	e9c8 0100 	strd	r0, r1, [r8]
10002154:	4425      	add	r5, r4
10002156:	42ae      	cmp	r6, r5
10002158:	dd27      	ble.n	100021aa <stdio_usb_out_chars+0xc6>
1000215a:	2000      	movs	r0, #0
1000215c:	f001 fb30 	bl	100037c0 <tud_cdc_n_write_available>
10002160:	1b74      	subs	r4, r6, r5
10002162:	4284      	cmp	r4, r0
10002164:	bfa8      	it	ge
10002166:	4604      	movge	r4, r0
10002168:	1979      	adds	r1, r7, r5
1000216a:	2c00      	cmp	r4, #0
1000216c:	d1e1      	bne.n	10002132 <stdio_usb_out_chars+0x4e>
1000216e:	4621      	mov	r1, r4
10002170:	f04f 30ff 	mov.w	r0, #4294967295	@ 0xffffffff
10002174:	f000 fc82 	bl	10002a7c <tud_task_ext>
10002178:	4620      	mov	r0, r4
1000217a:	f001 fab9 	bl	100036f0 <tud_cdc_n_write_flush>
1000217e:	4620      	mov	r0, r4
10002180:	f001 fa4e 	bl	10003620 <tud_cdc_n_connected>
10002184:	b188      	cbz	r0, 100021aa <stdio_usb_out_chars+0xc6>
10002186:	4620      	mov	r0, r4
10002188:	f001 fb1a 	bl	100037c0 <tud_cdc_n_write_available>
1000218c:	2800      	cmp	r0, #0
1000218e:	d1e2      	bne.n	10002156 <stdio_usb_out_chars+0x72>
10002190:	f7ff f8b6 	bl	10001300 <time_us_64>
10002194:	f8d8 3000 	ldr.w	r3, [r8]
10002198:	f8d8 2004 	ldr.w	r2, [r8, #4]
1000219c:	eb13 0309 	adds.w	r3, r3, r9
100021a0:	f142 0200 	adc.w	r2, r2, #0
100021a4:	4283      	cmp	r3, r0
100021a6:	418a      	sbcs	r2, r1
100021a8:	d2d5      	bcs.n	10002156 <stdio_usb_out_chars+0x72>
100021aa:	4808      	ldr	r0, [pc, #32]	@ (100021cc <stdio_usb_out_chars+0xe8>)
100021ac:	e8bd 43f8 	ldmia.w	sp!, {r3, r4, r5, r6, r7, r8, r9, lr}
100021b0:	f005 bf9a 	b.w	100080e8 <__mutex_exit_veneer>
100021b4:	2000      	movs	r0, #0
100021b6:	2100      	movs	r1, #0
100021b8:	4b05      	ldr	r3, [pc, #20]	@ (100021d0 <stdio_usb_out_chars+0xec>)
100021ba:	e9c3 0100 	strd	r0, r1, [r3]
100021be:	e8bd 43f8 	ldmia.w	sp!, {r3, r4, r5, r6, r7, r8, r9, lr}
100021c2:	4802      	ldr	r0, [pc, #8]	@ (100021cc <stdio_usb_out_chars+0xe8>)
100021c4:	f005 bf90 	b.w	100080e8 <__mutex_exit_veneer>
100021c8:	000f4240 	.word	0x000f4240
100021cc:	20002498 	.word	0x20002498
100021d0:	20001688 	.word	0x20001688
100021d4:	0007a120 	.word	0x0007a120

100021d8 <low_priority_worker_irq>:
100021d8:	b530      	push	{r4, r5, lr}
100021da:	2100      	movs	r1, #0
100021dc:	b085      	sub	sp, #20
100021de:	482e      	ldr	r0, [pc, #184]	@ (10002298 <low_priority_worker_irq+0xc0>)
100021e0:	f005 ff9a 	bl	10008118 <__mutex_try_enter_veneer>
100021e4:	b9f0      	cbnz	r0, 10002224 <low_priority_worker_irq+0x4c>
100021e6:	4b2d      	ldr	r3, [pc, #180]	@ (1000229c <low_priority_worker_irq+0xc4>)
100021e8:	681a      	ldr	r2, [r3, #0]
100021ea:	b1ca      	cbz	r2, 10002220 <low_priority_worker_irq+0x48>
100021ec:	f3ef 8110 	mrs	r1, PRIMASK
100021f0:	b672      	cpsid	i
100021f2:	e8d2 5fcf 	ldaexb	r5, [r2]
100021f6:	2401      	movs	r4, #1
100021f8:	2d00      	cmp	r5, #0
100021fa:	d1fa      	bne.n	100021f2 <low_priority_worker_irq+0x1a>
100021fc:	e8c2 4f45 	strexb	r5, r4, [r2]
10002200:	2d00      	cmp	r5, #0
10002202:	d1f6      	bne.n	100021f2 <low_priority_worker_irq+0x1a>
10002204:	f3bf 8f5f 	dmb	sy
10002208:	4c25      	ldr	r4, [pc, #148]	@ (100022a0 <low_priority_worker_irq+0xc8>)
1000220a:	681d      	ldr	r5, [r3, #0]
1000220c:	7822      	ldrb	r2, [r4, #0]
1000220e:	6059      	str	r1, [r3, #4]
10002210:	b2d3      	uxtb	r3, r2
10002212:	2201      	movs	r2, #1
10002214:	7022      	strb	r2, [r4, #0]
10002216:	e8c5 0f8f 	stlb	r0, [r5]
1000221a:	f381 8810 	msr	PRIMASK, r1
1000221e:	b1cb      	cbz	r3, 10002254 <low_priority_worker_irq+0x7c>
10002220:	b005      	add	sp, #20
10002222:	bd30      	pop	{r4, r5, pc}
10002224:	2100      	movs	r1, #0
10002226:	f04f 30ff 	mov.w	r0, #4294967295	@ 0xffffffff
1000222a:	f000 fc27 	bl	10002a7c <tud_task_ext>
1000222e:	2000      	movs	r0, #0
10002230:	f001 fa0c 	bl	1000364c <tud_cdc_n_available>
10002234:	4604      	mov	r4, r0
10002236:	4818      	ldr	r0, [pc, #96]	@ (10002298 <low_priority_worker_irq+0xc0>)
10002238:	f005 ff56 	bl	100080e8 <__mutex_exit_veneer>
1000223c:	2c00      	cmp	r4, #0
1000223e:	d0ef      	beq.n	10002220 <low_priority_worker_irq+0x48>
10002240:	4b18      	ldr	r3, [pc, #96]	@ (100022a4 <low_priority_worker_irq+0xcc>)
10002242:	681b      	ldr	r3, [r3, #0]
10002244:	2b00      	cmp	r3, #0
10002246:	d0eb      	beq.n	10002220 <low_priority_worker_irq+0x48>
10002248:	4a17      	ldr	r2, [pc, #92]	@ (100022a8 <low_priority_worker_irq+0xd0>)
1000224a:	6810      	ldr	r0, [r2, #0]
1000224c:	b005      	add	sp, #20
1000224e:	e8bd 4030 	ldmia.w	sp!, {r4, r5, lr}
10002252:	4718      	bx	r3
10002254:	f7fe fec4 	bl	10000fe0 <alarm_pool_get_default>
10002258:	4604      	mov	r4, r0
1000225a:	f7ff f851 	bl	10001300 <time_us_64>
1000225e:	f04f 3cff 	mov.w	ip, #4294967295	@ 0xffffffff
10002262:	f06f 4500 	mvn.w	r5, #2147483648	@ 0x80000000
10002266:	f510 727a 	adds.w	r2, r0, #1000	@ 0x3e8
1000226a:	f141 0300 	adc.w	r3, r1, #0
1000226e:	4594      	cmp	ip, r2
10002270:	eb75 0103 	sbcs.w	r1, r5, r3
10002274:	bf38      	it	cc
10002276:	462b      	movcc	r3, r5
10002278:	f04f 0100 	mov.w	r1, #0
1000227c:	f04f 0501 	mov.w	r5, #1
10002280:	4620      	mov	r0, r4
10002282:	4c0a      	ldr	r4, [pc, #40]	@ (100022ac <low_priority_worker_irq+0xd4>)
10002284:	bf38      	it	cc
10002286:	4662      	movcc	r2, ip
10002288:	e9cd 1501 	strd	r1, r5, [sp, #4]
1000228c:	9400      	str	r4, [sp, #0]
1000228e:	f7fe feab 	bl	10000fe8 <alarm_pool_add_alarm_at>
10002292:	b005      	add	sp, #20
10002294:	bd30      	pop	{r4, r5, pc}
10002296:	bf00      	nop
10002298:	20002498 	.word	0x20002498
1000229c:	20002464 	.word	0x20002464
100022a0:	200024bf 	.word	0x200024bf
100022a4:	20001fe4 	.word	0x20001fe4
100022a8:	20001fec 	.word	0x20001fec
100022ac:	10001f8d 	.word	0x10001f8d

100022b0 <stdio_usb_init>:
100022b0:	f04f 4350 	mov.w	r3, #3489660928	@ 0xd0000000
100022b4:	b530      	push	{r4, r5, lr}
100022b6:	b085      	sub	sp, #20
100022b8:	681c      	ldr	r4, [r3, #0]
100022ba:	f7fe fe91 	bl	10000fe0 <alarm_pool_get_default>
100022be:	f7fe ffa5 	bl	1000120c <alarm_pool_core_num>
100022c2:	42a0      	cmp	r0, r4
100022c4:	d002      	beq.n	100022cc <stdio_usb_init+0x1c>
100022c6:	2000      	movs	r0, #0
100022c8:	b005      	add	sp, #20
100022ca:	bd30      	pop	{r4, r5, pc}
100022cc:	2100      	movs	r1, #0
100022ce:	4b2a      	ldr	r3, [pc, #168]	@ (10002378 <stdio_usb_init+0xc8>)
100022d0:	4608      	mov	r0, r1
100022d2:	781b      	ldrb	r3, [r3, #0]
100022d4:	f001 fd4a 	bl	10003d6c <tusb_rhport_init>
100022d8:	4828      	ldr	r0, [pc, #160]	@ (1000237c <stdio_usb_init+0xcc>)
100022da:	6803      	ldr	r3, [r0, #0]
100022dc:	2b00      	cmp	r3, #0
100022de:	d047      	beq.n	10002370 <stdio_usb_init+0xc0>
100022e0:	2001      	movs	r0, #1
100022e2:	f7fe fc01 	bl	10000ae8 <user_irq_claim_unused>
100022e6:	4603      	mov	r3, r0
100022e8:	4c25      	ldr	r4, [pc, #148]	@ (10002380 <stdio_usb_init+0xd0>)
100022ea:	4926      	ldr	r1, [pc, #152]	@ (10002384 <stdio_usb_init+0xd4>)
100022ec:	b2c0      	uxtb	r0, r0
100022ee:	7023      	strb	r3, [r4, #0]
100022f0:	f7fe f97a 	bl	100005e8 <irq_set_exclusive_handler>
100022f4:	7820      	ldrb	r0, [r4, #0]
100022f6:	2101      	movs	r1, #1
100022f8:	f7fe f934 	bl	10000564 <irq_set_enabled>
100022fc:	200e      	movs	r0, #14
100022fe:	f7fe f963 	bl	100005c8 <irq_has_shared_handler>
10002302:	bb40      	cbnz	r0, 10002356 <stdio_usb_init+0xa6>
10002304:	4b20      	ldr	r3, [pc, #128]	@ (10002388 <stdio_usb_init+0xd8>)
10002306:	2501      	movs	r5, #1
10002308:	e9c3 0000 	strd	r0, r0, [r3]
1000230c:	f7fe fe68 	bl	10000fe0 <alarm_pool_get_default>
10002310:	4604      	mov	r4, r0
10002312:	f7fe fff5 	bl	10001300 <time_us_64>
10002316:	f04f 3eff 	mov.w	lr, #4294967295	@ 0xffffffff
1000231a:	f06f 4c00 	mvn.w	ip, #2147483648	@ 0x80000000
1000231e:	f510 727a 	adds.w	r2, r0, #1000	@ 0x3e8
10002322:	f141 0300 	adc.w	r3, r1, #0
10002326:	4596      	cmp	lr, r2
10002328:	eb7c 0103 	sbcs.w	r1, ip, r3
1000232c:	f04f 0100 	mov.w	r1, #0
10002330:	4620      	mov	r0, r4
10002332:	4c16      	ldr	r4, [pc, #88]	@ (1000238c <stdio_usb_init+0xdc>)
10002334:	bf3c      	itt	cc
10002336:	4672      	movcc	r2, lr
10002338:	4663      	movcc	r3, ip
1000233a:	e9cd 1501 	strd	r1, r5, [sp, #4]
1000233e:	9400      	str	r4, [sp, #0]
10002340:	f7fe fe52 	bl	10000fe8 <alarm_pool_add_alarm_at>
10002344:	2800      	cmp	r0, #0
10002346:	dbbe      	blt.n	100022c6 <stdio_usb_init+0x16>
10002348:	2101      	movs	r1, #1
1000234a:	4811      	ldr	r0, [pc, #68]	@ (10002390 <stdio_usb_init+0xe0>)
1000234c:	f7ff fc28 	bl	10001ba0 <stdio_set_driver_enabled>
10002350:	2001      	movs	r0, #1
10002352:	b005      	add	sp, #20
10002354:	bd30      	pop	{r4, r5, pc}
10002356:	2001      	movs	r0, #1
10002358:	f7fe f8c0 	bl	100004dc <spin_lock_claim_unused>
1000235c:	4601      	mov	r1, r0
1000235e:	480a      	ldr	r0, [pc, #40]	@ (10002388 <stdio_usb_init+0xd8>)
10002360:	f7fe fc1e 	bl	10000ba0 <critical_section_init_with_lock_num>
10002364:	2200      	movs	r2, #0
10002366:	200e      	movs	r0, #14
10002368:	490a      	ldr	r1, [pc, #40]	@ (10002394 <stdio_usb_init+0xe4>)
1000236a:	f7fe f96d 	bl	10000648 <irq_add_shared_handler>
1000236e:	e7eb      	b.n	10002348 <stdio_usb_init+0x98>
10002370:	f7fe fbfa 	bl	10000b68 <mutex_init>
10002374:	e7b4      	b.n	100022e0 <stdio_usb_init+0x30>
10002376:	bf00      	nop
10002378:	100085b0 	.word	0x100085b0
1000237c:	20002498 	.word	0x20002498
10002380:	200024be 	.word	0x200024be
10002384:	100021d9 	.word	0x100021d9
10002388:	20002464 	.word	0x20002464
1000238c:	10001f8d 	.word	0x10001f8d
10002390:	20000e6c 	.word	0x20000e6c
10002394:	10001ffd 	.word	0x10001ffd

10002398 <tud_descriptor_device_cb>:
10002398:	4800      	ldr	r0, [pc, #0]	@ (1000239c <tud_descriptor_device_cb+0x4>)
1000239a:	4770      	bx	lr
1000239c:	10008528 	.word	0x10008528

100023a0 <tud_descriptor_configuration_cb>:
100023a0:	4800      	ldr	r0, [pc, #0]	@ (100023a4 <tud_descriptor_configuration_cb+0x4>)
100023a2:	4770      	bx	lr
100023a4:	100084d4 	.word	0x100084d4

100023a8 <tud_descriptor_string_cb>:
100023a8:	b538      	push	{r3, r4, r5, lr}
100023aa:	4b18      	ldr	r3, [pc, #96]	@ (1000240c <tud_descriptor_string_cb+0x64>)
100023ac:	4604      	mov	r4, r0
100023ae:	781a      	ldrb	r2, [r3, #0]
100023b0:	b30a      	cbz	r2, 100023f6 <tud_descriptor_string_cb+0x4e>
100023b2:	b944      	cbnz	r4, 100023c6 <tud_descriptor_string_cb+0x1e>
100023b4:	f240 4209 	movw	r2, #1033	@ 0x409
100023b8:	f44f 7341 	mov.w	r3, #772	@ 0x304
100023bc:	4d14      	ldr	r5, [pc, #80]	@ (10002410 <tud_descriptor_string_cb+0x68>)
100023be:	806a      	strh	r2, [r5, #2]
100023c0:	4813      	ldr	r0, [pc, #76]	@ (10002410 <tud_descriptor_string_cb+0x68>)
100023c2:	802b      	strh	r3, [r5, #0]
100023c4:	bd38      	pop	{r3, r4, r5, pc}
100023c6:	2c05      	cmp	r4, #5
100023c8:	d81a      	bhi.n	10002400 <tud_descriptor_string_cb+0x58>
100023ca:	4b12      	ldr	r3, [pc, #72]	@ (10002414 <tud_descriptor_string_cb+0x6c>)
100023cc:	4d10      	ldr	r5, [pc, #64]	@ (10002410 <tud_descriptor_string_cb+0x68>)
100023ce:	f853 1024 	ldr.w	r1, [r3, r4, lsl #2]
100023d2:	4628      	mov	r0, r5
100023d4:	2300      	movs	r3, #0
100023d6:	3901      	subs	r1, #1
100023d8:	e003      	b.n	100023e2 <tud_descriptor_string_cb+0x3a>
100023da:	2b13      	cmp	r3, #19
100023dc:	f820 2f02 	strh.w	r2, [r0, #2]!
100023e0:	d010      	beq.n	10002404 <tud_descriptor_string_cb+0x5c>
100023e2:	f811 2f01 	ldrb.w	r2, [r1, #1]!
100023e6:	3301      	adds	r3, #1
100023e8:	b2db      	uxtb	r3, r3
100023ea:	2a00      	cmp	r2, #0
100023ec:	d1f5      	bne.n	100023da <tud_descriptor_string_cb+0x32>
100023ee:	005b      	lsls	r3, r3, #1
100023f0:	f443 7340 	orr.w	r3, r3, #768	@ 0x300
100023f4:	e7e4      	b.n	100023c0 <tud_descriptor_string_cb+0x18>
100023f6:	2111      	movs	r1, #17
100023f8:	4618      	mov	r0, r3
100023fa:	f000 f825 	bl	10002448 <pico_get_unique_board_id_string>
100023fe:	e7d8      	b.n	100023b2 <tud_descriptor_string_cb+0xa>
10002400:	2000      	movs	r0, #0
10002402:	bd38      	pop	{r3, r4, r5, pc}
10002404:	f44f 734a 	mov.w	r3, #808	@ 0x328
10002408:	e7da      	b.n	100023c0 <tud_descriptor_string_cb+0x18>
1000240a:	bf00      	nop
1000240c:	200024a8 	.word	0x200024a8
10002410:	20002020 	.word	0x20002020
10002414:	100084bc 	.word	0x100084bc

10002418 <_retrieve_unique_id_on_boot>:
10002418:	b500      	push	{lr}
1000241a:	f245 3047 	movw	r0, #21319	@ 0x5347
1000241e:	b08b      	sub	sp, #44	@ 0x2c
10002420:	f7ff f952 	bl	100016c8 <rom_func_lookup>
10002424:	2201      	movs	r2, #1
10002426:	4603      	mov	r3, r0
10002428:	2109      	movs	r1, #9
1000242a:	a801      	add	r0, sp, #4
1000242c:	4798      	blx	r3
1000242e:	e9dd 3203 	ldrd	r3, r2, [sp, #12]
10002432:	4904      	ldr	r1, [pc, #16]	@ (10002444 <_retrieve_unique_id_on_boot+0x2c>)
10002434:	ba12      	rev	r2, r2
10002436:	ba1b      	rev	r3, r3
10002438:	e9c1 2300 	strd	r2, r3, [r1]
1000243c:	b00b      	add	sp, #44	@ 0x2c
1000243e:	f85d fb04 	ldr.w	pc, [sp], #4
10002442:	bf00      	nop
10002444:	2000248c 	.word	0x2000248c

10002448 <pico_get_unique_board_id_string>:
10002448:	2901      	cmp	r1, #1
1000244a:	f101 33ff 	add.w	r3, r1, #4294967295	@ 0xffffffff
1000244e:	f000 80b3 	beq.w	100025b8 <pico_get_unique_board_id_string+0x170>
10002452:	495d      	ldr	r1, [pc, #372]	@ (100025c8 <pico_get_unique_board_id_string+0x180>)
10002454:	780a      	ldrb	r2, [r1, #0]
10002456:	ea4f 1c12 	mov.w	ip, r2, lsr #4
1000245a:	2a9f      	cmp	r2, #159	@ 0x9f
1000245c:	bf8c      	ite	hi
1000245e:	f10c 0c37 	addhi.w	ip, ip, #55	@ 0x37
10002462:	f10c 0c30 	addls.w	ip, ip, #48	@ 0x30
10002466:	2b01      	cmp	r3, #1
10002468:	f880 c000 	strb.w	ip, [r0]
1000246c:	f000 80a7 	beq.w	100025be <pico_get_unique_board_id_string+0x176>
10002470:	f002 020f 	and.w	r2, r2, #15
10002474:	2a09      	cmp	r2, #9
10002476:	bf8c      	ite	hi
10002478:	3237      	addhi	r2, #55	@ 0x37
1000247a:	3230      	addls	r2, #48	@ 0x30
1000247c:	2b02      	cmp	r3, #2
1000247e:	7042      	strb	r2, [r0, #1]
10002480:	f000 809d 	beq.w	100025be <pico_get_unique_board_id_string+0x176>
10002484:	784a      	ldrb	r2, [r1, #1]
10002486:	ea4f 1c12 	mov.w	ip, r2, lsr #4
1000248a:	2a9f      	cmp	r2, #159	@ 0x9f
1000248c:	bf8c      	ite	hi
1000248e:	f10c 0c37 	addhi.w	ip, ip, #55	@ 0x37
10002492:	f10c 0c30 	addls.w	ip, ip, #48	@ 0x30
10002496:	2b03      	cmp	r3, #3
10002498:	f880 c002 	strb.w	ip, [r0, #2]
1000249c:	f000 808f 	beq.w	100025be <pico_get_unique_board_id_string+0x176>
100024a0:	f002 020f 	and.w	r2, r2, #15
100024a4:	2a09      	cmp	r2, #9
100024a6:	bf8c      	ite	hi
100024a8:	3237      	addhi	r2, #55	@ 0x37
100024aa:	3230      	addls	r2, #48	@ 0x30
100024ac:	2b04      	cmp	r3, #4
100024ae:	70c2      	strb	r2, [r0, #3]
100024b0:	f000 8085 	beq.w	100025be <pico_get_unique_board_id_string+0x176>
100024b4:	788a      	ldrb	r2, [r1, #2]
100024b6:	ea4f 1c12 	mov.w	ip, r2, lsr #4
100024ba:	2a9f      	cmp	r2, #159	@ 0x9f
100024bc:	bf8c      	ite	hi
100024be:	f10c 0c37 	addhi.w	ip, ip, #55	@ 0x37
100024c2:	f10c 0c30 	addls.w	ip, ip, #48	@ 0x30
100024c6:	2b05      	cmp	r3, #5
100024c8:	f880 c004 	strb.w	ip, [r0, #4]
100024cc:	d077      	beq.n	100025be <pico_get_unique_board_id_string+0x176>
100024ce:	f002 020f 	and.w	r2, r2, #15
100024d2:	2a09      	cmp	r2, #9
100024d4:	bf8c      	ite	hi
100024d6:	3237      	addhi	r2, #55	@ 0x37
100024d8:	3230      	addls	r2, #48	@ 0x30
100024da:	2b06      	cmp	r3, #6
100024dc:	7142      	strb	r2, [r0, #5]
100024de:	d06e      	beq.n	100025be <pico_get_unique_board_id_string+0x176>
100024e0:	78ca      	ldrb	r2, [r1, #3]
100024e2:	ea4f 1c12 	mov.w	ip, r2, lsr #4
100024e6:	2a9f      	cmp	r2, #159	@ 0x9f
100024e8:	bf8c      	ite	hi
100024ea:	f10c 0c37 	addhi.w	ip, ip, #55	@ 0x37
100024ee:	f10c 0c30 	addls.w	ip, ip, #48	@ 0x30
100024f2:	2b07      	cmp	r3, #7
100024f4:	f880 c006 	strb.w	ip, [r0, #6]
100024f8:	d061      	beq.n	100025be <pico_get_unique_board_id_string+0x176>
100024fa:	f002 020f 	and.w	r2, r2, #15
100024fe:	2a09      	cmp	r2, #9
10002500:	bf8c      	ite	hi
10002502:	3237      	addhi	r2, #55	@ 0x37
10002504:	3230      	addls	r2, #48	@ 0x30
10002506:	2b08      	cmp	r3, #8
10002508:	71c2      	strb	r2, [r0, #7]
1000250a:	d058      	beq.n	100025be <pico_get_unique_board_id_string+0x176>
1000250c:	790a      	ldrb	r2, [r1, #4]
1000250e:	ea4f 1c12 	mov.w	ip, r2, lsr #4
10002512:	2a9f      	cmp	r2, #159	@ 0x9f
10002514:	bf8c      	ite	hi
10002516:	f10c 0c37 	addhi.w	ip, ip, #55	@ 0x37
1000251a:	f10c 0c30 	addls.w	ip, ip, #48	@ 0x30
1000251e:	2b09      	cmp	r3, #9
10002520:	f880 c008 	strb.w	ip, [r0, #8]
10002524:	d04b      	beq.n	100025be <pico_get_unique_board_id_string+0x176>
10002526:	f002 020f 	and.w	r2, r2, #15
1000252a:	2a09      	cmp	r2, #9
1000252c:	bf8c      	ite	hi
1000252e:	3237      	addhi	r2, #55	@ 0x37
10002530:	3230      	addls	r2, #48	@ 0x30
10002532:	2b0a      	cmp	r3, #10
10002534:	7242      	strb	r2, [r0, #9]
10002536:	d042      	beq.n	100025be <pico_get_unique_board_id_string+0x176>
10002538:	794a      	ldrb	r2, [r1, #5]
1000253a:	ea4f 1c12 	mov.w	ip, r2, lsr #4
1000253e:	2a9f      	cmp	r2, #159	@ 0x9f
10002540:	bf8c      	ite	hi
10002542:	f10c 0c37 	addhi.w	ip, ip, #55	@ 0x37
10002546:	f10c 0c30 	addls.w	ip, ip, #48	@ 0x30
1000254a:	2b0b      	cmp	r3, #11
1000254c:	f880 c00a 	strb.w	ip, [r0, #10]
10002550:	d035      	beq.n	100025be <pico_get_unique_board_id_string+0x176>
10002552:	f002 020f 	and.w	r2, r2, #15
10002556:	2a09      	cmp	r2, #9
10002558:	bf8c      	ite	hi
1000255a:	3237      	addhi	r2, #55	@ 0x37
1000255c:	3230      	addls	r2, #48	@ 0x30
1000255e:	2b0c      	cmp	r3, #12
10002560:	72c2      	strb	r2, [r0, #11]
10002562:	d02c      	beq.n	100025be <pico_get_unique_board_id_string+0x176>
10002564:	798a      	ldrb	r2, [r1, #6]
10002566:	ea4f 1c12 	mov.w	ip, r2, lsr #4
1000256a:	2a9f      	cmp	r2, #159	@ 0x9f
1000256c:	bf8c      	ite	hi
1000256e:	f10c 0c37 	addhi.w	ip, ip, #55	@ 0x37
10002572:	f10c 0c30 	addls.w	ip, ip, #48	@ 0x30
10002576:	2b0d      	cmp	r3, #13
10002578:	f880 c00c 	strb.w	ip, [r0, #12]
1000257c:	d01f      	beq.n	100025be <pico_get_unique_board_id_string+0x176>
1000257e:	f002 020f 	and.w	r2, r2, #15
10002582:	2a09      	cmp	r2, #9
10002584:	bf8c      	ite	hi
10002586:	3237      	addhi	r2, #55	@ 0x37
10002588:	3230      	addls	r2, #48	@ 0x30
1000258a:	2b0e      	cmp	r3, #14
1000258c:	7342      	strb	r2, [r0, #13]
1000258e:	d016      	beq.n	100025be <pico_get_unique_board_id_string+0x176>
10002590:	79ca      	ldrb	r2, [r1, #7]
10002592:	0911      	lsrs	r1, r2, #4
10002594:	2a9f      	cmp	r2, #159	@ 0x9f
10002596:	bf8c      	ite	hi
10002598:	3137      	addhi	r1, #55	@ 0x37
1000259a:	3130      	addls	r1, #48	@ 0x30
1000259c:	2b0f      	cmp	r3, #15
1000259e:	7381      	strb	r1, [r0, #14]
100025a0:	d00d      	beq.n	100025be <pico_get_unique_board_id_string+0x176>
100025a2:	f002 020f 	and.w	r2, r2, #15
100025a6:	2a09      	cmp	r2, #9
100025a8:	bf94      	ite	ls
100025aa:	3230      	addls	r2, #48	@ 0x30
100025ac:	3237      	addhi	r2, #55	@ 0x37
100025ae:	2b10      	cmp	r3, #16
100025b0:	73c2      	strb	r2, [r0, #15]
100025b2:	bf18      	it	ne
100025b4:	3010      	addne	r0, #16
100025b6:	d002      	beq.n	100025be <pico_get_unique_board_id_string+0x176>
100025b8:	2300      	movs	r3, #0
100025ba:	7003      	strb	r3, [r0, #0]
100025bc:	4770      	bx	lr
100025be:	4418      	add	r0, r3
100025c0:	2300      	movs	r3, #0
100025c2:	7003      	strb	r3, [r0, #0]
100025c4:	4770      	bx	lr
100025c6:	bf00      	nop
100025c8:	2000248c 	.word	0x2000248c

100025cc <dcd_init>:
100025cc:	b570      	push	{r4, r5, r6, lr}
100025ce:	f000 f933 	bl	10002838 <rp2040_usb_init>
100025d2:	230c      	movs	r3, #12
100025d4:	2640      	movs	r6, #64	@ 0x40
100025d6:	4c1b      	ldr	r4, [pc, #108]	@ (10002644 <dcd_init+0x78>)
100025d8:	22ff      	movs	r2, #255	@ 0xff
100025da:	67a3      	str	r3, [r4, #120]	@ 0x78
100025dc:	200e      	movs	r0, #14
100025de:	491a      	ldr	r1, [pc, #104]	@ (10002648 <dcd_init+0x7c>)
100025e0:	f7fe f832 	bl	10000648 <irq_add_shared_handler>
100025e4:	4b19      	ldr	r3, [pc, #100]	@ (1000264c <dcd_init+0x80>)
100025e6:	4632      	mov	r2, r6
100025e8:	2100      	movs	r1, #0
100025ea:	4618      	mov	r0, r3
100025ec:	f004 fff0 	bl	100075d0 <memset>
100025f0:	4603      	mov	r3, r0
100025f2:	2100      	movs	r1, #0
100025f4:	2501      	movs	r5, #1
100025f6:	2080      	movs	r0, #128	@ 0x80
100025f8:	4a15      	ldr	r2, [pc, #84]	@ (10002650 <dcd_init+0x84>)
100025fa:	8458      	strh	r0, [r3, #34]	@ 0x22
100025fc:	609a      	str	r2, [r3, #8]
100025fe:	3a84      	subs	r2, #132	@ 0x84
10002600:	705d      	strb	r5, [r3, #1]
10002602:	831e      	strh	r6, [r3, #24]
10002604:	871e      	strh	r6, [r3, #56]	@ 0x38
10002606:	6059      	str	r1, [r3, #4]
10002608:	f8c2 1084 	str.w	r1, [r2, #132]	@ 0x84
1000260c:	f8c2 1080 	str.w	r1, [r2, #128]	@ 0x80
10002610:	f502 7280 	add.w	r2, r2, #256	@ 0x100
10002614:	60da      	str	r2, [r3, #12]
10002616:	62da      	str	r2, [r3, #44]	@ 0x2c
10002618:	3a80      	subs	r2, #128	@ 0x80
1000261a:	f883 1021 	strb.w	r1, [r3, #33]	@ 0x21
1000261e:	f883 103b 	strb.w	r1, [r3, #59]	@ 0x3b
10002622:	6259      	str	r1, [r3, #36]	@ 0x24
10002624:	629a      	str	r2, [r3, #40]	@ 0x28
10002626:	f04f 5600 	mov.w	r6, #536870912	@ 0x20000000
1000262a:	f005 fd6d 	bl	10008108 <__reset_non_control_endpoints_veneer>
1000262e:	f44f 3280 	mov.w	r2, #65536	@ 0x10000
10002632:	4908      	ldr	r1, [pc, #32]	@ (10002654 <dcd_init+0x88>)
10002634:	4b08      	ldr	r3, [pc, #32]	@ (10002658 <dcd_init+0x8c>)
10002636:	6425      	str	r5, [r4, #64]	@ 0x40
10002638:	4628      	mov	r0, r5
1000263a:	64e6      	str	r6, [r4, #76]	@ 0x4c
1000263c:	f8c4 1090 	str.w	r1, [r4, #144]	@ 0x90
10002640:	64da      	str	r2, [r3, #76]	@ 0x4c
10002642:	bd70      	pop	{r4, r5, r6, pc}
10002644:	50110000 	.word	0x50110000
10002648:	200003a9 	.word	0x200003a9
1000264c:	20002058 	.word	0x20002058
10002650:	50100084 	.word	0x50100084
10002654:	0001d010 	.word	0x0001d010
10002658:	50112000 	.word	0x50112000

1000265c <dcd_int_enable>:
1000265c:	2101      	movs	r1, #1
1000265e:	200e      	movs	r0, #14
10002660:	f7fd bf80 	b.w	10000564 <irq_set_enabled>

10002664 <dcd_set_address>:
10002664:	2200      	movs	r2, #0
10002666:	4802      	ldr	r0, [pc, #8]	@ (10002670 <dcd_set_address+0xc>)
10002668:	4611      	mov	r1, r2
1000266a:	f000 b905 	b.w	10002878 <hw_endpoint_xfer_start>
1000266e:	bf00      	nop
10002670:	20002078 	.word	0x20002078

10002674 <dcd_sof_enable>:
10002674:	4b04      	ldr	r3, [pc, #16]	@ (10002688 <dcd_sof_enable+0x14>)
10002676:	7019      	strb	r1, [r3, #0]
10002678:	b121      	cbz	r1, 10002684 <dcd_sof_enable+0x10>
1000267a:	f44f 3200 	mov.w	r2, #131072	@ 0x20000
1000267e:	4b03      	ldr	r3, [pc, #12]	@ (1000268c <dcd_sof_enable+0x18>)
10002680:	f8c3 2090 	str.w	r2, [r3, #144]	@ 0x90
10002684:	4770      	bx	lr
10002686:	bf00      	nop
10002688:	200024ba 	.word	0x200024ba
1000268c:	50112000 	.word	0x50112000

10002690 <dcd_edpt0_status_complete>:
10002690:	780b      	ldrb	r3, [r1, #0]
10002692:	065b      	lsls	r3, r3, #25
10002694:	d102      	bne.n	1000269c <dcd_edpt0_status_complete+0xc>
10002696:	784b      	ldrb	r3, [r1, #1]
10002698:	2b05      	cmp	r3, #5
1000269a:	d000      	beq.n	1000269e <dcd_edpt0_status_complete+0xe>
1000269c:	4770      	bx	lr
1000269e:	884b      	ldrh	r3, [r1, #2]
100026a0:	4a01      	ldr	r2, [pc, #4]	@ (100026a8 <dcd_edpt0_status_complete+0x18>)
100026a2:	b2db      	uxtb	r3, r3
100026a4:	6013      	str	r3, [r2, #0]
100026a6:	4770      	bx	lr
100026a8:	50110000 	.word	0x50110000

100026ac <dcd_edpt_open>:
100026ac:	78cb      	ldrb	r3, [r1, #3]
100026ae:	e92d 41f0 	stmdb	sp!, {r4, r5, r6, r7, r8, lr}
100026b2:	f003 0e03 	and.w	lr, r3, #3
100026b6:	f1be 0f01 	cmp.w	lr, #1
100026ba:	f3c3 0001 	ubfx	r0, r3, #0, #2
100026be:	d05d      	beq.n	1000277c <dcd_edpt_open+0xd0>
100026c0:	2700      	movs	r7, #0
100026c2:	f891 c002 	ldrb.w	ip, [r1, #2]
100026c6:	4c35      	ldr	r4, [pc, #212]	@ (1000279c <dcd_edpt_open+0xf0>)
100026c8:	f00c 037f 	and.w	r3, ip, #127	@ 0x7f
100026cc:	005e      	lsls	r6, r3, #1
100026ce:	8889      	ldrh	r1, [r1, #4]
100026d0:	eb06 12dc 	add.w	r2, r6, ip, lsr #7
100026d4:	eb04 1242 	add.w	r2, r4, r2, lsl #5
100026d8:	ea4f 15dc 	mov.w	r5, ip, lsr #7
100026dc:	76d0      	strb	r0, [r2, #27]
100026de:	f3c1 010a 	ubfx	r1, r1, #0, #11
100026e2:	f085 0001 	eor.w	r0, r5, #1
100026e6:	7050      	strb	r0, [r2, #1]
100026e8:	f882 c002 	strb.w	ip, [r2, #2]
100026ec:	8311      	strh	r1, [r2, #24]
100026ee:	70d7      	strb	r7, [r2, #3]
100026f0:	b218      	sxth	r0, r3
100026f2:	00da      	lsls	r2, r3, #3
100026f4:	bb8d      	cbnz	r5, 1000275a <dcd_edpt_open+0xae>
100026f6:	482a      	ldr	r0, [pc, #168]	@ (100027a0 <dcd_edpt_open+0xf4>)
100026f8:	3204      	adds	r2, #4
100026fa:	eb04 1c83 	add.w	ip, r4, r3, lsl #6
100026fe:	eb02 0800 	add.w	r8, r2, r0
10002702:	f8cc 8008 	str.w	r8, [ip, #8]
10002706:	5017      	str	r7, [r2, r0]
10002708:	b38b      	cbz	r3, 1000276e <dcd_edpt_open+0xc2>
1000270a:	4a26      	ldr	r2, [pc, #152]	@ (100027a4 <dcd_edpt_open+0xf8>)
1000270c:	00db      	lsls	r3, r3, #3
1000270e:	441a      	add	r2, r3
10002710:	f8cc 2004 	str.w	r2, [ip, #4]
10002714:	4b24      	ldr	r3, [pc, #144]	@ (100027a8 <dcd_edpt_open+0xfc>)
10002716:	313f      	adds	r1, #63	@ 0x3f
10002718:	681a      	ldr	r2, [r3, #0]
1000271a:	f021 013f 	bic.w	r1, r1, #63	@ 0x3f
1000271e:	f1be 0f02 	cmp.w	lr, #2
10002722:	bf08      	it	eq
10002724:	0049      	lsleq	r1, r1, #1
10002726:	4411      	add	r1, r2
10002728:	6019      	str	r1, [r3, #0]
1000272a:	4b20      	ldr	r3, [pc, #128]	@ (100027ac <dcd_edpt_open+0x100>)
1000272c:	1977      	adds	r7, r6, r5
1000272e:	eb04 1747 	add.w	r7, r4, r7, lsl #5
10002732:	4299      	cmp	r1, r3
10002734:	60fa      	str	r2, [r7, #12]
10002736:	d82c      	bhi.n	10002792 <dcd_edpt_open+0xe6>
10002738:	442e      	add	r6, r5
1000273a:	eb04 1346 	add.w	r3, r4, r6, lsl #5
1000273e:	7ed9      	ldrb	r1, [r3, #27]
10002740:	f082 42a0 	eor.w	r2, r2, #1342177280	@ 0x50000000
10002744:	f482 1280 	eor.w	r2, r2, #1048576	@ 0x100000
10002748:	685b      	ldr	r3, [r3, #4]
1000274a:	ea42 6281 	orr.w	r2, r2, r1, lsl #26
1000274e:	f042 4200 	orr.w	r2, r2, #2147483648	@ 0x80000000
10002752:	601a      	str	r2, [r3, #0]
10002754:	2001      	movs	r0, #1
10002756:	e8bd 81f0 	ldmia.w	sp!, {r4, r5, r6, r7, r8, pc}
1000275a:	f8df c044 	ldr.w	ip, [pc, #68]	@ 100027a0 <dcd_edpt_open+0xf4>
1000275e:	eb04 1883 	add.w	r8, r4, r3, lsl #6
10002762:	4462      	add	r2, ip
10002764:	f8c8 2028 	str.w	r2, [r8, #40]	@ 0x28
10002768:	f84c 7030 	str.w	r7, [ip, r0, lsl #3]
1000276c:	b94b      	cbnz	r3, 10002782 <dcd_edpt_open+0xd6>
1000276e:	2200      	movs	r2, #0
10002770:	490f      	ldr	r1, [pc, #60]	@ (100027b0 <dcd_edpt_open+0x104>)
10002772:	eb04 1345 	add.w	r3, r4, r5, lsl #5
10002776:	60d9      	str	r1, [r3, #12]
10002778:	605a      	str	r2, [r3, #4]
1000277a:	e7eb      	b.n	10002754 <dcd_edpt_open+0xa8>
1000277c:	2000      	movs	r0, #0
1000277e:	e8bd 81f0 	ldmia.w	sp!, {r4, r5, r6, r7, r8, pc}
10002782:	00db      	lsls	r3, r3, #3
10002784:	f103 43a0 	add.w	r3, r3, #1342177280	@ 0x50000000
10002788:	f503 1380 	add.w	r3, r3, #1048576	@ 0x100000
1000278c:	f8c8 3024 	str.w	r3, [r8, #36]	@ 0x24
10002790:	e7c0      	b.n	10002714 <dcd_edpt_open+0x68>
10002792:	f7fe ffe5 	bl	10001760 <hard_assertion_failure>
10002796:	68fa      	ldr	r2, [r7, #12]
10002798:	e7ce      	b.n	10002738 <dcd_edpt_open+0x8c>
1000279a:	bf00      	nop
1000279c:	20002058 	.word	0x20002058
100027a0:	50100080 	.word	0x50100080
100027a4:	50100004 	.word	0x50100004
100027a8:	20002460 	.word	0x20002460
100027ac:	50100fff 	.word	0x50100fff
100027b0:	50100100 	.word	0x50100100

100027b4 <dcd_edpt_close_all>:
100027b4:	f005 bca8 	b.w	10008108 <__reset_non_control_endpoints_veneer>

100027b8 <dcd_edpt_xfer>:
100027b8:	468c      	mov	ip, r1
100027ba:	b508      	push	{r3, lr}
100027bc:	4611      	mov	r1, r2
100027be:	4807      	ldr	r0, [pc, #28]	@ (100027dc <dcd_edpt_xfer+0x24>)
100027c0:	461a      	mov	r2, r3
100027c2:	f00c 037f 	and.w	r3, ip, #127	@ 0x7f
100027c6:	ea4f 1cdc 	mov.w	ip, ip, lsr #7
100027ca:	eb0c 0c43 	add.w	ip, ip, r3, lsl #1
100027ce:	eb00 104c 	add.w	r0, r0, ip, lsl #5
100027d2:	f000 f851 	bl	10002878 <hw_endpoint_xfer_start>
100027d6:	2001      	movs	r0, #1
100027d8:	bd08      	pop	{r3, pc}
100027da:	bf00      	nop
100027dc:	20002058 	.word	0x20002058

100027e0 <dcd_edpt_stall>:
100027e0:	09cb      	lsrs	r3, r1, #7
100027e2:	f011 017f 	ands.w	r1, r1, #127	@ 0x7f
100027e6:	d103      	bne.n	100027f0 <dcd_edpt_stall+0x10>
100027e8:	4a06      	ldr	r2, [pc, #24]	@ (10002804 <dcd_edpt_stall+0x24>)
100027ea:	f1c3 0002 	rsb	r0, r3, #2
100027ee:	6690      	str	r0, [r2, #104]	@ 0x68
100027f0:	4805      	ldr	r0, [pc, #20]	@ (10002808 <dcd_edpt_stall+0x28>)
100027f2:	eb03 0341 	add.w	r3, r3, r1, lsl #1
100027f6:	f44f 6200 	mov.w	r2, #2048	@ 0x800
100027fa:	2100      	movs	r1, #0
100027fc:	eb00 1043 	add.w	r0, r0, r3, lsl #5
10002800:	f005 bc7a 	b.w	100080f8 <___hw_endpoint_buffer_control_update32_veneer>
10002804:	50112000 	.word	0x50112000
10002808:	20002058 	.word	0x20002058

1000280c <dcd_edpt_clear_stall>:
1000280c:	f011 037f 	ands.w	r3, r1, #127	@ 0x7f
10002810:	d100      	bne.n	10002814 <dcd_edpt_clear_stall+0x8>
10002812:	4770      	bx	lr
10002814:	2200      	movs	r2, #0
10002816:	b410      	push	{r4}
10002818:	09c8      	lsrs	r0, r1, #7
1000281a:	4c06      	ldr	r4, [pc, #24]	@ (10002834 <dcd_edpt_clear_stall+0x28>)
1000281c:	eb00 0043 	add.w	r0, r0, r3, lsl #1
10002820:	eb04 1340 	add.w	r3, r4, r0, lsl #5
10002824:	f46f 6100 	mvn.w	r1, #2048	@ 0x800
10002828:	4618      	mov	r0, r3
1000282a:	f85d 4b04 	ldr.w	r4, [sp], #4
1000282e:	70da      	strb	r2, [r3, #3]
10002830:	f005 bc62 	b.w	100080f8 <___hw_endpoint_buffer_control_update32_veneer>
10002834:	20002058 	.word	0x20002058

10002838 <rp2040_usb_init>:
10002838:	f04f 5280 	mov.w	r2, #268435456	@ 0x10000000
1000283c:	4809      	ldr	r0, [pc, #36]	@ (10002864 <rp2040_usb_init+0x2c>)
1000283e:	490a      	ldr	r1, [pc, #40]	@ (10002868 <rp2040_usb_init+0x30>)
10002840:	b508      	push	{r3, lr}
10002842:	4b0a      	ldr	r3, [pc, #40]	@ (1000286c <rp2040_usb_init+0x34>)
10002844:	6002      	str	r2, [r0, #0]
10002846:	600a      	str	r2, [r1, #0]
10002848:	6899      	ldr	r1, [r3, #8]
1000284a:	43c9      	mvns	r1, r1
1000284c:	f011 5180 	ands.w	r1, r1, #268435456	@ 0x10000000
10002850:	d1fa      	bne.n	10002848 <rp2040_usb_init+0x10>
10002852:	f44f 5280 	mov.w	r2, #4096	@ 0x1000
10002856:	4806      	ldr	r0, [pc, #24]	@ (10002870 <rp2040_usb_init+0x38>)
10002858:	f004 feba 	bl	100075d0 <memset>
1000285c:	2209      	movs	r2, #9
1000285e:	4b05      	ldr	r3, [pc, #20]	@ (10002874 <rp2040_usb_init+0x3c>)
10002860:	675a      	str	r2, [r3, #116]	@ 0x74
10002862:	bd08      	pop	{r3, pc}
10002864:	40022000 	.word	0x40022000
10002868:	40023000 	.word	0x40023000
1000286c:	40020000 	.word	0x40020000
10002870:	50100000 	.word	0x50100000
10002874:	50110000 	.word	0x50110000

10002878 <hw_endpoint_xfer_start>:
10002878:	2300      	movs	r3, #0
1000287a:	f04f 0c01 	mov.w	ip, #1
1000287e:	b510      	push	{r4, lr}
10002880:	f880 c01a 	strb.w	ip, [r0, #26]
10002884:	8282      	strh	r2, [r0, #20]
10002886:	82c3      	strh	r3, [r0, #22]
10002888:	6101      	str	r1, [r0, #16]
1000288a:	4604      	mov	r4, r0
1000288c:	f005 fc40 	bl	10008110 <__e15_is_bulkin_ep_veneer>
10002890:	b120      	cbz	r0, 1000289c <hw_endpoint_xfer_start+0x24>
10002892:	f44f 3200 	mov.w	r2, #131072	@ 0x20000
10002896:	4b07      	ldr	r3, [pc, #28]	@ (100028b4 <hw_endpoint_xfer_start+0x3c>)
10002898:	f8c3 2090 	str.w	r2, [r3, #144]	@ 0x90
1000289c:	4620      	mov	r0, r4
1000289e:	f005 fc27 	bl	100080f0 <__e15_is_critical_frame_period_veneer>
100028a2:	b110      	cbz	r0, 100028aa <hw_endpoint_xfer_start+0x32>
100028a4:	2301      	movs	r3, #1
100028a6:	7723      	strb	r3, [r4, #28]
100028a8:	bd10      	pop	{r4, pc}
100028aa:	4620      	mov	r0, r4
100028ac:	e8bd 4010 	ldmia.w	sp!, {r4, lr}
100028b0:	f005 bc16 	b.w	100080e0 <__hw_endpoint_start_next_buffer_veneer>
100028b4:	50112000 	.word	0x50112000

100028b8 <configuration_reset>:
100028b8:	e92d 41f0 	stmdb	sp!, {r4, r5, r6, r7, r8, lr}
100028bc:	2400      	movs	r4, #0
100028be:	4e1d      	ldr	r6, [pc, #116]	@ (10002934 <configuration_reset+0x7c>)
100028c0:	4605      	mov	r5, r0
100028c2:	4623      	mov	r3, r4
100028c4:	7832      	ldrb	r2, [r6, #0]
100028c6:	f8df 8078 	ldr.w	r8, [pc, #120]	@ 10002940 <configuration_reset+0x88>
100028ca:	4f1b      	ldr	r7, [pc, #108]	@ (10002938 <configuration_reset+0x80>)
100028cc:	e00d      	b.n	100028ea <configuration_reset+0x32>
100028ce:	683b      	ldr	r3, [r7, #0]
100028d0:	eb13 1344 	adds.w	r3, r3, r4, lsl #5
100028d4:	d025      	beq.n	10002922 <configuration_reset+0x6a>
100028d6:	68db      	ldr	r3, [r3, #12]
100028d8:	4628      	mov	r0, r5
100028da:	4798      	blx	r3
100028dc:	7832      	ldrb	r2, [r6, #0]
100028de:	3401      	adds	r4, #1
100028e0:	b2e4      	uxtb	r4, r4
100028e2:	1c51      	adds	r1, r2, #1
100028e4:	42a1      	cmp	r1, r4
100028e6:	4623      	mov	r3, r4
100028e8:	db06      	blt.n	100028f8 <configuration_reset+0x40>
100028ea:	42a2      	cmp	r2, r4
100028ec:	eba3 0302 	sub.w	r3, r3, r2
100028f0:	d8ed      	bhi.n	100028ce <configuration_reset+0x16>
100028f2:	eb08 1343 	add.w	r3, r8, r3, lsl #5
100028f6:	e7ee      	b.n	100028d6 <configuration_reset+0x1e>
100028f8:	4c10      	ldr	r4, [pc, #64]	@ (1000293c <configuration_reset+0x84>)
100028fa:	2254      	movs	r2, #84	@ 0x54
100028fc:	2100      	movs	r1, #0
100028fe:	4620      	mov	r0, r4
10002900:	f004 fe66 	bl	100075d0 <memset>
10002904:	f04f 33ff 	mov.w	r3, #4294967295	@ 0xffffffff
10002908:	1d25      	adds	r5, r4, #4
1000290a:	6063      	str	r3, [r4, #4]
1000290c:	e9c5 3301 	strd	r3, r3, [r5, #4]
10002910:	60eb      	str	r3, [r5, #12]
10002912:	f104 0014 	add.w	r0, r4, #20
10002916:	2220      	movs	r2, #32
10002918:	e8bd 41f0 	ldmia.w	sp!, {r4, r5, r6, r7, r8, lr}
1000291c:	21ff      	movs	r1, #255	@ 0xff
1000291e:	f004 be57 	b.w	100075d0 <memset>
10002922:	f04f 23e0 	mov.w	r3, #3758153728	@ 0xe000e000
10002926:	f8d3 3df0 	ldr.w	r3, [r3, #3568]	@ 0xdf0
1000292a:	07db      	lsls	r3, r3, #31
1000292c:	d500      	bpl.n	10002930 <configuration_reset+0x78>
1000292e:	be00      	bkpt	0x0000
10002930:	e8bd 81f0 	ldmia.w	sp!, {r4, r5, r6, r7, r8, pc}
10002934:	200024b9 	.word	0x200024b9
10002938:	20001af4 	.word	0x20001af4
1000293c:	20001bf8 	.word	0x20001bf8
10002940:	1000853c 	.word	0x1000853c

10002944 <tud_event_hook_cb>:
10002944:	4770      	bx	lr
10002946:	bf00      	nop

10002948 <tud_sof_cb>:
10002948:	4770      	bx	lr
1000294a:	bf00      	nop

1000294c <tud_descriptor_device_qualifier_cb>:
1000294c:	2000      	movs	r0, #0
1000294e:	4770      	bx	lr

10002950 <tud_descriptor_other_speed_configuration_cb>:
10002950:	2000      	movs	r0, #0
10002952:	4770      	bx	lr

10002954 <tud_mount_cb>:
10002954:	4770      	bx	lr
10002956:	bf00      	nop

10002958 <tud_umount_cb>:
10002958:	4770      	bx	lr
1000295a:	bf00      	nop

1000295c <tud_suspend_cb>:
1000295c:	4770      	bx	lr
1000295e:	bf00      	nop

10002960 <tud_resume_cb>:
10002960:	4770      	bx	lr
10002962:	bf00      	nop

10002964 <tud_mounted>:
10002964:	4b02      	ldr	r3, [pc, #8]	@ (10002970 <tud_mounted+0xc>)
10002966:	7858      	ldrb	r0, [r3, #1]
10002968:	3800      	subs	r0, #0
1000296a:	bf18      	it	ne
1000296c:	2001      	movne	r0, #1
1000296e:	4770      	bx	lr
10002970:	20001bf8 	.word	0x20001bf8

10002974 <tud_suspended>:
10002974:	4b02      	ldr	r3, [pc, #8]	@ (10002980 <tud_suspended+0xc>)
10002976:	7818      	ldrb	r0, [r3, #0]
10002978:	f3c0 0080 	ubfx	r0, r0, #2, #1
1000297c:	4770      	bx	lr
1000297e:	bf00      	nop
10002980:	20001bf8 	.word	0x20001bf8

10002984 <tud_rhport_init>:
10002984:	e92d 47f0 	stmdb	sp!, {r4, r5, r6, r7, r8, r9, sl, lr}
10002988:	f8df a0e8 	ldr.w	sl, [pc, #232]	@ 10002a74 <tud_rhport_init+0xf0>
1000298c:	f89a 3000 	ldrb.w	r3, [sl]
10002990:	2bff      	cmp	r3, #255	@ 0xff
10002992:	d002      	beq.n	1000299a <tud_rhport_init+0x16>
10002994:	2001      	movs	r0, #1
10002996:	e8bd 87f0 	ldmia.w	sp!, {r4, r5, r6, r7, r8, r9, sl, pc}
1000299a:	460e      	mov	r6, r1
1000299c:	2900      	cmp	r1, #0
1000299e:	d03e      	beq.n	10002a1e <tud_rhport_init+0x9a>
100029a0:	2100      	movs	r1, #0
100029a2:	2254      	movs	r2, #84	@ 0x54
100029a4:	4607      	mov	r7, r0
100029a6:	4829      	ldr	r0, [pc, #164]	@ (10002a4c <tud_rhport_init+0xc8>)
100029a8:	f004 fe12 	bl	100075d0 <memset>
100029ac:	2200      	movs	r2, #0
100029ae:	4c28      	ldr	r4, [pc, #160]	@ (10002a50 <tud_rhport_init+0xcc>)
100029b0:	4b28      	ldr	r3, [pc, #160]	@ (10002a54 <tud_rhport_init+0xd0>)
100029b2:	4620      	mov	r0, r4
100029b4:	701a      	strb	r2, [r3, #0]
100029b6:	f7fe f8d7 	bl	10000b68 <mutex_init>
100029ba:	4b27      	ldr	r3, [pc, #156]	@ (10002a58 <tud_rhport_init+0xd4>)
100029bc:	4827      	ldr	r0, [pc, #156]	@ (10002a5c <tud_rhport_init+0xd8>)
100029be:	601c      	str	r4, [r3, #0]
100029c0:	4c27      	ldr	r4, [pc, #156]	@ (10002a60 <tud_rhport_init+0xdc>)
100029c2:	f7fe f8df 	bl	10000b84 <critical_section_init>
100029c6:	4620      	mov	r0, r4
100029c8:	f001 fdd2 	bl	10004570 <tu_fifo_clear>
100029cc:	4a25      	ldr	r2, [pc, #148]	@ (10002a64 <tud_rhport_init+0xe0>)
100029ce:	4b26      	ldr	r3, [pc, #152]	@ (10002a68 <tud_rhport_init+0xe4>)
100029d0:	4d26      	ldr	r5, [pc, #152]	@ (10002a6c <tud_rhport_init+0xe8>)
100029d2:	6014      	str	r4, [r2, #0]
100029d4:	b363      	cbz	r3, 10002a30 <tud_rhport_init+0xac>
100029d6:	4628      	mov	r0, r5
100029d8:	f7ff faba 	bl	10001f50 <usbd_app_driver_get_cb>
100029dc:	4b24      	ldr	r3, [pc, #144]	@ (10002a70 <tud_rhport_init+0xec>)
100029de:	782a      	ldrb	r2, [r5, #0]
100029e0:	6018      	str	r0, [r3, #0]
100029e2:	2400      	movs	r4, #0
100029e4:	f8df 9090 	ldr.w	r9, [pc, #144]	@ 10002a78 <tud_rhport_init+0xf4>
100029e8:	4623      	mov	r3, r4
100029ea:	f8df 8084 	ldr.w	r8, [pc, #132]	@ 10002a70 <tud_rhport_init+0xec>
100029ee:	e00e      	b.n	10002a0e <tud_rhport_init+0x8a>
100029f0:	f8d8 3000 	ldr.w	r3, [r8]
100029f4:	eb13 1344 	adds.w	r3, r3, r4, lsl #5
100029f8:	d011      	beq.n	10002a1e <tud_rhport_init+0x9a>
100029fa:	685b      	ldr	r3, [r3, #4]
100029fc:	b17b      	cbz	r3, 10002a1e <tud_rhport_init+0x9a>
100029fe:	4798      	blx	r3
10002a00:	782a      	ldrb	r2, [r5, #0]
10002a02:	3401      	adds	r4, #1
10002a04:	b2e4      	uxtb	r4, r4
10002a06:	1c51      	adds	r1, r2, #1
10002a08:	42a1      	cmp	r1, r4
10002a0a:	4623      	mov	r3, r4
10002a0c:	db12      	blt.n	10002a34 <tud_rhport_init+0xb0>
10002a0e:	42a2      	cmp	r2, r4
10002a10:	d8ee      	bhi.n	100029f0 <tud_rhport_init+0x6c>
10002a12:	1a9b      	subs	r3, r3, r2
10002a14:	eb09 1343 	add.w	r3, r9, r3, lsl #5
10002a18:	685b      	ldr	r3, [r3, #4]
10002a1a:	2b00      	cmp	r3, #0
10002a1c:	d1ef      	bne.n	100029fe <tud_rhport_init+0x7a>
10002a1e:	f04f 23e0 	mov.w	r3, #3758153728	@ 0xe000e000
10002a22:	f8d3 3df0 	ldr.w	r3, [r3, #3568]	@ 0xdf0
10002a26:	07db      	lsls	r3, r3, #31
10002a28:	d500      	bpl.n	10002a2c <tud_rhport_init+0xa8>
10002a2a:	be00      	bkpt	0x0000
10002a2c:	2000      	movs	r0, #0
10002a2e:	e7b2      	b.n	10002996 <tud_rhport_init+0x12>
10002a30:	782a      	ldrb	r2, [r5, #0]
10002a32:	e7d6      	b.n	100029e2 <tud_rhport_init+0x5e>
10002a34:	4631      	mov	r1, r6
10002a36:	4638      	mov	r0, r7
10002a38:	f88a 7000 	strb.w	r7, [sl]
10002a3c:	f7ff fdc6 	bl	100025cc <dcd_init>
10002a40:	2800      	cmp	r0, #0
10002a42:	d0ec      	beq.n	10002a1e <tud_rhport_init+0x9a>
10002a44:	4638      	mov	r0, r7
10002a46:	f7ff fe09 	bl	1000265c <dcd_int_enable>
10002a4a:	e7a3      	b.n	10002994 <tud_rhport_init+0x10>
10002a4c:	20001bf8 	.word	0x20001bf8
10002a50:	20001bf0 	.word	0x20001bf0
10002a54:	200024bb 	.word	0x200024bb
10002a58:	20001c4c 	.word	0x20001c4c
10002a5c:	20000e98 	.word	0x20000e98
10002a60:	20000e84 	.word	0x20000e84
10002a64:	20001c50 	.word	0x20001c50
10002a68:	10001f51 	.word	0x10001f51
10002a6c:	200024b9 	.word	0x200024b9
10002a70:	20001af4 	.word	0x20001af4
10002a74:	20000ea0 	.word	0x20000ea0
10002a78:	1000853c 	.word	0x1000853c

10002a7c <tud_task_ext>:
10002a7c:	e92d 4ff0 	stmdb	sp!, {r4, r5, r6, r7, r8, r9, sl, fp, lr}
10002a80:	f8df 92c8 	ldr.w	r9, [pc, #712]	@ 10002d4c <tud_task_ext+0x2d0>
10002a84:	b08b      	sub	sp, #44	@ 0x2c
10002a86:	f899 3000 	ldrb.w	r3, [r9]
10002a8a:	2bff      	cmp	r3, #255	@ 0xff
10002a8c:	f000 80f1 	beq.w	10002c72 <tud_task_ext+0x1f6>
10002a90:	4ca8      	ldr	r4, [pc, #672]	@ (10002d34 <tud_task_ext+0x2b8>)
10002a92:	4da9      	ldr	r5, [pc, #676]	@ (10002d38 <tud_task_ext+0x2bc>)
10002a94:	f8df a2b0 	ldr.w	sl, [pc, #688]	@ 10002d48 <tud_task_ext+0x2cc>
10002a98:	f8df b2b4 	ldr.w	fp, [pc, #692]	@ 10002d50 <tud_task_ext+0x2d4>
10002a9c:	6826      	ldr	r6, [r4, #0]
10002a9e:	6973      	ldr	r3, [r6, #20]
10002aa0:	f3ef 8210 	mrs	r2, PRIMASK
10002aa4:	b672      	cpsid	i
10002aa6:	e8d3 0fcf 	ldaexb	r0, [r3]
10002aaa:	2101      	movs	r1, #1
10002aac:	2800      	cmp	r0, #0
10002aae:	d1fa      	bne.n	10002aa6 <tud_task_ext+0x2a>
10002ab0:	e8c3 1f40 	strexb	r0, r1, [r3]
10002ab4:	2800      	cmp	r0, #0
10002ab6:	d1f6      	bne.n	10002aa6 <tud_task_ext+0x2a>
10002ab8:	f3bf 8f5f 	dmb	sy
10002abc:	61b2      	str	r2, [r6, #24]
10002abe:	4630      	mov	r0, r6
10002ac0:	a907      	add	r1, sp, #28
10002ac2:	f001 fba3 	bl	1000420c <tu_fifo_read>
10002ac6:	2300      	movs	r3, #0
10002ac8:	6972      	ldr	r2, [r6, #20]
10002aca:	e8c2 3f8f 	stlb	r3, [r2]
10002ace:	69b3      	ldr	r3, [r6, #24]
10002ad0:	f383 8810 	msr	PRIMASK, r3
10002ad4:	2800      	cmp	r0, #0
10002ad6:	f000 80cc 	beq.w	10002c72 <tud_task_ext+0x1f6>
10002ada:	f89d 301d 	ldrb.w	r3, [sp, #29]
10002ade:	3b01      	subs	r3, #1
10002ae0:	2b07      	cmp	r3, #7
10002ae2:	f200 837d 	bhi.w	100031e0 <tud_task_ext+0x764>
10002ae6:	e8df f003 	tbb	[pc, r3]
10002aea:	b1a7      	.short	0xb1a7
10002aec:	358e9d95 	.word	0x358e9d95
10002af0:	040a      	.short	0x040a
10002af2:	9b08      	ldr	r3, [sp, #32]
10002af4:	2b00      	cmp	r3, #0
10002af6:	d0d1      	beq.n	10002a9c <tud_task_ext+0x20>
10002af8:	9809      	ldr	r0, [sp, #36]	@ 0x24
10002afa:	4798      	blx	r3
10002afc:	e7ce      	b.n	10002a9c <tud_task_ext+0x20>
10002afe:	f89d 1020 	ldrb.w	r1, [sp, #32]
10002b02:	f001 067f 	and.w	r6, r1, #127	@ 0x7f
10002b06:	eb05 0046 	add.w	r0, r5, r6, lsl #1
10002b0a:	eb00 10d1 	add.w	r0, r0, r1, lsr #7
10002b0e:	f890 3034 	ldrb.w	r3, [r0, #52]	@ 0x34
10002b12:	f023 0301 	bic.w	r3, r3, #1
10002b16:	f880 3034 	strb.w	r3, [r0, #52]	@ 0x34
10002b1a:	f890 3034 	ldrb.w	r3, [r0, #52]	@ 0x34
10002b1e:	f023 0304 	bic.w	r3, r3, #4
10002b22:	f880 3034 	strb.w	r3, [r0, #52]	@ 0x34
10002b26:	2e00      	cmp	r6, #0
10002b28:	f000 80a6 	beq.w	10002c78 <tud_task_ext+0x1fc>
10002b2c:	7d03      	ldrb	r3, [r0, #20]
10002b2e:	f89a 2000 	ldrb.w	r2, [sl]
10002b32:	4293      	cmp	r3, r2
10002b34:	f080 8093 	bcs.w	10002c5e <tud_task_ext+0x1e2>
10002b38:	4a80      	ldr	r2, [pc, #512]	@ (10002d3c <tud_task_ext+0x2c0>)
10002b3a:	6812      	ldr	r2, [r2, #0]
10002b3c:	eb12 1343 	adds.w	r3, r2, r3, lsl #5
10002b40:	f000 8090 	beq.w	10002c64 <tud_task_ext+0x1e8>
10002b44:	699e      	ldr	r6, [r3, #24]
10002b46:	f89d 2021 	ldrb.w	r2, [sp, #33]	@ 0x21
10002b4a:	9b09      	ldr	r3, [sp, #36]	@ 0x24
10002b4c:	f89d 001c 	ldrb.w	r0, [sp, #28]
10002b50:	47b0      	blx	r6
10002b52:	e7a3      	b.n	10002a9c <tud_task_ext+0x20>
10002b54:	f89b 3000 	ldrb.w	r3, [fp]
10002b58:	2b00      	cmp	r3, #0
10002b5a:	f000 8083 	beq.w	10002c64 <tud_task_ext+0x1e8>
10002b5e:	f89b 3000 	ldrb.w	r3, [fp]
10002b62:	3b01      	subs	r3, #1
10002b64:	b2db      	uxtb	r3, r3
10002b66:	f88b 3000 	strb.w	r3, [fp]
10002b6a:	f89b 3000 	ldrb.w	r3, [fp]
10002b6e:	f003 00ff 	and.w	r0, r3, #255	@ 0xff
10002b72:	2b00      	cmp	r3, #0
10002b74:	d192      	bne.n	10002a9c <tud_task_ext+0x20>
10002b76:	4f70      	ldr	r7, [pc, #448]	@ (10002d38 <tud_task_ext+0x2bc>)
10002b78:	f89d 801c 	ldrb.w	r8, [sp, #28]
10002b7c:	783b      	ldrb	r3, [r7, #0]
10002b7e:	f043 0301 	orr.w	r3, r3, #1
10002b82:	703b      	strb	r3, [r7, #0]
10002b84:	f897 3034 	ldrb.w	r3, [r7, #52]	@ 0x34
10002b88:	f360 0300 	bfi	r3, r0, #0, #1
10002b8c:	f887 3034 	strb.w	r3, [r7, #52]	@ 0x34
10002b90:	f897 3034 	ldrb.w	r3, [r7, #52]	@ 0x34
10002b94:	f360 0382 	bfi	r3, r0, #2, #1
10002b98:	f887 3034 	strb.w	r3, [r7, #52]	@ 0x34
10002b9c:	f897 3035 	ldrb.w	r3, [r7, #53]	@ 0x35
10002ba0:	f360 0300 	bfi	r3, r0, #0, #1
10002ba4:	f887 3035 	strb.w	r3, [r7, #53]	@ 0x35
10002ba8:	f897 3035 	ldrb.w	r3, [r7, #53]	@ 0x35
10002bac:	f360 0382 	bfi	r3, r0, #2, #1
10002bb0:	f887 3035 	strb.w	r3, [r7, #53]	@ 0x35
10002bb4:	f000 fc68 	bl	10003488 <usbd_control_set_complete_callback>
10002bb8:	f89d 3020 	ldrb.w	r3, [sp, #32]
10002bbc:	f003 0260 	and.w	r2, r3, #96	@ 0x60
10002bc0:	2a60      	cmp	r2, #96	@ 0x60
10002bc2:	d06c      	beq.n	10002c9e <tud_task_ext+0x222>
10002bc4:	2a40      	cmp	r2, #64	@ 0x40
10002bc6:	d07c      	beq.n	10002cc2 <tud_task_ext+0x246>
10002bc8:	f003 031f 	and.w	r3, r3, #31
10002bcc:	2b01      	cmp	r3, #1
10002bce:	f000 80c1 	beq.w	10002d54 <tud_task_ext+0x2d8>
10002bd2:	2b02      	cmp	r3, #2
10002bd4:	f000 8081 	beq.w	10002cda <tud_task_ext+0x25e>
10002bd8:	2b00      	cmp	r3, #0
10002bda:	d160      	bne.n	10002c9e <tud_task_ext+0x222>
10002bdc:	2a20      	cmp	r2, #32
10002bde:	f000 81e9 	beq.w	10002fb4 <tud_task_ext+0x538>
10002be2:	2a00      	cmp	r2, #0
10002be4:	d15b      	bne.n	10002c9e <tud_task_ext+0x222>
10002be6:	f89d 3021 	ldrb.w	r3, [sp, #33]	@ 0x21
10002bea:	2b09      	cmp	r3, #9
10002bec:	d857      	bhi.n	10002c9e <tud_task_ext+0x222>
10002bee:	e8df f013 	tbh	[pc, r3, lsl #1]
10002bf2:	01b0      	.short	0x01b0
10002bf4:	005601a2 	.word	0x005601a2
10002bf8:	005601c1 	.word	0x005601c1
10002bfc:	016b0195 	.word	0x016b0195
10002c00:	01600056 	.word	0x01600056
10002c04:	00f4      	.short	0x00f4
10002c06:	782b      	ldrb	r3, [r5, #0]
10002c08:	07d9      	lsls	r1, r3, #31
10002c0a:	f57f af47 	bpl.w	10002a9c <tud_task_ext+0x20>
10002c0e:	f7ff fea7 	bl	10002960 <tud_resume_cb>
10002c12:	e743      	b.n	10002a9c <tud_task_ext+0x20>
10002c14:	78eb      	ldrb	r3, [r5, #3]
10002c16:	07da      	lsls	r2, r3, #31
10002c18:	f57f af40 	bpl.w	10002a9c <tud_task_ext+0x20>
10002c1c:	9808      	ldr	r0, [sp, #32]
10002c1e:	f7ff fe93 	bl	10002948 <tud_sof_cb>
10002c22:	e73b      	b.n	10002a9c <tud_task_ext+0x20>
10002c24:	782b      	ldrb	r3, [r5, #0]
10002c26:	07d8      	lsls	r0, r3, #31
10002c28:	f57f af38 	bpl.w	10002a9c <tud_task_ext+0x20>
10002c2c:	7828      	ldrb	r0, [r5, #0]
10002c2e:	f3c0 00c0 	ubfx	r0, r0, #3, #1
10002c32:	f7ff fe93 	bl	1000295c <tud_suspend_cb>
10002c36:	e731      	b.n	10002a9c <tud_task_ext+0x20>
10002c38:	f89d 001c 	ldrb.w	r0, [sp, #28]
10002c3c:	f7ff fe3c 	bl	100028b8 <configuration_reset>
10002c40:	f000 fc18 	bl	10003474 <usbd_control_reset>
10002c44:	f89d 3020 	ldrb.w	r3, [sp, #32]
10002c48:	70ab      	strb	r3, [r5, #2]
10002c4a:	e727      	b.n	10002a9c <tud_task_ext+0x20>
10002c4c:	f89d 001c 	ldrb.w	r0, [sp, #28]
10002c50:	f7ff fe32 	bl	100028b8 <configuration_reset>
10002c54:	f000 fc0e 	bl	10003474 <usbd_control_reset>
10002c58:	f7ff fe7e 	bl	10002958 <tud_umount_cb>
10002c5c:	e71e      	b.n	10002a9c <tud_task_ext+0x20>
10002c5e:	1c50      	adds	r0, r2, #1
10002c60:	4298      	cmp	r0, r3
10002c62:	da11      	bge.n	10002c88 <tud_task_ext+0x20c>
10002c64:	f04f 23e0 	mov.w	r3, #3758153728	@ 0xe000e000
10002c68:	f8d3 3df0 	ldr.w	r3, [r3, #3568]	@ 0xdf0
10002c6c:	07dc      	lsls	r4, r3, #31
10002c6e:	d500      	bpl.n	10002c72 <tud_task_ext+0x1f6>
10002c70:	be00      	bkpt	0x0000
10002c72:	b00b      	add	sp, #44	@ 0x2c
10002c74:	e8bd 8ff0 	ldmia.w	sp!, {r4, r5, r6, r7, r8, r9, sl, fp, pc}
10002c78:	9b09      	ldr	r3, [sp, #36]	@ 0x24
10002c7a:	f89d 2021 	ldrb.w	r2, [sp, #33]	@ 0x21
10002c7e:	f89d 001c 	ldrb.w	r0, [sp, #28]
10002c82:	f000 fc15 	bl	100034b0 <usbd_control_xfer_cb>
10002c86:	e709      	b.n	10002a9c <tud_task_ext+0x20>
10002c88:	1a9b      	subs	r3, r3, r2
10002c8a:	4a2d      	ldr	r2, [pc, #180]	@ (10002d40 <tud_task_ext+0x2c4>)
10002c8c:	eb02 1343 	add.w	r3, r2, r3, lsl #5
10002c90:	e758      	b.n	10002b44 <tud_task_ext+0xc8>
10002c92:	f7ff fb85 	bl	100023a0 <tud_descriptor_configuration_cb>
10002c96:	4602      	mov	r2, r0
10002c98:	2800      	cmp	r0, #0
10002c9a:	f040 8182 	bne.w	10002fa2 <tud_task_ext+0x526>
10002c9e:	f04f 23e0 	mov.w	r3, #3758153728	@ 0xe000e000
10002ca2:	f8d3 3df0 	ldr.w	r3, [r3, #3568]	@ 0xdf0
10002ca6:	07de      	lsls	r6, r3, #31
10002ca8:	d500      	bpl.n	10002cac <tud_task_ext+0x230>
10002caa:	be00      	bkpt	0x0000
10002cac:	f89d 001c 	ldrb.w	r0, [sp, #28]
10002cb0:	2100      	movs	r1, #0
10002cb2:	f7ff fd95 	bl	100027e0 <dcd_edpt_stall>
10002cb6:	2180      	movs	r1, #128	@ 0x80
10002cb8:	f89d 001c 	ldrb.w	r0, [sp, #28]
10002cbc:	f7ff fd90 	bl	100027e0 <dcd_edpt_stall>
10002cc0:	e6ec      	b.n	10002a9c <tud_task_ext+0x20>
10002cc2:	4820      	ldr	r0, [pc, #128]	@ (10002d44 <tud_task_ext+0x2c8>)
10002cc4:	f000 fbe0 	bl	10003488 <usbd_control_set_complete_callback>
10002cc8:	2101      	movs	r1, #1
10002cca:	4640      	mov	r0, r8
10002ccc:	aa08      	add	r2, sp, #32
10002cce:	f7ff f92b 	bl	10001f28 <tud_vendor_control_xfer_cb>
10002cd2:	2800      	cmp	r0, #0
10002cd4:	f47f aee2 	bne.w	10002a9c <tud_task_ext+0x20>
10002cd8:	e7e8      	b.n	10002cac <tud_task_ext+0x230>
10002cda:	f89d 1024 	ldrb.w	r1, [sp, #36]	@ 0x24
10002cde:	f011 0f70 	tst.w	r1, #112	@ 0x70
10002ce2:	d1dc      	bne.n	10002c9e <tud_task_ext+0x222>
10002ce4:	f001 067f 	and.w	r6, r1, #127	@ 0x7f
10002ce8:	eb07 0046 	add.w	r0, r7, r6, lsl #1
10002cec:	4b16      	ldr	r3, [pc, #88]	@ (10002d48 <tud_task_ext+0x2cc>)
10002cee:	eb00 10d1 	add.w	r0, r0, r1, lsr #7
10002cf2:	781b      	ldrb	r3, [r3, #0]
10002cf4:	7d00      	ldrb	r0, [r0, #20]
10002cf6:	0076      	lsls	r6, r6, #1
10002cf8:	9601      	str	r6, [sp, #4]
10002cfa:	4298      	cmp	r0, r3
10002cfc:	ea4f 16d1 	mov.w	r6, r1, lsr #7
10002d00:	9600      	str	r6, [sp, #0]
10002d02:	d359      	bcc.n	10002db8 <tud_task_ext+0x33c>
10002d04:	1c5e      	adds	r6, r3, #1
10002d06:	4286      	cmp	r6, r0
10002d08:	f2c0 8166 	blt.w	10002fd8 <tud_task_ext+0x55c>
10002d0c:	1ac0      	subs	r0, r0, r3
10002d0e:	4b0c      	ldr	r3, [pc, #48]	@ (10002d40 <tud_task_ext+0x2c4>)
10002d10:	eb03 1640 	add.w	r6, r3, r0, lsl #5
10002d14:	2a00      	cmp	r2, #0
10002d16:	f000 8163 	beq.w	10002fe0 <tud_task_ext+0x564>
10002d1a:	6970      	ldr	r0, [r6, #20]
10002d1c:	f000 fbb4 	bl	10003488 <usbd_control_set_complete_callback>
10002d20:	2101      	movs	r1, #1
10002d22:	4640      	mov	r0, r8
10002d24:	6973      	ldr	r3, [r6, #20]
10002d26:	aa08      	add	r2, sp, #32
10002d28:	4798      	blx	r3
10002d2a:	2800      	cmp	r0, #0
10002d2c:	f47f aeb6 	bne.w	10002a9c <tud_task_ext+0x20>
10002d30:	e7bc      	b.n	10002cac <tud_task_ext+0x230>
10002d32:	bf00      	nop
10002d34:	20001c50 	.word	0x20001c50
10002d38:	20001bf8 	.word	0x20001bf8
10002d3c:	20001af4 	.word	0x20001af4
10002d40:	1000853c 	.word	0x1000853c
10002d44:	10001f29 	.word	0x10001f29
10002d48:	200024b9 	.word	0x200024b9
10002d4c:	20000ea0 	.word	0x20000ea0
10002d50:	200024bb 	.word	0x200024bb
10002d54:	f89d 3024 	ldrb.w	r3, [sp, #36]	@ 0x24
10002d58:	2b0f      	cmp	r3, #15
10002d5a:	d8a7      	bhi.n	10002cac <tud_task_ext+0x230>
10002d5c:	4aae      	ldr	r2, [pc, #696]	@ (10003018 <tud_task_ext+0x59c>)
10002d5e:	443b      	add	r3, r7
10002d60:	791b      	ldrb	r3, [r3, #4]
10002d62:	7812      	ldrb	r2, [r2, #0]
10002d64:	4293      	cmp	r3, r2
10002d66:	d332      	bcc.n	10002dce <tud_task_ext+0x352>
10002d68:	1c51      	adds	r1, r2, #1
10002d6a:	4299      	cmp	r1, r3
10002d6c:	db9e      	blt.n	10002cac <tud_task_ext+0x230>
10002d6e:	4eab      	ldr	r6, [pc, #684]	@ (1000301c <tud_task_ext+0x5a0>)
10002d70:	1a9b      	subs	r3, r3, r2
10002d72:	eb06 1643 	add.w	r6, r6, r3, lsl #5
10002d76:	6970      	ldr	r0, [r6, #20]
10002d78:	f000 fb86 	bl	10003488 <usbd_control_set_complete_callback>
10002d7c:	2101      	movs	r1, #1
10002d7e:	4640      	mov	r0, r8
10002d80:	6973      	ldr	r3, [r6, #20]
10002d82:	aa08      	add	r2, sp, #32
10002d84:	4798      	blx	r3
10002d86:	2800      	cmp	r0, #0
10002d88:	f47f ae88 	bne.w	10002a9c <tud_task_ext+0x20>
10002d8c:	f89d 3020 	ldrb.w	r3, [sp, #32]
10002d90:	f013 0660 	ands.w	r6, r3, #96	@ 0x60
10002d94:	d18a      	bne.n	10002cac <tud_task_ext+0x230>
10002d96:	f89d 3021 	ldrb.w	r3, [sp, #33]	@ 0x21
10002d9a:	3b0a      	subs	r3, #10
10002d9c:	2b01      	cmp	r3, #1
10002d9e:	d885      	bhi.n	10002cac <tud_task_ext+0x230>
10002da0:	f000 fb72 	bl	10003488 <usbd_control_set_complete_callback>
10002da4:	f89d 3021 	ldrb.w	r3, [sp, #33]	@ 0x21
10002da8:	2b0a      	cmp	r3, #10
10002daa:	f000 81f2 	beq.w	10003192 <tud_task_ext+0x716>
10002dae:	4640      	mov	r0, r8
10002db0:	a908      	add	r1, sp, #32
10002db2:	f000 faef 	bl	10003394 <tud_control_status>
10002db6:	e671      	b.n	10002a9c <tud_task_ext+0x20>
10002db8:	4b99      	ldr	r3, [pc, #612]	@ (10003020 <tud_task_ext+0x5a4>)
10002dba:	681b      	ldr	r3, [r3, #0]
10002dbc:	eb03 1640 	add.w	r6, r3, r0, lsl #5
10002dc0:	2a00      	cmp	r2, #0
10002dc2:	f000 810d 	beq.w	10002fe0 <tud_task_ext+0x564>
10002dc6:	2e00      	cmp	r6, #0
10002dc8:	f43f af70 	beq.w	10002cac <tud_task_ext+0x230>
10002dcc:	e7a5      	b.n	10002d1a <tud_task_ext+0x29e>
10002dce:	4a94      	ldr	r2, [pc, #592]	@ (10003020 <tud_task_ext+0x5a4>)
10002dd0:	6816      	ldr	r6, [r2, #0]
10002dd2:	eb16 1643 	adds.w	r6, r6, r3, lsl #5
10002dd6:	d1ce      	bne.n	10002d76 <tud_task_ext+0x2fa>
10002dd8:	e768      	b.n	10002cac <tud_task_ext+0x230>
10002dda:	787b      	ldrb	r3, [r7, #1]
10002ddc:	f89d 6022 	ldrb.w	r6, [sp, #34]	@ 0x22
10002de0:	429e      	cmp	r6, r3
10002de2:	f000 814f 	beq.w	10003084 <tud_task_ext+0x608>
10002de6:	787b      	ldrb	r3, [r7, #1]
10002de8:	2b00      	cmp	r3, #0
10002dea:	f040 81be 	bne.w	1000316a <tud_task_ext+0x6ee>
10002dee:	707e      	strb	r6, [r7, #1]
10002df0:	2e00      	cmp	r6, #0
10002df2:	f000 8145 	beq.w	10003080 <tud_task_ext+0x604>
10002df6:	1e70      	subs	r0, r6, #1
10002df8:	b2c0      	uxtb	r0, r0
10002dfa:	f7ff fad1 	bl	100023a0 <tud_descriptor_configuration_cb>
10002dfe:	4603      	mov	r3, r0
10002e00:	2800      	cmp	r0, #0
10002e02:	f000 815f 	beq.w	100030c4 <tud_task_ext+0x648>
10002e06:	7842      	ldrb	r2, [r0, #1]
10002e08:	2a02      	cmp	r2, #2
10002e0a:	f040 815b 	bne.w	100030c4 <tud_task_ext+0x648>
10002e0e:	79c1      	ldrb	r1, [r0, #7]
10002e10:	f103 0609 	add.w	r6, r3, #9
10002e14:	f3c1 1240 	ubfx	r2, r1, #5, #1
10002e18:	0112      	lsls	r2, r2, #4
10002e1a:	f3c1 1180 	ubfx	r1, r1, #6, #1
10002e1e:	ea42 1241 	orr.w	r2, r2, r1, lsl #5
10002e22:	4631      	mov	r1, r6
10002e24:	7838      	ldrb	r0, [r7, #0]
10002e26:	f020 0030 	bic.w	r0, r0, #48	@ 0x30
10002e2a:	4302      	orrs	r2, r0
10002e2c:	703a      	strb	r2, [r7, #0]
10002e2e:	885a      	ldrh	r2, [r3, #2]
10002e30:	f8cd 800c 	str.w	r8, [sp, #12]
10002e34:	189a      	adds	r2, r3, r2
10002e36:	9201      	str	r2, [sp, #4]
10002e38:	9b01      	ldr	r3, [sp, #4]
10002e3a:	428b      	cmp	r3, r1
10002e3c:	f240 81a4 	bls.w	10003188 <tud_task_ext+0x70c>
10002e40:	784a      	ldrb	r2, [r1, #1]
10002e42:	2a0b      	cmp	r2, #11
10002e44:	f000 81af 	beq.w	100031a6 <tud_task_ext+0x72a>
10002e48:	2301      	movs	r3, #1
10002e4a:	2a04      	cmp	r2, #4
10002e4c:	f040 813a 	bne.w	100030c4 <tud_task_ext+0x648>
10002e50:	2600      	movs	r6, #0
10002e52:	9a01      	ldr	r2, [sp, #4]
10002e54:	9600      	str	r6, [sp, #0]
10002e56:	1a52      	subs	r2, r2, r1
10002e58:	b292      	uxth	r2, r2
10002e5a:	9202      	str	r2, [sp, #8]
10002e5c:	4a6e      	ldr	r2, [pc, #440]	@ (10003018 <tud_task_ext+0x59c>)
10002e5e:	9304      	str	r3, [sp, #16]
10002e60:	7812      	ldrb	r2, [r2, #0]
10002e62:	e01d      	b.n	10002ea0 <tud_task_ext+0x424>
10002e64:	4b6e      	ldr	r3, [pc, #440]	@ (10003020 <tud_task_ext+0x5a4>)
10002e66:	681b      	ldr	r3, [r3, #0]
10002e68:	eb13 1846 	adds.w	r8, r3, r6, lsl #5
10002e6c:	f000 812a 	beq.w	100030c4 <tud_task_ext+0x648>
10002e70:	9a02      	ldr	r2, [sp, #8]
10002e72:	f8d8 3010 	ldr.w	r3, [r8, #16]
10002e76:	9803      	ldr	r0, [sp, #12]
10002e78:	9105      	str	r1, [sp, #20]
10002e7a:	4798      	blx	r3
10002e7c:	2808      	cmp	r0, #8
10002e7e:	4602      	mov	r2, r0
10002e80:	9905      	ldr	r1, [sp, #20]
10002e82:	f106 0301 	add.w	r3, r6, #1
10002e86:	d903      	bls.n	10002e90 <tud_task_ext+0x414>
10002e88:	9802      	ldr	r0, [sp, #8]
10002e8a:	4290      	cmp	r0, r2
10002e8c:	f080 80ff 	bcs.w	1000308e <tud_task_ext+0x612>
10002e90:	b2de      	uxtb	r6, r3
10002e92:	4b61      	ldr	r3, [pc, #388]	@ (10003018 <tud_task_ext+0x59c>)
10002e94:	9600      	str	r6, [sp, #0]
10002e96:	781a      	ldrb	r2, [r3, #0]
10002e98:	1c53      	adds	r3, r2, #1
10002e9a:	429e      	cmp	r6, r3
10002e9c:	f300 8112 	bgt.w	100030c4 <tud_task_ext+0x648>
10002ea0:	9b00      	ldr	r3, [sp, #0]
10002ea2:	42b2      	cmp	r2, r6
10002ea4:	eba3 0202 	sub.w	r2, r3, r2
10002ea8:	d8dc      	bhi.n	10002e64 <tud_task_ext+0x3e8>
10002eaa:	4b5c      	ldr	r3, [pc, #368]	@ (1000301c <tud_task_ext+0x5a0>)
10002eac:	eb03 1842 	add.w	r8, r3, r2, lsl #5
10002eb0:	e7de      	b.n	10002e70 <tud_task_ext+0x3f4>
10002eb2:	787b      	ldrb	r3, [r7, #1]
10002eb4:	4640      	mov	r0, r8
10002eb6:	f88d 301a 	strb.w	r3, [sp, #26]
10002eba:	f10d 021a 	add.w	r2, sp, #26
10002ebe:	2301      	movs	r3, #1
10002ec0:	a908      	add	r1, sp, #32
10002ec2:	f000 fa81 	bl	100033c8 <tud_control_xfer>
10002ec6:	e5e9      	b.n	10002a9c <tud_task_ext+0x20>
10002ec8:	f8bd 0022 	ldrh.w	r0, [sp, #34]	@ 0x22
10002ecc:	0a03      	lsrs	r3, r0, #8
10002ece:	3b01      	subs	r3, #1
10002ed0:	0a02      	lsrs	r2, r0, #8
10002ed2:	b2c0      	uxtb	r0, r0
10002ed4:	2b0e      	cmp	r3, #14
10002ed6:	f63f aee9 	bhi.w	10002cac <tud_task_ext+0x230>
10002eda:	a101      	add	r1, pc, #4	@ (adr r1, 10002ee0 <tud_task_ext+0x464>)
10002edc:	f851 f023 	ldr.w	pc, [r1, r3, lsl #2]
10002ee0:	100030f5 	.word	0x100030f5
10002ee4:	10002f91 	.word	0x10002f91
10002ee8:	10003131 	.word	0x10003131
10002eec:	10002cad 	.word	0x10002cad
10002ef0:	10002cad 	.word	0x10002cad
10002ef4:	10003113 	.word	0x10003113
10002ef8:	10002f91 	.word	0x10002f91
10002efc:	10002cad 	.word	0x10002cad
10002f00:	10002cad 	.word	0x10002cad
10002f04:	10002cad 	.word	0x10002cad
10002f08:	10002cad 	.word	0x10002cad
10002f0c:	10002cad 	.word	0x10002cad
10002f10:	10002cad 	.word	0x10002cad
10002f14:	10002cad 	.word	0x10002cad
10002f18:	100030e7 	.word	0x100030e7
10002f1c:	a808      	add	r0, sp, #32
10002f1e:	f000 fab9 	bl	10003494 <usbd_control_set_request>
10002f22:	4640      	mov	r0, r8
10002f24:	f89d 1022 	ldrb.w	r1, [sp, #34]	@ 0x22
10002f28:	f7ff fb9c 	bl	10002664 <dcd_set_address>
10002f2c:	783b      	ldrb	r3, [r7, #0]
10002f2e:	f043 0302 	orr.w	r3, r3, #2
10002f32:	703b      	strb	r3, [r7, #0]
10002f34:	e5b2      	b.n	10002a9c <tud_task_ext+0x20>
10002f36:	f8bd 3022 	ldrh.w	r3, [sp, #34]	@ 0x22
10002f3a:	2b01      	cmp	r3, #1
10002f3c:	f47f aeb6 	bne.w	10002cac <tud_task_ext+0x230>
10002f40:	783b      	ldrb	r3, [r7, #0]
10002f42:	4640      	mov	r0, r8
10002f44:	f023 0308 	bic.w	r3, r3, #8
10002f48:	a908      	add	r1, sp, #32
10002f4a:	703b      	strb	r3, [r7, #0]
10002f4c:	f000 fa22 	bl	10003394 <tud_control_status>
10002f50:	e5a4      	b.n	10002a9c <tud_task_ext+0x20>
10002f52:	4640      	mov	r0, r8
10002f54:	783b      	ldrb	r3, [r7, #0]
10002f56:	089a      	lsrs	r2, r3, #2
10002f58:	f002 0202 	and.w	r2, r2, #2
10002f5c:	f3c3 1340 	ubfx	r3, r3, #5, #1
10002f60:	4313      	orrs	r3, r2
10002f62:	f8ad 301a 	strh.w	r3, [sp, #26]
10002f66:	f10d 021a 	add.w	r2, sp, #26
10002f6a:	2302      	movs	r3, #2
10002f6c:	a908      	add	r1, sp, #32
10002f6e:	f000 fa2b 	bl	100033c8 <tud_control_xfer>
10002f72:	e593      	b.n	10002a9c <tud_task_ext+0x20>
10002f74:	f8bd 3022 	ldrh.w	r3, [sp, #34]	@ 0x22
10002f78:	2b01      	cmp	r3, #1
10002f7a:	f47f ae97 	bne.w	10002cac <tud_task_ext+0x230>
10002f7e:	783b      	ldrb	r3, [r7, #0]
10002f80:	4640      	mov	r0, r8
10002f82:	f043 0308 	orr.w	r3, r3, #8
10002f86:	a908      	add	r1, sp, #32
10002f88:	703b      	strb	r3, [r7, #0]
10002f8a:	f000 fa03 	bl	10003394 <tud_control_status>
10002f8e:	e585      	b.n	10002a9c <tud_task_ext+0x20>
10002f90:	2a02      	cmp	r2, #2
10002f92:	f43f ae7e 	beq.w	10002c92 <tud_task_ext+0x216>
10002f96:	f7ff fcdb 	bl	10002950 <tud_descriptor_other_speed_configuration_cb>
10002f9a:	4602      	mov	r2, r0
10002f9c:	2800      	cmp	r0, #0
10002f9e:	f43f ae85 	beq.w	10002cac <tud_task_ext+0x230>
10002fa2:	4640      	mov	r0, r8
10002fa4:	8853      	ldrh	r3, [r2, #2]
10002fa6:	a908      	add	r1, sp, #32
10002fa8:	f000 fa0e 	bl	100033c8 <tud_control_xfer>
10002fac:	2800      	cmp	r0, #0
10002fae:	f47f ad75 	bne.w	10002a9c <tud_task_ext+0x20>
10002fb2:	e67b      	b.n	10002cac <tud_task_ext+0x230>
10002fb4:	f89d 3024 	ldrb.w	r3, [sp, #36]	@ 0x24
10002fb8:	2b0f      	cmp	r3, #15
10002fba:	f63f ae77 	bhi.w	10002cac <tud_task_ext+0x230>
10002fbe:	4a16      	ldr	r2, [pc, #88]	@ (10003018 <tud_task_ext+0x59c>)
10002fc0:	443b      	add	r3, r7
10002fc2:	791b      	ldrb	r3, [r3, #4]
10002fc4:	7812      	ldrb	r2, [r2, #0]
10002fc6:	4293      	cmp	r3, r2
10002fc8:	d21d      	bcs.n	10003006 <tud_task_ext+0x58a>
10002fca:	4a15      	ldr	r2, [pc, #84]	@ (10003020 <tud_task_ext+0x5a4>)
10002fcc:	6816      	ldr	r6, [r2, #0]
10002fce:	eb16 1643 	adds.w	r6, r6, r3, lsl #5
10002fd2:	f47f aea2 	bne.w	10002d1a <tud_task_ext+0x29e>
10002fd6:	e669      	b.n	10002cac <tud_task_ext+0x230>
10002fd8:	2a00      	cmp	r2, #0
10002fda:	f47f ae67 	bne.w	10002cac <tud_task_ext+0x230>
10002fde:	2600      	movs	r6, #0
10002fe0:	f89d 2021 	ldrb.w	r2, [sp, #33]	@ 0x21
10002fe4:	f002 03fd 	and.w	r3, r2, #253	@ 0xfd
10002fe8:	2b01      	cmp	r3, #1
10002fea:	d01b      	beq.n	10003024 <tud_task_ext+0x5a8>
10002fec:	2a00      	cmp	r2, #0
10002fee:	f47f ae56 	bne.w	10002c9e <tud_task_ext+0x222>
10002ff2:	9b01      	ldr	r3, [sp, #4]
10002ff4:	9a00      	ldr	r2, [sp, #0]
10002ff6:	443b      	add	r3, r7
10002ff8:	4413      	add	r3, r2
10002ffa:	f893 3034 	ldrb.w	r3, [r3, #52]	@ 0x34
10002ffe:	4640      	mov	r0, r8
10003000:	f3c3 0340 	ubfx	r3, r3, #1, #1
10003004:	e7ad      	b.n	10002f62 <tud_task_ext+0x4e6>
10003006:	1c51      	adds	r1, r2, #1
10003008:	4299      	cmp	r1, r3
1000300a:	f6ff ae4f 	blt.w	10002cac <tud_task_ext+0x230>
1000300e:	4e03      	ldr	r6, [pc, #12]	@ (1000301c <tud_task_ext+0x5a0>)
10003010:	1a9b      	subs	r3, r3, r2
10003012:	eb06 1643 	add.w	r6, r6, r3, lsl #5
10003016:	e680      	b.n	10002d1a <tud_task_ext+0x29e>
10003018:	200024b9 	.word	0x200024b9
1000301c:	1000853c 	.word	0x1000853c
10003020:	20001af4 	.word	0x20001af4
10003024:	f8bd 3022 	ldrh.w	r3, [sp, #34]	@ 0x22
10003028:	b9b3      	cbnz	r3, 10003058 <tud_task_ext+0x5dc>
1000302a:	2a01      	cmp	r2, #1
1000302c:	f899 0000 	ldrb.w	r0, [r9]
10003030:	f000 8086 	beq.w	10003140 <tud_task_ext+0x6c4>
10003034:	f7ff fbd4 	bl	100027e0 <dcd_edpt_stall>
10003038:	9b01      	ldr	r3, [sp, #4]
1000303a:	9a00      	ldr	r2, [sp, #0]
1000303c:	443b      	add	r3, r7
1000303e:	4413      	add	r3, r2
10003040:	f893 2034 	ldrb.w	r2, [r3, #52]	@ 0x34
10003044:	f042 0202 	orr.w	r2, r2, #2
10003048:	f883 2034 	strb.w	r2, [r3, #52]	@ 0x34
1000304c:	f893 2034 	ldrb.w	r2, [r3, #52]	@ 0x34
10003050:	f042 0201 	orr.w	r2, r2, #1
10003054:	f883 2034 	strb.w	r2, [r3, #52]	@ 0x34
10003058:	2e00      	cmp	r6, #0
1000305a:	f43f ad1f 	beq.w	10002a9c <tud_task_ext+0x20>
1000305e:	6970      	ldr	r0, [r6, #20]
10003060:	f000 fa12 	bl	10003488 <usbd_control_set_complete_callback>
10003064:	6973      	ldr	r3, [r6, #20]
10003066:	2101      	movs	r1, #1
10003068:	aa08      	add	r2, sp, #32
1000306a:	4640      	mov	r0, r8
1000306c:	4798      	blx	r3
1000306e:	2000      	movs	r0, #0
10003070:	f000 fa0a 	bl	10003488 <usbd_control_set_complete_callback>
10003074:	f897 3035 	ldrb.w	r3, [r7, #53]	@ 0x35
10003078:	07df      	lsls	r7, r3, #31
1000307a:	f53f ad0f 	bmi.w	10002a9c <tud_task_ext+0x20>
1000307e:	e696      	b.n	10002dae <tud_task_ext+0x332>
10003080:	f7ff fc6a 	bl	10002958 <tud_umount_cb>
10003084:	4640      	mov	r0, r8
10003086:	a908      	add	r1, sp, #32
10003088:	f000 f984 	bl	10003394 <tud_control_status>
1000308c:	e506      	b.n	10002a9c <tud_task_ext+0x20>
1000308e:	9b04      	ldr	r3, [sp, #16]
10003090:	2b01      	cmp	r3, #1
10003092:	f000 809e 	beq.w	100031d2 <tud_task_ext+0x756>
10003096:	2b00      	cmp	r3, #0
10003098:	f000 808a 	beq.w	100031b0 <tud_task_ext+0x734>
1000309c:	2000      	movs	r0, #0
1000309e:	f891 8002 	ldrb.w	r8, [r1, #2]
100030a2:	e005      	b.n	100030b0 <tud_task_ext+0x634>
100030a4:	f88c 6004 	strb.w	r6, [ip, #4]
100030a8:	fa5f fc80 	uxtb.w	ip, r0
100030ac:	4563      	cmp	r3, ip
100030ae:	d97f      	bls.n	100031b0 <tud_task_ext+0x734>
100030b0:	eb08 0c00 	add.w	ip, r8, r0
100030b4:	fa57 fc8c 	uxtab	ip, r7, ip
100030b8:	f89c e004 	ldrb.w	lr, [ip, #4]
100030bc:	3001      	adds	r0, #1
100030be:	f1be 0fff 	cmp.w	lr, #255	@ 0xff
100030c2:	d0ef      	beq.n	100030a4 <tud_task_ext+0x628>
100030c4:	f04f 23e0 	mov.w	r3, #3758153728	@ 0xe000e000
100030c8:	f8d3 3df0 	ldr.w	r3, [r3, #3568]	@ 0xdf0
100030cc:	07da      	lsls	r2, r3, #31
100030ce:	d500      	bpl.n	100030d2 <tud_task_ext+0x656>
100030d0:	be00      	bkpt	0x0000
100030d2:	f04f 23e0 	mov.w	r3, #3758153728	@ 0xe000e000
100030d6:	f8d3 3df0 	ldr.w	r3, [r3, #3568]	@ 0xdf0
100030da:	07db      	lsls	r3, r3, #31
100030dc:	d500      	bpl.n	100030e0 <tud_task_ext+0x664>
100030de:	be00      	bkpt	0x0000
100030e0:	2300      	movs	r3, #0
100030e2:	707b      	strb	r3, [r7, #1]
100030e4:	e5e2      	b.n	10002cac <tud_task_ext+0x230>
100030e6:	f7fe ff1b 	bl	10001f20 <tud_descriptor_bos_cb>
100030ea:	4602      	mov	r2, r0
100030ec:	2800      	cmp	r0, #0
100030ee:	f47f af58 	bne.w	10002fa2 <tud_task_ext+0x526>
100030f2:	e5db      	b.n	10002cac <tud_task_ext+0x230>
100030f4:	f7ff f950 	bl	10002398 <tud_descriptor_device_cb>
100030f8:	4602      	mov	r2, r0
100030fa:	2800      	cmp	r0, #0
100030fc:	f43f adcf 	beq.w	10002c9e <tud_task_ext+0x222>
10003100:	4640      	mov	r0, r8
10003102:	2312      	movs	r3, #18
10003104:	a908      	add	r1, sp, #32
10003106:	f000 f95f 	bl	100033c8 <tud_control_xfer>
1000310a:	2800      	cmp	r0, #0
1000310c:	f47f acc6 	bne.w	10002a9c <tud_task_ext+0x20>
10003110:	e5cc      	b.n	10002cac <tud_task_ext+0x230>
10003112:	f7ff fc1b 	bl	1000294c <tud_descriptor_device_qualifier_cb>
10003116:	4602      	mov	r2, r0
10003118:	2800      	cmp	r0, #0
1000311a:	f43f adc7 	beq.w	10002cac <tud_task_ext+0x230>
1000311e:	4640      	mov	r0, r8
10003120:	7813      	ldrb	r3, [r2, #0]
10003122:	a908      	add	r1, sp, #32
10003124:	f000 f950 	bl	100033c8 <tud_control_xfer>
10003128:	2800      	cmp	r0, #0
1000312a:	f47f acb7 	bne.w	10002a9c <tud_task_ext+0x20>
1000312e:	e5bd      	b.n	10002cac <tud_task_ext+0x230>
10003130:	f8bd 1024 	ldrh.w	r1, [sp, #36]	@ 0x24
10003134:	f7ff f938 	bl	100023a8 <tud_descriptor_string_cb>
10003138:	4602      	mov	r2, r0
1000313a:	2800      	cmp	r0, #0
1000313c:	d1ef      	bne.n	1000311e <tud_task_ext+0x6a2>
1000313e:	e5b5      	b.n	10002cac <tud_task_ext+0x230>
10003140:	9302      	str	r3, [sp, #8]
10003142:	f7ff fb63 	bl	1000280c <dcd_edpt_clear_stall>
10003146:	9a01      	ldr	r2, [sp, #4]
10003148:	9b00      	ldr	r3, [sp, #0]
1000314a:	443a      	add	r2, r7
1000314c:	441a      	add	r2, r3
1000314e:	f892 1034 	ldrb.w	r1, [r2, #52]	@ 0x34
10003152:	9b02      	ldr	r3, [sp, #8]
10003154:	f363 0141 	bfi	r1, r3, #1, #1
10003158:	f882 1034 	strb.w	r1, [r2, #52]	@ 0x34
1000315c:	f892 1034 	ldrb.w	r1, [r2, #52]	@ 0x34
10003160:	f363 0100 	bfi	r1, r3, #0, #1
10003164:	f882 1034 	strb.w	r1, [r2, #52]	@ 0x34
10003168:	e776      	b.n	10003058 <tud_task_ext+0x5dc>
1000316a:	2100      	movs	r1, #0
1000316c:	4640      	mov	r0, r8
1000316e:	f7ff fa81 	bl	10002674 <dcd_sof_enable>
10003172:	4640      	mov	r0, r8
10003174:	f7ff fb1e 	bl	100027b4 <dcd_edpt_close_all>
10003178:	78bb      	ldrb	r3, [r7, #2]
1000317a:	4640      	mov	r0, r8
1000317c:	9300      	str	r3, [sp, #0]
1000317e:	f7ff fb9b 	bl	100028b8 <configuration_reset>
10003182:	9b00      	ldr	r3, [sp, #0]
10003184:	70bb      	strb	r3, [r7, #2]
10003186:	e632      	b.n	10002dee <tud_task_ext+0x372>
10003188:	f8dd 800c 	ldr.w	r8, [sp, #12]
1000318c:	f7ff fbe2 	bl	10002954 <tud_mount_cb>
10003190:	e778      	b.n	10003084 <tud_task_ext+0x608>
10003192:	4640      	mov	r0, r8
10003194:	2301      	movs	r3, #1
10003196:	a908      	add	r1, sp, #32
10003198:	f10d 021a 	add.w	r2, sp, #26
1000319c:	f88d 601a 	strb.w	r6, [sp, #26]
100031a0:	f000 f912 	bl	100033c8 <tud_control_xfer>
100031a4:	e47a      	b.n	10002a9c <tud_task_ext+0x20>
100031a6:	780a      	ldrb	r2, [r1, #0]
100031a8:	78cb      	ldrb	r3, [r1, #3]
100031aa:	4411      	add	r1, r2
100031ac:	784a      	ldrb	r2, [r1, #1]
100031ae:	e64c      	b.n	10002e4a <tud_task_ext+0x3ce>
100031b0:	4633      	mov	r3, r6
100031b2:	4810      	ldr	r0, [pc, #64]	@ (100031f4 <tud_task_ext+0x778>)
100031b4:	9204      	str	r2, [sp, #16]
100031b6:	9102      	str	r1, [sp, #8]
100031b8:	f000 fe9e 	bl	10003ef8 <tu_edpt_bind_driver>
100031bc:	4b0e      	ldr	r3, [pc, #56]	@ (100031f8 <tud_task_ext+0x77c>)
100031be:	9a04      	ldr	r2, [sp, #16]
100031c0:	9902      	ldr	r1, [sp, #8]
100031c2:	781b      	ldrb	r3, [r3, #0]
100031c4:	4411      	add	r1, r2
100031c6:	9a00      	ldr	r2, [sp, #0]
100031c8:	3301      	adds	r3, #1
100031ca:	4293      	cmp	r3, r2
100031cc:	f6bf ae34 	bge.w	10002e38 <tud_task_ext+0x3bc>
100031d0:	e778      	b.n	100030c4 <tud_task_ext+0x648>
100031d2:	f8d8 c010 	ldr.w	ip, [r8, #16]
100031d6:	4809      	ldr	r0, [pc, #36]	@ (100031fc <tud_task_ext+0x780>)
100031d8:	4584      	cmp	ip, r0
100031da:	bf08      	it	eq
100031dc:	2302      	moveq	r3, #2
100031de:	e75d      	b.n	1000309c <tud_task_ext+0x620>
100031e0:	f04f 23e0 	mov.w	r3, #3758153728	@ 0xe000e000
100031e4:	f8d3 3df0 	ldr.w	r3, [r3, #3568]	@ 0xdf0
100031e8:	07db      	lsls	r3, r3, #31
100031ea:	f57f ac57 	bpl.w	10002a9c <tud_task_ext+0x20>
100031ee:	be00      	bkpt	0x0000
100031f0:	e454      	b.n	10002a9c <tud_task_ext+0x20>
100031f2:	bf00      	nop
100031f4:	20001c0c 	.word	0x20001c0c
100031f8:	200024b9 	.word	0x200024b9
100031fc:	100038c1 	.word	0x100038c1

10003200 <usbd_open_edpt_pair>:
10003200:	e92d 4ff8 	stmdb	sp!, {r3, r4, r5, r6, r7, r8, r9, sl, fp, lr}
10003204:	f8dd 9028 	ldr.w	r9, [sp, #40]	@ 0x28
10003208:	2a00      	cmp	r2, #0
1000320a:	d03e      	beq.n	1000328a <usbd_open_edpt_pair+0x8a>
1000320c:	460c      	mov	r4, r1
1000320e:	461f      	mov	r7, r3
10003210:	4616      	mov	r6, r2
10003212:	2500      	movs	r5, #0
10003214:	f8df 8078 	ldr.w	r8, [pc, #120]	@ 10003290 <usbd_open_edpt_pair+0x90>
10003218:	f8df a078 	ldr.w	sl, [pc, #120]	@ 10003294 <usbd_open_edpt_pair+0x94>
1000321c:	e016      	b.n	1000324c <usbd_open_edpt_pair+0x4c>
1000321e:	4620      	mov	r0, r4
10003220:	f89a 1002 	ldrb.w	r1, [sl, #2]
10003224:	f000 fe18 	bl	10003e58 <tu_edpt_validate>
10003228:	b1f0      	cbz	r0, 10003268 <usbd_open_edpt_pair+0x68>
1000322a:	4621      	mov	r1, r4
1000322c:	4658      	mov	r0, fp
1000322e:	f7ff fa3d 	bl	100026ac <dcd_edpt_open>
10003232:	b300      	cbz	r0, 10003276 <usbd_open_edpt_pair+0x76>
10003234:	78a3      	ldrb	r3, [r4, #2]
10003236:	3501      	adds	r5, #1
10003238:	09da      	lsrs	r2, r3, #7
1000323a:	bf16      	itet	ne
1000323c:	9a0b      	ldrne	r2, [sp, #44]	@ 0x2c
1000323e:	f889 3000 	strbeq.w	r3, [r9]
10003242:	7013      	strbne	r3, [r2, #0]
10003244:	7823      	ldrb	r3, [r4, #0]
10003246:	42b5      	cmp	r5, r6
10003248:	441c      	add	r4, r3
1000324a:	d01e      	beq.n	1000328a <usbd_open_edpt_pair+0x8a>
1000324c:	7863      	ldrb	r3, [r4, #1]
1000324e:	2b05      	cmp	r3, #5
10003250:	d111      	bne.n	10003276 <usbd_open_edpt_pair+0x76>
10003252:	78e3      	ldrb	r3, [r4, #3]
10003254:	f003 0303 	and.w	r3, r3, #3
10003258:	42bb      	cmp	r3, r7
1000325a:	d10c      	bne.n	10003276 <usbd_open_edpt_pair+0x76>
1000325c:	78a2      	ldrb	r2, [r4, #2]
1000325e:	f898 b000 	ldrb.w	fp, [r8]
10003262:	f012 0270 	ands.w	r2, r2, #112	@ 0x70
10003266:	d0da      	beq.n	1000321e <usbd_open_edpt_pair+0x1e>
10003268:	f04f 23e0 	mov.w	r3, #3758153728	@ 0xe000e000
1000326c:	f8d3 3df0 	ldr.w	r3, [r3, #3568]	@ 0xdf0
10003270:	07da      	lsls	r2, r3, #31
10003272:	d500      	bpl.n	10003276 <usbd_open_edpt_pair+0x76>
10003274:	be00      	bkpt	0x0000
10003276:	f04f 23e0 	mov.w	r3, #3758153728	@ 0xe000e000
1000327a:	f8d3 3df0 	ldr.w	r3, [r3, #3568]	@ 0xdf0
1000327e:	07db      	lsls	r3, r3, #31
10003280:	d500      	bpl.n	10003284 <usbd_open_edpt_pair+0x84>
10003282:	be00      	bkpt	0x0000
10003284:	2000      	movs	r0, #0
10003286:	e8bd 8ff8 	ldmia.w	sp!, {r3, r4, r5, r6, r7, r8, r9, sl, fp, pc}
1000328a:	2001      	movs	r0, #1
1000328c:	e8bd 8ff8 	ldmia.w	sp!, {r3, r4, r5, r6, r7, r8, r9, sl, fp, pc}
10003290:	20000ea0 	.word	0x20000ea0
10003294:	20001bf8 	.word	0x20001bf8

10003298 <usbd_edpt_open>:
10003298:	b538      	push	{r3, r4, r5, lr}
1000329a:	788a      	ldrb	r2, [r1, #2]
1000329c:	4b0d      	ldr	r3, [pc, #52]	@ (100032d4 <usbd_edpt_open+0x3c>)
1000329e:	f012 0270 	ands.w	r2, r2, #112	@ 0x70
100032a2:	781d      	ldrb	r5, [r3, #0]
100032a4:	d008      	beq.n	100032b8 <usbd_edpt_open+0x20>
100032a6:	f04f 23e0 	mov.w	r3, #3758153728	@ 0xe000e000
100032aa:	f8d3 3df0 	ldr.w	r3, [r3, #3568]	@ 0xdf0
100032ae:	07db      	lsls	r3, r3, #31
100032b0:	d500      	bpl.n	100032b4 <usbd_edpt_open+0x1c>
100032b2:	be00      	bkpt	0x0000
100032b4:	2000      	movs	r0, #0
100032b6:	bd38      	pop	{r3, r4, r5, pc}
100032b8:	4b07      	ldr	r3, [pc, #28]	@ (100032d8 <usbd_edpt_open+0x40>)
100032ba:	460c      	mov	r4, r1
100032bc:	4608      	mov	r0, r1
100032be:	7899      	ldrb	r1, [r3, #2]
100032c0:	f000 fdca 	bl	10003e58 <tu_edpt_validate>
100032c4:	2800      	cmp	r0, #0
100032c6:	d0ee      	beq.n	100032a6 <usbd_edpt_open+0xe>
100032c8:	4621      	mov	r1, r4
100032ca:	4628      	mov	r0, r5
100032cc:	e8bd 4038 	ldmia.w	sp!, {r3, r4, r5, lr}
100032d0:	f7ff b9ec 	b.w	100026ac <dcd_edpt_open>
100032d4:	20000ea0 	.word	0x20000ea0
100032d8:	20001bf8 	.word	0x20001bf8

100032dc <usbd_edpt_claim>:
100032dc:	460b      	mov	r3, r1
100032de:	4a06      	ldr	r2, [pc, #24]	@ (100032f8 <usbd_edpt_claim+0x1c>)
100032e0:	4806      	ldr	r0, [pc, #24]	@ (100032fc <usbd_edpt_claim+0x20>)
100032e2:	6811      	ldr	r1, [r2, #0]
100032e4:	09da      	lsrs	r2, r3, #7
100032e6:	3234      	adds	r2, #52	@ 0x34
100032e8:	f003 037f 	and.w	r3, r3, #127	@ 0x7f
100032ec:	eb02 0343 	add.w	r3, r2, r3, lsl #1
100032f0:	4418      	add	r0, r3
100032f2:	f000 bd6b 	b.w	10003dcc <tu_edpt_claim>
100032f6:	bf00      	nop
100032f8:	20001c4c 	.word	0x20001c4c
100032fc:	20001bf8 	.word	0x20001bf8

10003300 <usbd_edpt_release>:
10003300:	460b      	mov	r3, r1
10003302:	4a06      	ldr	r2, [pc, #24]	@ (1000331c <usbd_edpt_release+0x1c>)
10003304:	4806      	ldr	r0, [pc, #24]	@ (10003320 <usbd_edpt_release+0x20>)
10003306:	6811      	ldr	r1, [r2, #0]
10003308:	09da      	lsrs	r2, r3, #7
1000330a:	3234      	adds	r2, #52	@ 0x34
1000330c:	f003 037f 	and.w	r3, r3, #127	@ 0x7f
10003310:	eb02 0343 	add.w	r3, r2, r3, lsl #1
10003314:	4418      	add	r0, r3
10003316:	f000 bd83 	b.w	10003e20 <tu_edpt_release>
1000331a:	bf00      	nop
1000331c:	20001c4c 	.word	0x20001c4c
10003320:	20001bf8 	.word	0x20001bf8

10003324 <usbd_edpt_xfer>:
10003324:	b510      	push	{r4, lr}
10003326:	4c19      	ldr	r4, [pc, #100]	@ (1000338c <usbd_edpt_xfer+0x68>)
10003328:	f001 0e7f 	and.w	lr, r1, #127	@ 0x7f
1000332c:	eb04 044e 	add.w	r4, r4, lr, lsl #1
10003330:	eb04 14d1 	add.w	r4, r4, r1, lsr #7
10003334:	f894 c034 	ldrb.w	ip, [r4, #52]	@ 0x34
10003338:	4815      	ldr	r0, [pc, #84]	@ (10003390 <usbd_edpt_xfer+0x6c>)
1000333a:	f01c 0f01 	tst.w	ip, #1
1000333e:	f104 0430 	add.w	r4, r4, #48	@ 0x30
10003342:	7800      	ldrb	r0, [r0, #0]
10003344:	d008      	beq.n	10003358 <usbd_edpt_xfer+0x34>
10003346:	f04f 23e0 	mov.w	r3, #3758153728	@ 0xe000e000
1000334a:	f8d3 3df0 	ldr.w	r3, [r3, #3568]	@ 0xdf0
1000334e:	07da      	lsls	r2, r3, #31
10003350:	d500      	bpl.n	10003354 <usbd_edpt_xfer+0x30>
10003352:	be00      	bkpt	0x0000
10003354:	2000      	movs	r0, #0
10003356:	bd10      	pop	{r4, pc}
10003358:	f894 c004 	ldrb.w	ip, [r4, #4]
1000335c:	f04c 0c01 	orr.w	ip, ip, #1
10003360:	f884 c004 	strb.w	ip, [r4, #4]
10003364:	f7ff fa28 	bl	100027b8 <dcd_edpt_xfer>
10003368:	2800      	cmp	r0, #0
1000336a:	d1f4      	bne.n	10003356 <usbd_edpt_xfer+0x32>
1000336c:	f04f 21e0 	mov.w	r1, #3758153728	@ 0xe000e000
10003370:	7922      	ldrb	r2, [r4, #4]
10003372:	f360 0200 	bfi	r2, r0, #0, #1
10003376:	7122      	strb	r2, [r4, #4]
10003378:	7922      	ldrb	r2, [r4, #4]
1000337a:	f360 0282 	bfi	r2, r0, #2, #1
1000337e:	7122      	strb	r2, [r4, #4]
10003380:	f8d1 3df0 	ldr.w	r3, [r1, #3568]	@ 0xdf0
10003384:	07db      	lsls	r3, r3, #31
10003386:	d5e5      	bpl.n	10003354 <usbd_edpt_xfer+0x30>
10003388:	e7e3      	b.n	10003352 <usbd_edpt_xfer+0x2e>
1000338a:	bf00      	nop
1000338c:	20001bf8 	.word	0x20001bf8
10003390:	20000ea0 	.word	0x20000ea0

10003394 <tud_control_status>:
10003394:	b530      	push	{r4, r5, lr}
10003396:	4c0b      	ldr	r4, [pc, #44]	@ (100033c4 <tud_control_status+0x30>)
10003398:	468c      	mov	ip, r1
1000339a:	46a6      	mov	lr, r4
1000339c:	4605      	mov	r5, r0
1000339e:	6808      	ldr	r0, [r1, #0]
100033a0:	6849      	ldr	r1, [r1, #4]
100033a2:	2300      	movs	r3, #0
100033a4:	e8ae 0003 	stmia.w	lr!, {r0, r1}
100033a8:	f89c 1000 	ldrb.w	r1, [ip]
100033ac:	4628      	mov	r0, r5
100033ae:	43c9      	mvns	r1, r1
100033b0:	e9c4 3302 	strd	r3, r3, [r4, #8]
100033b4:	e8bd 4030 	ldmia.w	sp!, {r4, r5, lr}
100033b8:	461a      	mov	r2, r3
100033ba:	f001 0180 	and.w	r1, r1, #128	@ 0x80
100033be:	f7ff bfb1 	b.w	10003324 <usbd_edpt_xfer>
100033c2:	bf00      	nop
100033c4:	20001bb8 	.word	0x20001bb8

100033c8 <tud_control_xfer>:
100033c8:	e92d 41f0 	stmdb	sp!, {r4, r5, r6, r7, r8, lr}
100033cc:	4f27      	ldr	r7, [pc, #156]	@ (1000346c <tud_control_xfer+0xa4>)
100033ce:	f04f 0800 	mov.w	r8, #0
100033d2:	46be      	mov	lr, r7
100033d4:	468c      	mov	ip, r1
100033d6:	4606      	mov	r6, r0
100033d8:	6808      	ldr	r0, [r1, #0]
100033da:	6849      	ldr	r1, [r1, #4]
100033dc:	60ba      	str	r2, [r7, #8]
100033de:	e8ae 0003 	stmia.w	lr!, {r0, r1}
100033e2:	f8a7 800e 	strh.w	r8, [r7, #14]
100033e6:	4615      	mov	r5, r2
100033e8:	f8bc 2006 	ldrh.w	r2, [ip, #6]
100033ec:	4293      	cmp	r3, r2
100033ee:	bf28      	it	cs
100033f0:	4613      	movcs	r3, r2
100033f2:	81bb      	strh	r3, [r7, #12]
100033f4:	b19a      	cbz	r2, 1000341e <tud_control_xfer+0x56>
100033f6:	461c      	mov	r4, r3
100033f8:	b32b      	cbz	r3, 10003446 <tud_control_xfer+0x7e>
100033fa:	b1dd      	cbz	r5, 10003434 <tud_control_xfer+0x6c>
100033fc:	f997 3000 	ldrsb.w	r3, [r7]
10003400:	2c40      	cmp	r4, #64	@ 0x40
10003402:	bf28      	it	cs
10003404:	2440      	movcs	r4, #64	@ 0x40
10003406:	2b00      	cmp	r3, #0
10003408:	db28      	blt.n	1000345c <tud_control_xfer+0x94>
1000340a:	4641      	mov	r1, r8
1000340c:	4623      	mov	r3, r4
1000340e:	4630      	mov	r0, r6
10003410:	4a17      	ldr	r2, [pc, #92]	@ (10003470 <tud_control_xfer+0xa8>)
10003412:	f7ff ff87 	bl	10003324 <usbd_edpt_xfer>
10003416:	b168      	cbz	r0, 10003434 <tud_control_xfer+0x6c>
10003418:	2001      	movs	r0, #1
1000341a:	e8bd 81f0 	ldmia.w	sp!, {r4, r5, r6, r7, r8, pc}
1000341e:	f89c 1000 	ldrb.w	r1, [ip]
10003422:	4613      	mov	r3, r2
10003424:	43c9      	mvns	r1, r1
10003426:	4630      	mov	r0, r6
10003428:	f001 0180 	and.w	r1, r1, #128	@ 0x80
1000342c:	f7ff ff7a 	bl	10003324 <usbd_edpt_xfer>
10003430:	2800      	cmp	r0, #0
10003432:	d1f1      	bne.n	10003418 <tud_control_xfer+0x50>
10003434:	f04f 23e0 	mov.w	r3, #3758153728	@ 0xe000e000
10003438:	f8d3 3df0 	ldr.w	r3, [r3, #3568]	@ 0xdf0
1000343c:	07db      	lsls	r3, r3, #31
1000343e:	d500      	bpl.n	10003442 <tud_control_xfer+0x7a>
10003440:	be00      	bkpt	0x0000
10003442:	2000      	movs	r0, #0
10003444:	e7e9      	b.n	1000341a <tud_control_xfer+0x52>
10003446:	461a      	mov	r2, r3
10003448:	7839      	ldrb	r1, [r7, #0]
1000344a:	f001 0180 	and.w	r1, r1, #128	@ 0x80
1000344e:	4623      	mov	r3, r4
10003450:	4630      	mov	r0, r6
10003452:	f7ff ff67 	bl	10003324 <usbd_edpt_xfer>
10003456:	2800      	cmp	r0, #0
10003458:	d1de      	bne.n	10003418 <tud_control_xfer+0x50>
1000345a:	e7eb      	b.n	10003434 <tud_control_xfer+0x6c>
1000345c:	4622      	mov	r2, r4
1000345e:	4629      	mov	r1, r5
10003460:	4803      	ldr	r0, [pc, #12]	@ (10003470 <tud_control_xfer+0xa8>)
10003462:	f004 fd19 	bl	10007e98 <memcpy>
10003466:	2180      	movs	r1, #128	@ 0x80
10003468:	4a01      	ldr	r2, [pc, #4]	@ (10003470 <tud_control_xfer+0xa8>)
1000346a:	e7f0      	b.n	1000344e <tud_control_xfer+0x86>
1000346c:	20001bb8 	.word	0x20001bb8
10003470:	20001b78 	.word	0x20001b78

10003474 <usbd_control_reset>:
10003474:	2200      	movs	r2, #0
10003476:	4b03      	ldr	r3, [pc, #12]	@ (10003484 <usbd_control_reset+0x10>)
10003478:	e9c3 2200 	strd	r2, r2, [r3]
1000347c:	e9c3 2202 	strd	r2, r2, [r3, #8]
10003480:	611a      	str	r2, [r3, #16]
10003482:	4770      	bx	lr
10003484:	20001bb8 	.word	0x20001bb8

10003488 <usbd_control_set_complete_callback>:
10003488:	4b01      	ldr	r3, [pc, #4]	@ (10003490 <usbd_control_set_complete_callback+0x8>)
1000348a:	6118      	str	r0, [r3, #16]
1000348c:	4770      	bx	lr
1000348e:	bf00      	nop
10003490:	20001bb8 	.word	0x20001bb8

10003494 <usbd_control_set_request>:
10003494:	b430      	push	{r4, r5}
10003496:	4602      	mov	r2, r0
10003498:	4c04      	ldr	r4, [pc, #16]	@ (100034ac <usbd_control_set_request+0x18>)
1000349a:	2500      	movs	r5, #0
1000349c:	4623      	mov	r3, r4
1000349e:	6800      	ldr	r0, [r0, #0]
100034a0:	6851      	ldr	r1, [r2, #4]
100034a2:	e9c4 5502 	strd	r5, r5, [r4, #8]
100034a6:	bc30      	pop	{r4, r5}
100034a8:	c303      	stmia	r3!, {r0, r1}
100034aa:	4770      	bx	lr
100034ac:	20001bb8 	.word	0x20001bb8

100034b0 <usbd_control_xfer_cb>:
100034b0:	b570      	push	{r4, r5, r6, lr}
100034b2:	4c3c      	ldr	r4, [pc, #240]	@ (100035a4 <usbd_control_xfer_cb+0xf4>)
100034b4:	09c9      	lsrs	r1, r1, #7
100034b6:	7822      	ldrb	r2, [r4, #0]
100034b8:	4606      	mov	r6, r0
100034ba:	ebb1 1fd2 	cmp.w	r1, r2, lsr #7
100034be:	461d      	mov	r5, r3
100034c0:	b082      	sub	sp, #8
100034c2:	d017      	beq.n	100034f4 <usbd_control_xfer_cb+0x44>
100034c4:	b153      	cbz	r3, 100034dc <usbd_control_xfer_cb+0x2c>
100034c6:	f04f 23e0 	mov.w	r3, #3758153728	@ 0xe000e000
100034ca:	f8d3 3df0 	ldr.w	r3, [r3, #3568]	@ 0xdf0
100034ce:	07db      	lsls	r3, r3, #31
100034d0:	d402      	bmi.n	100034d8 <usbd_control_xfer_cb+0x28>
100034d2:	2000      	movs	r0, #0
100034d4:	b002      	add	sp, #8
100034d6:	bd70      	pop	{r4, r5, r6, pc}
100034d8:	be00      	bkpt	0x0000
100034da:	e7fa      	b.n	100034d2 <usbd_control_xfer_cb+0x22>
100034dc:	4621      	mov	r1, r4
100034de:	f7ff f8d7 	bl	10002690 <dcd_edpt0_status_complete>
100034e2:	6923      	ldr	r3, [r4, #16]
100034e4:	b11b      	cbz	r3, 100034ee <usbd_control_xfer_cb+0x3e>
100034e6:	4622      	mov	r2, r4
100034e8:	2103      	movs	r1, #3
100034ea:	4630      	mov	r0, r6
100034ec:	4798      	blx	r3
100034ee:	2001      	movs	r0, #1
100034f0:	b002      	add	sp, #8
100034f2:	bd70      	pop	{r4, r5, r6, pc}
100034f4:	f994 3000 	ldrsb.w	r3, [r4]
100034f8:	68a0      	ldr	r0, [r4, #8]
100034fa:	2b00      	cmp	r3, #0
100034fc:	db05      	blt.n	1000350a <usbd_control_xfer_cb+0x5a>
100034fe:	2800      	cmp	r0, #0
10003500:	d0e7      	beq.n	100034d2 <usbd_control_xfer_cb+0x22>
10003502:	462a      	mov	r2, r5
10003504:	4928      	ldr	r1, [pc, #160]	@ (100035a8 <usbd_control_xfer_cb+0xf8>)
10003506:	f004 fcc7 	bl	10007e98 <memcpy>
1000350a:	89e0      	ldrh	r0, [r4, #14]
1000350c:	68a1      	ldr	r1, [r4, #8]
1000350e:	88e3      	ldrh	r3, [r4, #6]
10003510:	4428      	add	r0, r5
10003512:	b280      	uxth	r0, r0
10003514:	4429      	add	r1, r5
10003516:	4283      	cmp	r3, r0
10003518:	81e0      	strh	r0, [r4, #14]
1000351a:	60a1      	str	r1, [r4, #8]
1000351c:	d016      	beq.n	1000354c <usbd_control_xfer_cb+0x9c>
1000351e:	2d3f      	cmp	r5, #63	@ 0x3f
10003520:	d914      	bls.n	1000354c <usbd_control_xfer_cb+0x9c>
10003522:	89a2      	ldrh	r2, [r4, #12]
10003524:	f994 4000 	ldrsb.w	r4, [r4]
10003528:	1a13      	subs	r3, r2, r0
1000352a:	b29b      	uxth	r3, r3
1000352c:	2b40      	cmp	r3, #64	@ 0x40
1000352e:	bf28      	it	cs
10003530:	2340      	movcs	r3, #64	@ 0x40
10003532:	2c00      	cmp	r4, #0
10003534:	db26      	blt.n	10003584 <usbd_control_xfer_cb+0xd4>
10003536:	4290      	cmp	r0, r2
10003538:	f04f 0100 	mov.w	r1, #0
1000353c:	d030      	beq.n	100035a0 <usbd_control_xfer_cb+0xf0>
1000353e:	4a1a      	ldr	r2, [pc, #104]	@ (100035a8 <usbd_control_xfer_cb+0xf8>)
10003540:	4630      	mov	r0, r6
10003542:	f7ff feef 	bl	10003324 <usbd_edpt_xfer>
10003546:	2800      	cmp	r0, #0
10003548:	d1d1      	bne.n	100034ee <usbd_control_xfer_cb+0x3e>
1000354a:	e7bc      	b.n	100034c6 <usbd_control_xfer_cb+0x16>
1000354c:	6923      	ldr	r3, [r4, #16]
1000354e:	b123      	cbz	r3, 1000355a <usbd_control_xfer_cb+0xaa>
10003550:	2102      	movs	r1, #2
10003552:	4630      	mov	r0, r6
10003554:	4a13      	ldr	r2, [pc, #76]	@ (100035a4 <usbd_control_xfer_cb+0xf4>)
10003556:	4798      	blx	r3
10003558:	b158      	cbz	r0, 10003572 <usbd_control_xfer_cb+0xc2>
1000355a:	7821      	ldrb	r1, [r4, #0]
1000355c:	2300      	movs	r3, #0
1000355e:	43c9      	mvns	r1, r1
10003560:	4630      	mov	r0, r6
10003562:	461a      	mov	r2, r3
10003564:	f001 0180 	and.w	r1, r1, #128	@ 0x80
10003568:	f7ff fedc 	bl	10003324 <usbd_edpt_xfer>
1000356c:	2800      	cmp	r0, #0
1000356e:	d1be      	bne.n	100034ee <usbd_control_xfer_cb+0x3e>
10003570:	e7a9      	b.n	100034c6 <usbd_control_xfer_cb+0x16>
10003572:	4601      	mov	r1, r0
10003574:	4630      	mov	r0, r6
10003576:	f7ff f933 	bl	100027e0 <dcd_edpt_stall>
1000357a:	2180      	movs	r1, #128	@ 0x80
1000357c:	4630      	mov	r0, r6
1000357e:	f7ff f92f 	bl	100027e0 <dcd_edpt_stall>
10003582:	e7b4      	b.n	100034ee <usbd_control_xfer_cb+0x3e>
10003584:	4290      	cmp	r0, r2
10003586:	d008      	beq.n	1000359a <usbd_control_xfer_cb+0xea>
10003588:	461a      	mov	r2, r3
1000358a:	4807      	ldr	r0, [pc, #28]	@ (100035a8 <usbd_control_xfer_cb+0xf8>)
1000358c:	9301      	str	r3, [sp, #4]
1000358e:	f004 fc83 	bl	10007e98 <memcpy>
10003592:	2180      	movs	r1, #128	@ 0x80
10003594:	4a04      	ldr	r2, [pc, #16]	@ (100035a8 <usbd_control_xfer_cb+0xf8>)
10003596:	9b01      	ldr	r3, [sp, #4]
10003598:	e7d2      	b.n	10003540 <usbd_control_xfer_cb+0x90>
1000359a:	2180      	movs	r1, #128	@ 0x80
1000359c:	2200      	movs	r2, #0
1000359e:	e7cf      	b.n	10003540 <usbd_control_xfer_cb+0x90>
100035a0:	460a      	mov	r2, r1
100035a2:	e7cd      	b.n	10003540 <usbd_control_xfer_cb+0x90>
100035a4:	20001bb8 	.word	0x20001bb8
100035a8:	20001b78 	.word	0x20001b78

100035ac <_prep_out_transaction.isra.0>:
100035ac:	e92d 41f0 	stmdb	sp!, {r4, r5, r6, r7, r8, lr}
100035b0:	4604      	mov	r4, r0
100035b2:	f7ff f9d7 	bl	10002964 <tud_mounted>
100035b6:	b908      	cbnz	r0, 100035bc <_prep_out_transaction.isra.0+0x10>
100035b8:	e8bd 81f0 	ldmia.w	sp!, {r4, r5, r6, r7, r8, pc}
100035bc:	f7ff f9da 	bl	10002974 <tud_suspended>
100035c0:	4607      	mov	r7, r0
100035c2:	2800      	cmp	r0, #0
100035c4:	d1f8      	bne.n	100035b8 <_prep_out_transaction.isra.0+0xc>
100035c6:	22c8      	movs	r2, #200	@ 0xc8
100035c8:	4b13      	ldr	r3, [pc, #76]	@ (10003618 <_prep_out_transaction.isra.0+0x6c>)
100035ca:	fb02 3604 	mla	r6, r2, r4, r3
100035ce:	78f1      	ldrb	r1, [r6, #3]
100035d0:	2900      	cmp	r1, #0
100035d2:	d0f1      	beq.n	100035b8 <_prep_out_transaction.isra.0+0xc>
100035d4:	f106 0510 	add.w	r5, r6, #16
100035d8:	4628      	mov	r0, r5
100035da:	f000 fe05 	bl	100041e8 <tu_fifo_remaining>
100035de:	283f      	cmp	r0, #63	@ 0x3f
100035e0:	d9ea      	bls.n	100035b8 <_prep_out_transaction.isra.0+0xc>
100035e2:	4638      	mov	r0, r7
100035e4:	78f1      	ldrb	r1, [r6, #3]
100035e6:	f7ff fe79 	bl	100032dc <usbd_edpt_claim>
100035ea:	2800      	cmp	r0, #0
100035ec:	d0e4      	beq.n	100035b8 <_prep_out_transaction.isra.0+0xc>
100035ee:	4628      	mov	r0, r5
100035f0:	f000 fdfa 	bl	100041e8 <tu_fifo_remaining>
100035f4:	283f      	cmp	r0, #63	@ 0x3f
100035f6:	d909      	bls.n	1000360c <_prep_out_transaction.isra.0+0x60>
100035f8:	4a08      	ldr	r2, [pc, #32]	@ (1000361c <_prep_out_transaction.isra.0+0x70>)
100035fa:	4638      	mov	r0, r7
100035fc:	78f1      	ldrb	r1, [r6, #3]
100035fe:	eb02 12c4 	add.w	r2, r2, r4, lsl #7
10003602:	2340      	movs	r3, #64	@ 0x40
10003604:	e8bd 41f0 	ldmia.w	sp!, {r4, r5, r6, r7, r8, lr}
10003608:	f7ff be8c 	b.w	10003324 <usbd_edpt_xfer>
1000360c:	4638      	mov	r0, r7
1000360e:	78f1      	ldrb	r1, [r6, #3]
10003610:	e8bd 41f0 	ldmia.w	sp!, {r4, r5, r6, r7, r8, lr}
10003614:	f7ff be74 	b.w	10003300 <usbd_edpt_release>
10003618:	20001440 	.word	0x20001440
1000361c:	20001af8 	.word	0x20001af8

10003620 <tud_cdc_n_connected>:
10003620:	b510      	push	{r4, lr}
10003622:	4604      	mov	r4, r0
10003624:	f7ff f99e 	bl	10002964 <tud_mounted>
10003628:	b908      	cbnz	r0, 1000362e <tud_cdc_n_connected+0xe>
1000362a:	2000      	movs	r0, #0
1000362c:	bd10      	pop	{r4, pc}
1000362e:	f7ff f9a1 	bl	10002974 <tud_suspended>
10003632:	2800      	cmp	r0, #0
10003634:	d1f9      	bne.n	1000362a <tud_cdc_n_connected+0xa>
10003636:	22c8      	movs	r2, #200	@ 0xc8
10003638:	4b03      	ldr	r3, [pc, #12]	@ (10003648 <tud_cdc_n_connected+0x28>)
1000363a:	fb02 3304 	mla	r3, r2, r4, r3
1000363e:	7918      	ldrb	r0, [r3, #4]
10003640:	f000 0001 	and.w	r0, r0, #1
10003644:	bd10      	pop	{r4, pc}
10003646:	bf00      	nop
10003648:	20001440 	.word	0x20001440

1000364c <tud_cdc_n_available>:
1000364c:	21c8      	movs	r1, #200	@ 0xc8
1000364e:	b508      	push	{r3, lr}
10003650:	2310      	movs	r3, #16
10003652:	fb01 3000 	mla	r0, r1, r0, r3
10003656:	4a02      	ldr	r2, [pc, #8]	@ (10003660 <tud_cdc_n_available+0x14>)
10003658:	4410      	add	r0, r2
1000365a:	f000 fdab 	bl	100041b4 <tu_fifo_count>
1000365e:	bd08      	pop	{r3, pc}
10003660:	20001440 	.word	0x20001440

10003664 <tud_cdc_n_read>:
10003664:	e92d 43f8 	stmdb	sp!, {r3, r4, r5, r6, r7, r8, r9, lr}
10003668:	f64f 73ff 	movw	r3, #65535	@ 0xffff
1000366c:	f04f 08c8 	mov.w	r8, #200	@ 0xc8
10003670:	2410      	movs	r4, #16
10003672:	429a      	cmp	r2, r3
10003674:	bf28      	it	cs
10003676:	461a      	movcs	r2, r3
10003678:	fb18 4400 	smlabb	r4, r8, r0, r4
1000367c:	4f1a      	ldr	r7, [pc, #104]	@ (100036e8 <tud_cdc_n_read+0x84>)
1000367e:	4606      	mov	r6, r0
10003680:	443c      	add	r4, r7
10003682:	4620      	mov	r0, r4
10003684:	b292      	uxth	r2, r2
10003686:	f000 fe0b 	bl	100042a0 <tu_fifo_read_n>
1000368a:	4605      	mov	r5, r0
1000368c:	f7ff f96a 	bl	10002964 <tud_mounted>
10003690:	b910      	cbnz	r0, 10003698 <tud_cdc_n_read+0x34>
10003692:	4628      	mov	r0, r5
10003694:	e8bd 83f8 	ldmia.w	sp!, {r3, r4, r5, r6, r7, r8, r9, pc}
10003698:	f7ff f96c 	bl	10002974 <tud_suspended>
1000369c:	4681      	mov	r9, r0
1000369e:	2800      	cmp	r0, #0
100036a0:	d1f7      	bne.n	10003692 <tud_cdc_n_read+0x2e>
100036a2:	fb08 7706 	mla	r7, r8, r6, r7
100036a6:	78fb      	ldrb	r3, [r7, #3]
100036a8:	2b00      	cmp	r3, #0
100036aa:	d0f2      	beq.n	10003692 <tud_cdc_n_read+0x2e>
100036ac:	4620      	mov	r0, r4
100036ae:	f000 fd9b 	bl	100041e8 <tu_fifo_remaining>
100036b2:	283f      	cmp	r0, #63	@ 0x3f
100036b4:	d9ed      	bls.n	10003692 <tud_cdc_n_read+0x2e>
100036b6:	4648      	mov	r0, r9
100036b8:	78f9      	ldrb	r1, [r7, #3]
100036ba:	f7ff fe0f 	bl	100032dc <usbd_edpt_claim>
100036be:	2800      	cmp	r0, #0
100036c0:	d0e7      	beq.n	10003692 <tud_cdc_n_read+0x2e>
100036c2:	4620      	mov	r0, r4
100036c4:	f000 fd90 	bl	100041e8 <tu_fifo_remaining>
100036c8:	283f      	cmp	r0, #63	@ 0x3f
100036ca:	d908      	bls.n	100036de <tud_cdc_n_read+0x7a>
100036cc:	4a07      	ldr	r2, [pc, #28]	@ (100036ec <tud_cdc_n_read+0x88>)
100036ce:	4648      	mov	r0, r9
100036d0:	2340      	movs	r3, #64	@ 0x40
100036d2:	78f9      	ldrb	r1, [r7, #3]
100036d4:	eb02 12c6 	add.w	r2, r2, r6, lsl #7
100036d8:	f7ff fe24 	bl	10003324 <usbd_edpt_xfer>
100036dc:	e7d9      	b.n	10003692 <tud_cdc_n_read+0x2e>
100036de:	4648      	mov	r0, r9
100036e0:	78f9      	ldrb	r1, [r7, #3]
100036e2:	f7ff fe0d 	bl	10003300 <usbd_edpt_release>
100036e6:	e7d4      	b.n	10003692 <tud_cdc_n_read+0x2e>
100036e8:	20001440 	.word	0x20001440
100036ec:	20001af8 	.word	0x20001af8

100036f0 <tud_cdc_n_write_flush>:
100036f0:	e92d 41f0 	stmdb	sp!, {r4, r5, r6, r7, r8, lr}
100036f4:	4605      	mov	r5, r0
100036f6:	f7ff f935 	bl	10002964 <tud_mounted>
100036fa:	b910      	cbnz	r0, 10003702 <tud_cdc_n_write_flush+0x12>
100036fc:	2000      	movs	r0, #0
100036fe:	e8bd 81f0 	ldmia.w	sp!, {r4, r5, r6, r7, r8, pc}
10003702:	f7ff f937 	bl	10002974 <tud_suspended>
10003706:	4606      	mov	r6, r0
10003708:	2800      	cmp	r0, #0
1000370a:	d1f7      	bne.n	100036fc <tud_cdc_n_write_flush+0xc>
1000370c:	f04f 08c8 	mov.w	r8, #200	@ 0xc8
10003710:	2424      	movs	r4, #36	@ 0x24
10003712:	fb18 4405 	smlabb	r4, r8, r5, r4
10003716:	4f17      	ldr	r7, [pc, #92]	@ (10003774 <tud_cdc_n_write_flush+0x84>)
10003718:	443c      	add	r4, r7
1000371a:	4620      	mov	r0, r4
1000371c:	f000 fd4a 	bl	100041b4 <tu_fifo_count>
10003720:	2800      	cmp	r0, #0
10003722:	d0eb      	beq.n	100036fc <tud_cdc_n_write_flush+0xc>
10003724:	fb08 7705 	mla	r7, r8, r5, r7
10003728:	4630      	mov	r0, r6
1000372a:	78b9      	ldrb	r1, [r7, #2]
1000372c:	f7ff fdd6 	bl	100032dc <usbd_edpt_claim>
10003730:	2800      	cmp	r0, #0
10003732:	d0e3      	beq.n	100036fc <tud_cdc_n_write_flush+0xc>
10003734:	2240      	movs	r2, #64	@ 0x40
10003736:	4b10      	ldr	r3, [pc, #64]	@ (10003778 <tud_cdc_n_write_flush+0x88>)
10003738:	4620      	mov	r0, r4
1000373a:	eb02 14c5 	add.w	r4, r2, r5, lsl #7
1000373e:	441c      	add	r4, r3
10003740:	4621      	mov	r1, r4
10003742:	f000 fdad 	bl	100042a0 <tu_fifo_read_n>
10003746:	4605      	mov	r5, r0
10003748:	b180      	cbz	r0, 1000376c <tud_cdc_n_write_flush+0x7c>
1000374a:	4603      	mov	r3, r0
1000374c:	4622      	mov	r2, r4
1000374e:	4630      	mov	r0, r6
10003750:	78b9      	ldrb	r1, [r7, #2]
10003752:	f7ff fde7 	bl	10003324 <usbd_edpt_xfer>
10003756:	b938      	cbnz	r0, 10003768 <tud_cdc_n_write_flush+0x78>
10003758:	f04f 23e0 	mov.w	r3, #3758153728	@ 0xe000e000
1000375c:	f8d3 3df0 	ldr.w	r3, [r3, #3568]	@ 0xdf0
10003760:	07db      	lsls	r3, r3, #31
10003762:	d5cb      	bpl.n	100036fc <tud_cdc_n_write_flush+0xc>
10003764:	be00      	bkpt	0x0000
10003766:	e7c9      	b.n	100036fc <tud_cdc_n_write_flush+0xc>
10003768:	4628      	mov	r0, r5
1000376a:	e7c8      	b.n	100036fe <tud_cdc_n_write_flush+0xe>
1000376c:	78b9      	ldrb	r1, [r7, #2]
1000376e:	f7ff fdc7 	bl	10003300 <usbd_edpt_release>
10003772:	e7c3      	b.n	100036fc <tud_cdc_n_write_flush+0xc>
10003774:	20001440 	.word	0x20001440
10003778:	20001af8 	.word	0x20001af8

1000377c <tud_cdc_n_write>:
1000377c:	b538      	push	{r3, r4, r5, lr}
1000377e:	f64f 73ff 	movw	r3, #65535	@ 0xffff
10003782:	f04f 0c24 	mov.w	ip, #36	@ 0x24
10003786:	24c8      	movs	r4, #200	@ 0xc8
10003788:	429a      	cmp	r2, r3
1000378a:	bf28      	it	cs
1000378c:	461a      	movcs	r2, r3
1000378e:	fb14 c400 	smlabb	r4, r4, r0, ip
10003792:	4b0a      	ldr	r3, [pc, #40]	@ (100037bc <tud_cdc_n_write+0x40>)
10003794:	b292      	uxth	r2, r2
10003796:	441c      	add	r4, r3
10003798:	4605      	mov	r5, r0
1000379a:	4620      	mov	r0, r4
1000379c:	f000 fe3c 	bl	10004418 <tu_fifo_write_n>
100037a0:	4603      	mov	r3, r0
100037a2:	4620      	mov	r0, r4
100037a4:	461c      	mov	r4, r3
100037a6:	f000 fd05 	bl	100041b4 <tu_fifo_count>
100037aa:	283f      	cmp	r0, #63	@ 0x3f
100037ac:	d801      	bhi.n	100037b2 <tud_cdc_n_write+0x36>
100037ae:	4620      	mov	r0, r4
100037b0:	bd38      	pop	{r3, r4, r5, pc}
100037b2:	4628      	mov	r0, r5
100037b4:	f7ff ff9c 	bl	100036f0 <tud_cdc_n_write_flush>
100037b8:	4620      	mov	r0, r4
100037ba:	bd38      	pop	{r3, r4, r5, pc}
100037bc:	20001440 	.word	0x20001440

100037c0 <tud_cdc_n_write_available>:
100037c0:	21c8      	movs	r1, #200	@ 0xc8
100037c2:	b508      	push	{r3, lr}
100037c4:	2324      	movs	r3, #36	@ 0x24
100037c6:	fb01 3000 	mla	r0, r1, r0, r3
100037ca:	4a02      	ldr	r2, [pc, #8]	@ (100037d4 <tud_cdc_n_write_available+0x14>)
100037cc:	4410      	add	r0, r2
100037ce:	f000 fd0b 	bl	100041e8 <tu_fifo_remaining>
100037d2:	bd08      	pop	{r3, pc}
100037d4:	20001440 	.word	0x20001440

100037d8 <cdcd_init>:
100037d8:	b5f0      	push	{r4, r5, r6, r7, lr}
100037da:	4c1a      	ldr	r4, [pc, #104]	@ (10003844 <cdcd_init+0x6c>)
100037dc:	b083      	sub	sp, #12
100037de:	22c8      	movs	r2, #200	@ 0xc8
100037e0:	2100      	movs	r1, #0
100037e2:	4620      	mov	r0, r4
100037e4:	f003 fef4 	bl	100075d0 <memset>
100037e8:	2500      	movs	r5, #0
100037ea:	26ff      	movs	r6, #255	@ 0xff
100037ec:	f44f 30e1 	mov.w	r0, #115200	@ 0x1c200
100037f0:	2108      	movs	r1, #8
100037f2:	9500      	str	r5, [sp, #0]
100037f4:	2301      	movs	r3, #1
100037f6:	7166      	strb	r6, [r4, #5]
100037f8:	60a0      	str	r0, [r4, #8]
100037fa:	73a1      	strb	r1, [r4, #14]
100037fc:	2240      	movs	r2, #64	@ 0x40
100037fe:	f104 0138 	add.w	r1, r4, #56	@ 0x38
10003802:	f104 0010 	add.w	r0, r4, #16
10003806:	f000 fca5 	bl	10004154 <tu_fifo_config>
1000380a:	4a0f      	ldr	r2, [pc, #60]	@ (10003848 <cdcd_init+0x70>)
1000380c:	2301      	movs	r3, #1
1000380e:	7811      	ldrb	r1, [r2, #0]
10003810:	f104 07b8 	add.w	r7, r4, #184	@ 0xb8
10003814:	f3c1 0180 	ubfx	r1, r1, #2, #1
10003818:	2240      	movs	r2, #64	@ 0x40
1000381a:	9100      	str	r1, [sp, #0]
1000381c:	f104 0024 	add.w	r0, r4, #36	@ 0x24
10003820:	f104 0178 	add.w	r1, r4, #120	@ 0x78
10003824:	f000 fc96 	bl	10004154 <tu_fifo_config>
10003828:	f104 06c0 	add.w	r6, r4, #192	@ 0xc0
1000382c:	4638      	mov	r0, r7
1000382e:	f7fd f99b 	bl	10000b68 <mutex_init>
10003832:	4630      	mov	r0, r6
10003834:	f7fd f998 	bl	10000b68 <mutex_init>
10003838:	e9c4 5707 	strd	r5, r7, [r4, #28]
1000383c:	e9c4 650c 	strd	r6, r5, [r4, #48]	@ 0x30
10003840:	b003      	add	sp, #12
10003842:	bdf0      	pop	{r4, r5, r6, r7, pc}
10003844:	20001440 	.word	0x20001440
10003848:	20000ea4 	.word	0x20000ea4

1000384c <cdcd_deinit>:
1000384c:	4b09      	ldr	r3, [pc, #36]	@ (10003874 <cdcd_deinit+0x28>)
1000384e:	6b19      	ldr	r1, [r3, #48]	@ 0x30
10003850:	b149      	cbz	r1, 10003866 <cdcd_deinit+0x1a>
10003852:	6a1a      	ldr	r2, [r3, #32]
10003854:	b112      	cbz	r2, 1000385c <cdcd_deinit+0x10>
10003856:	2200      	movs	r2, #0
10003858:	e9c3 2207 	strd	r2, r2, [r3, #28]
1000385c:	2200      	movs	r2, #0
1000385e:	e9c3 220c 	strd	r2, r2, [r3, #48]	@ 0x30
10003862:	2001      	movs	r0, #1
10003864:	4770      	bx	lr
10003866:	6a1a      	ldr	r2, [r3, #32]
10003868:	2a00      	cmp	r2, #0
1000386a:	d0fa      	beq.n	10003862 <cdcd_deinit+0x16>
1000386c:	2001      	movs	r0, #1
1000386e:	e9c3 1107 	strd	r1, r1, [r3, #28]
10003872:	4770      	bx	lr
10003874:	20001440 	.word	0x20001440

10003878 <cdcd_reset>:
10003878:	2200      	movs	r2, #0
1000387a:	b510      	push	{r4, lr}
1000387c:	4c0d      	ldr	r4, [pc, #52]	@ (100038b4 <cdcd_reset+0x3c>)
1000387e:	480e      	ldr	r0, [pc, #56]	@ (100038b8 <cdcd_reset+0x40>)
10003880:	7823      	ldrb	r3, [r4, #0]
10003882:	6002      	str	r2, [r0, #0]
10003884:	7102      	strb	r2, [r0, #4]
10003886:	07da      	lsls	r2, r3, #31
10003888:	d509      	bpl.n	1000389e <cdcd_reset+0x26>
1000388a:	079b      	lsls	r3, r3, #30
1000388c:	d50d      	bpl.n	100038aa <cdcd_reset+0x32>
1000388e:	7821      	ldrb	r1, [r4, #0]
10003890:	480a      	ldr	r0, [pc, #40]	@ (100038bc <cdcd_reset+0x44>)
10003892:	f3c1 0180 	ubfx	r1, r1, #2, #1
10003896:	e8bd 4010 	ldmia.w	sp!, {r4, lr}
1000389a:	f000 be85 	b.w	100045a8 <tu_fifo_set_overwritable>
1000389e:	3010      	adds	r0, #16
100038a0:	f000 fe66 	bl	10004570 <tu_fifo_clear>
100038a4:	7823      	ldrb	r3, [r4, #0]
100038a6:	079b      	lsls	r3, r3, #30
100038a8:	d4f1      	bmi.n	1000388e <cdcd_reset+0x16>
100038aa:	4804      	ldr	r0, [pc, #16]	@ (100038bc <cdcd_reset+0x44>)
100038ac:	f000 fe60 	bl	10004570 <tu_fifo_clear>
100038b0:	e7ed      	b.n	1000388e <cdcd_reset+0x16>
100038b2:	bf00      	nop
100038b4:	20000ea4 	.word	0x20000ea4
100038b8:	20001440 	.word	0x20001440
100038bc:	20001464 	.word	0x20001464

100038c0 <cdcd_open>:
100038c0:	b5f0      	push	{r4, r5, r6, r7, lr}
100038c2:	794b      	ldrb	r3, [r1, #5]
100038c4:	b083      	sub	sp, #12
100038c6:	2b02      	cmp	r3, #2
100038c8:	d003      	beq.n	100038d2 <cdcd_open+0x12>
100038ca:	2500      	movs	r5, #0
100038cc:	4628      	mov	r0, r5
100038ce:	b003      	add	sp, #12
100038d0:	bdf0      	pop	{r4, r5, r6, r7, pc}
100038d2:	798b      	ldrb	r3, [r1, #6]
100038d4:	2b02      	cmp	r3, #2
100038d6:	d1f8      	bne.n	100038ca <cdcd_open+0xa>
100038d8:	4f26      	ldr	r7, [pc, #152]	@ (10003974 <cdcd_open+0xb4>)
100038da:	78bb      	ldrb	r3, [r7, #2]
100038dc:	b13b      	cbz	r3, 100038ee <cdcd_open+0x2e>
100038de:	f04f 23e0 	mov.w	r3, #3758153728	@ 0xe000e000
100038e2:	f8d3 3df0 	ldr.w	r3, [r3, #3568]	@ 0xdf0
100038e6:	07db      	lsls	r3, r3, #31
100038e8:	d5ef      	bpl.n	100038ca <cdcd_open+0xa>
100038ea:	be00      	bkpt	0x0000
100038ec:	e7ed      	b.n	100038ca <cdcd_open+0xa>
100038ee:	788b      	ldrb	r3, [r1, #2]
100038f0:	4606      	mov	r6, r0
100038f2:	703b      	strb	r3, [r7, #0]
100038f4:	780b      	ldrb	r3, [r1, #0]
100038f6:	2509      	movs	r5, #9
100038f8:	18cc      	adds	r4, r1, r3
100038fa:	7861      	ldrb	r1, [r4, #1]
100038fc:	2924      	cmp	r1, #36	@ 0x24
100038fe:	d10b      	bne.n	10003918 <cdcd_open+0x58>
10003900:	2a08      	cmp	r2, #8
10003902:	d802      	bhi.n	1000390a <cdcd_open+0x4a>
10003904:	e00f      	b.n	10003926 <cdcd_open+0x66>
10003906:	42aa      	cmp	r2, r5
10003908:	d30d      	bcc.n	10003926 <cdcd_open+0x66>
1000390a:	7823      	ldrb	r3, [r4, #0]
1000390c:	441c      	add	r4, r3
1000390e:	7861      	ldrb	r1, [r4, #1]
10003910:	442b      	add	r3, r5
10003912:	2924      	cmp	r1, #36	@ 0x24
10003914:	b29d      	uxth	r5, r3
10003916:	d0f6      	beq.n	10003906 <cdcd_open+0x46>
10003918:	2905      	cmp	r1, #5
1000391a:	d00a      	beq.n	10003932 <cdcd_open+0x72>
1000391c:	2904      	cmp	r1, #4
1000391e:	d102      	bne.n	10003926 <cdcd_open+0x66>
10003920:	7963      	ldrb	r3, [r4, #5]
10003922:	2b0a      	cmp	r3, #10
10003924:	d013      	beq.n	1000394e <cdcd_open+0x8e>
10003926:	2000      	movs	r0, #0
10003928:	f7ff fe40 	bl	100035ac <_prep_out_transaction.isra.0>
1000392c:	4628      	mov	r0, r5
1000392e:	b003      	add	sp, #12
10003930:	bdf0      	pop	{r4, r5, r6, r7, pc}
10003932:	4621      	mov	r1, r4
10003934:	4630      	mov	r0, r6
10003936:	f7ff fcaf 	bl	10003298 <usbd_edpt_open>
1000393a:	2800      	cmp	r0, #0
1000393c:	d0cf      	beq.n	100038de <cdcd_open+0x1e>
1000393e:	78a3      	ldrb	r3, [r4, #2]
10003940:	707b      	strb	r3, [r7, #1]
10003942:	7823      	ldrb	r3, [r4, #0]
10003944:	441c      	add	r4, r3
10003946:	442b      	add	r3, r5
10003948:	7861      	ldrb	r1, [r4, #1]
1000394a:	b29d      	uxth	r5, r3
1000394c:	e7e6      	b.n	1000391c <cdcd_open+0x5c>
1000394e:	4b0a      	ldr	r3, [pc, #40]	@ (10003978 <cdcd_open+0xb8>)
10003950:	7827      	ldrb	r7, [r4, #0]
10003952:	9301      	str	r3, [sp, #4]
10003954:	3301      	adds	r3, #1
10003956:	9300      	str	r3, [sp, #0]
10003958:	2302      	movs	r3, #2
1000395a:	4630      	mov	r0, r6
1000395c:	461a      	mov	r2, r3
1000395e:	19e1      	adds	r1, r4, r7
10003960:	f7ff fc4e 	bl	10003200 <usbd_open_edpt_pair>
10003964:	2800      	cmp	r0, #0
10003966:	d0ba      	beq.n	100038de <cdcd_open+0x1e>
10003968:	350e      	adds	r5, #14
1000396a:	fa17 f585 	uxtah	r5, r7, r5
1000396e:	b2ad      	uxth	r5, r5
10003970:	e7d9      	b.n	10003926 <cdcd_open+0x66>
10003972:	bf00      	nop
10003974:	20001440 	.word	0x20001440
10003978:	20001442 	.word	0x20001442

1000397c <cdcd_control_xfer_cb>:
1000397c:	b538      	push	{r3, r4, r5, lr}
1000397e:	7813      	ldrb	r3, [r2, #0]
10003980:	f003 0360 	and.w	r3, r3, #96	@ 0x60
10003984:	2b20      	cmp	r3, #32
10003986:	d105      	bne.n	10003994 <cdcd_control_xfer_cb+0x18>
10003988:	4c27      	ldr	r4, [pc, #156]	@ (10003a28 <cdcd_control_xfer_cb+0xac>)
1000398a:	8893      	ldrh	r3, [r2, #4]
1000398c:	f894 c000 	ldrb.w	ip, [r4]
10003990:	459c      	cmp	ip, r3
10003992:	d001      	beq.n	10003998 <cdcd_control_xfer_cb+0x1c>
10003994:	2000      	movs	r0, #0
10003996:	bd38      	pop	{r3, r4, r5, pc}
10003998:	7853      	ldrb	r3, [r2, #1]
1000399a:	3b20      	subs	r3, #32
1000399c:	2b03      	cmp	r3, #3
1000399e:	d8f9      	bhi.n	10003994 <cdcd_control_xfer_cb+0x18>
100039a0:	e8df f003 	tbb	[pc, r3]
100039a4:	020d282c 	.word	0x020d282c
100039a8:	2901      	cmp	r1, #1
100039aa:	d033      	beq.n	10003a14 <cdcd_control_xfer_cb+0x98>
100039ac:	2903      	cmp	r1, #3
100039ae:	d123      	bne.n	100039f8 <cdcd_control_xfer_cb+0x7c>
100039b0:	4b1e      	ldr	r3, [pc, #120]	@ (10003a2c <cdcd_control_xfer_cb+0xb0>)
100039b2:	b30b      	cbz	r3, 100039f8 <cdcd_control_xfer_cb+0x7c>
100039b4:	2000      	movs	r0, #0
100039b6:	8851      	ldrh	r1, [r2, #2]
100039b8:	f3af 8000 	nop.w
100039bc:	e01c      	b.n	100039f8 <cdcd_control_xfer_cb+0x7c>
100039be:	2901      	cmp	r1, #1
100039c0:	d028      	beq.n	10003a14 <cdcd_control_xfer_cb+0x98>
100039c2:	2903      	cmp	r1, #3
100039c4:	d118      	bne.n	100039f8 <cdcd_control_xfer_cb+0x7c>
100039c6:	4b1a      	ldr	r3, [pc, #104]	@ (10003a30 <cdcd_control_xfer_cb+0xb4>)
100039c8:	8855      	ldrh	r5, [r2, #2]
100039ca:	7819      	ldrb	r1, [r3, #0]
100039cc:	7125      	strb	r5, [r4, #4]
100039ce:	f011 0104 	ands.w	r1, r1, #4
100039d2:	f005 0401 	and.w	r4, r5, #1
100039d6:	4817      	ldr	r0, [pc, #92]	@ (10003a34 <cdcd_control_xfer_cb+0xb8>)
100039d8:	bf18      	it	ne
100039da:	f084 0101 	eorne.w	r1, r4, #1
100039de:	f000 fde3 	bl	100045a8 <tu_fifo_set_overwritable>
100039e2:	4b15      	ldr	r3, [pc, #84]	@ (10003a38 <cdcd_control_xfer_cb+0xbc>)
100039e4:	b143      	cbz	r3, 100039f8 <cdcd_control_xfer_cb+0x7c>
100039e6:	4621      	mov	r1, r4
100039e8:	2000      	movs	r0, #0
100039ea:	f3c5 0240 	ubfx	r2, r5, #1, #1
100039ee:	f3af 8000 	nop.w
100039f2:	e001      	b.n	100039f8 <cdcd_control_xfer_cb+0x7c>
100039f4:	2901      	cmp	r1, #1
100039f6:	d011      	beq.n	10003a1c <cdcd_control_xfer_cb+0xa0>
100039f8:	2001      	movs	r0, #1
100039fa:	bd38      	pop	{r3, r4, r5, pc}
100039fc:	2901      	cmp	r1, #1
100039fe:	d00d      	beq.n	10003a1c <cdcd_control_xfer_cb+0xa0>
10003a00:	2903      	cmp	r1, #3
10003a02:	d1f9      	bne.n	100039f8 <cdcd_control_xfer_cb+0x7c>
10003a04:	4b0d      	ldr	r3, [pc, #52]	@ (10003a3c <cdcd_control_xfer_cb+0xc0>)
10003a06:	2b00      	cmp	r3, #0
10003a08:	d0f6      	beq.n	100039f8 <cdcd_control_xfer_cb+0x7c>
10003a0a:	2000      	movs	r0, #0
10003a0c:	490c      	ldr	r1, [pc, #48]	@ (10003a40 <cdcd_control_xfer_cb+0xc4>)
10003a0e:	f7fe faa7 	bl	10001f60 <tud_cdc_line_coding_cb>
10003a12:	e7f1      	b.n	100039f8 <cdcd_control_xfer_cb+0x7c>
10003a14:	4611      	mov	r1, r2
10003a16:	f7ff fcbd 	bl	10003394 <tud_control_status>
10003a1a:	e7ed      	b.n	100039f8 <cdcd_control_xfer_cb+0x7c>
10003a1c:	4611      	mov	r1, r2
10003a1e:	2307      	movs	r3, #7
10003a20:	4a07      	ldr	r2, [pc, #28]	@ (10003a40 <cdcd_control_xfer_cb+0xc4>)
10003a22:	f7ff fcd1 	bl	100033c8 <tud_control_xfer>
10003a26:	e7e7      	b.n	100039f8 <cdcd_control_xfer_cb+0x7c>
10003a28:	20001440 	.word	0x20001440
10003a2c:	00000000 	.word	0x00000000
10003a30:	20000ea4 	.word	0x20000ea4
10003a34:	20001464 	.word	0x20001464
10003a38:	00000000 	.word	0x00000000
10003a3c:	10001f61 	.word	0x10001f61
10003a40:	20001448 	.word	0x20001448

10003a44 <cdcd_xfer_cb>:
10003a44:	e92d 47f0 	stmdb	sp!, {r4, r5, r6, r7, r8, r9, sl, lr}
10003a48:	4f37      	ldr	r7, [pc, #220]	@ (10003b28 <cdcd_xfer_cb+0xe4>)
10003a4a:	460c      	mov	r4, r1
10003a4c:	78fa      	ldrb	r2, [r7, #3]
10003a4e:	4606      	mov	r6, r0
10003a50:	428a      	cmp	r2, r1
10003a52:	461d      	mov	r5, r3
10003a54:	f897 c002 	ldrb.w	ip, [r7, #2]
10003a58:	d03d      	beq.n	10003ad6 <cdcd_xfer_cb+0x92>
10003a5a:	458c      	cmp	ip, r1
10003a5c:	d012      	beq.n	10003a84 <cdcd_xfer_cb+0x40>
10003a5e:	f04f 23e0 	mov.w	r3, #3758153728	@ 0xe000e000
10003a62:	f8d3 3df0 	ldr.w	r3, [r3, #3568]	@ 0xdf0
10003a66:	07db      	lsls	r3, r3, #31
10003a68:	d500      	bpl.n	10003a6c <cdcd_xfer_cb+0x28>
10003a6a:	be00      	bkpt	0x0000
10003a6c:	2000      	movs	r0, #0
10003a6e:	e00d      	b.n	10003a8c <cdcd_xfer_cb+0x48>
10003a70:	4b2e      	ldr	r3, [pc, #184]	@ (10003b2c <cdcd_xfer_cb+0xe8>)
10003a72:	b123      	cbz	r3, 10003a7e <cdcd_xfer_cb+0x3a>
10003a74:	482e      	ldr	r0, [pc, #184]	@ (10003b30 <cdcd_xfer_cb+0xec>)
10003a76:	f000 fbad 	bl	100041d4 <tu_fifo_empty>
10003a7a:	2800      	cmp	r0, #0
10003a7c:	d050      	beq.n	10003b20 <cdcd_xfer_cb+0xdc>
10003a7e:	2000      	movs	r0, #0
10003a80:	f7ff fd94 	bl	100035ac <_prep_out_transaction.isra.0>
10003a84:	78bb      	ldrb	r3, [r7, #2]
10003a86:	42a3      	cmp	r3, r4
10003a88:	d002      	beq.n	10003a90 <cdcd_xfer_cb+0x4c>
10003a8a:	2001      	movs	r0, #1
10003a8c:	e8bd 87f0 	ldmia.w	sp!, {r4, r5, r6, r7, r8, r9, sl, pc}
10003a90:	4b28      	ldr	r3, [pc, #160]	@ (10003b34 <cdcd_xfer_cb+0xf0>)
10003a92:	b113      	cbz	r3, 10003a9a <cdcd_xfer_cb+0x56>
10003a94:	2000      	movs	r0, #0
10003a96:	f3af 8000 	nop.w
10003a9a:	2000      	movs	r0, #0
10003a9c:	f7ff fe28 	bl	100036f0 <tud_cdc_n_write_flush>
10003aa0:	2800      	cmp	r0, #0
10003aa2:	d1f2      	bne.n	10003a8a <cdcd_xfer_cb+0x46>
10003aa4:	4824      	ldr	r0, [pc, #144]	@ (10003b38 <cdcd_xfer_cb+0xf4>)
10003aa6:	f000 fb85 	bl	100041b4 <tu_fifo_count>
10003aaa:	2800      	cmp	r0, #0
10003aac:	d1ed      	bne.n	10003a8a <cdcd_xfer_cb+0x46>
10003aae:	2d00      	cmp	r5, #0
10003ab0:	d0eb      	beq.n	10003a8a <cdcd_xfer_cb+0x46>
10003ab2:	f015 053f 	ands.w	r5, r5, #63	@ 0x3f
10003ab6:	d1e8      	bne.n	10003a8a <cdcd_xfer_cb+0x46>
10003ab8:	4630      	mov	r0, r6
10003aba:	78b9      	ldrb	r1, [r7, #2]
10003abc:	f7ff fc0e 	bl	100032dc <usbd_edpt_claim>
10003ac0:	2800      	cmp	r0, #0
10003ac2:	d0e2      	beq.n	10003a8a <cdcd_xfer_cb+0x46>
10003ac4:	462b      	mov	r3, r5
10003ac6:	462a      	mov	r2, r5
10003ac8:	4630      	mov	r0, r6
10003aca:	78b9      	ldrb	r1, [r7, #2]
10003acc:	f7ff fc2a 	bl	10003324 <usbd_edpt_xfer>
10003ad0:	2800      	cmp	r0, #0
10003ad2:	d1da      	bne.n	10003a8a <cdcd_xfer_cb+0x46>
10003ad4:	e7c3      	b.n	10003a5e <cdcd_xfer_cb+0x1a>
10003ad6:	f8df 8068 	ldr.w	r8, [pc, #104]	@ 10003b40 <cdcd_xfer_cb+0xfc>
10003ada:	b29a      	uxth	r2, r3
10003adc:	4641      	mov	r1, r8
10003ade:	f107 0010 	add.w	r0, r7, #16
10003ae2:	f000 fc99 	bl	10004418 <tu_fifo_write_n>
10003ae6:	4b15      	ldr	r3, [pc, #84]	@ (10003b3c <cdcd_xfer_cb+0xf8>)
10003ae8:	2b00      	cmp	r3, #0
10003aea:	d0c1      	beq.n	10003a70 <cdcd_xfer_cb+0x2c>
10003aec:	797b      	ldrb	r3, [r7, #5]
10003aee:	2bff      	cmp	r3, #255	@ 0xff
10003af0:	d0be      	beq.n	10003a70 <cdcd_xfer_cb+0x2c>
10003af2:	2d00      	cmp	r5, #0
10003af4:	d0bc      	beq.n	10003a70 <cdcd_xfer_cb+0x2c>
10003af6:	f107 0910 	add.w	r9, r7, #16
10003afa:	eb08 0a05 	add.w	sl, r8, r5
10003afe:	e002      	b.n	10003b06 <cdcd_xfer_cb+0xc2>
10003b00:	45c2      	cmp	sl, r8
10003b02:	d0b5      	beq.n	10003a70 <cdcd_xfer_cb+0x2c>
10003b04:	797b      	ldrb	r3, [r7, #5]
10003b06:	f818 2b01 	ldrb.w	r2, [r8], #1
10003b0a:	429a      	cmp	r2, r3
10003b0c:	d1f8      	bne.n	10003b00 <cdcd_xfer_cb+0xbc>
10003b0e:	4648      	mov	r0, r9
10003b10:	f000 fb60 	bl	100041d4 <tu_fifo_empty>
10003b14:	2800      	cmp	r0, #0
10003b16:	d1f3      	bne.n	10003b00 <cdcd_xfer_cb+0xbc>
10003b18:	7979      	ldrb	r1, [r7, #5]
10003b1a:	f3af 8000 	nop.w
10003b1e:	e7ef      	b.n	10003b00 <cdcd_xfer_cb+0xbc>
10003b20:	f3af 8000 	nop.w
10003b24:	e7ab      	b.n	10003a7e <cdcd_xfer_cb+0x3a>
10003b26:	bf00      	nop
10003b28:	20001440 	.word	0x20001440
10003b2c:	00000000 	.word	0x00000000
10003b30:	20001450 	.word	0x20001450
10003b34:	00000000 	.word	0x00000000
10003b38:	20001464 	.word	0x20001464
10003b3c:	00000000 	.word	0x00000000
10003b40:	20001af8 	.word	0x20001af8

10003b44 <vendord_init>:
10003b44:	b5f0      	push	{r4, r5, r6, r7, lr}
10003b46:	4c14      	ldr	r4, [pc, #80]	@ (10003b98 <vendord_init+0x54>)
10003b48:	b085      	sub	sp, #20
10003b4a:	f44f 7213 	mov.w	r2, #588	@ 0x24c
10003b4e:	2100      	movs	r1, #0
10003b50:	4620      	mov	r0, r4
10003b52:	f003 fd3d 	bl	100075d0 <memset>
10003b56:	2740      	movs	r7, #64	@ 0x40
10003b58:	2300      	movs	r3, #0
10003b5a:	f44f 7680 	mov.w	r6, #256	@ 0x100
10003b5e:	4d0f      	ldr	r5, [pc, #60]	@ (10003b9c <vendord_init+0x58>)
10003b60:	f504 72a6 	add.w	r2, r4, #332	@ 0x14c
10003b64:	4619      	mov	r1, r3
10003b66:	e9cd 5702 	strd	r5, r7, [sp, #8]
10003b6a:	9200      	str	r2, [sp, #0]
10003b6c:	9601      	str	r6, [sp, #4]
10003b6e:	461a      	mov	r2, r3
10003b70:	f504 7094 	add.w	r0, r4, #296	@ 0x128
10003b74:	f000 f9ec 	bl	10003f50 <tu_edpt_stream_init>
10003b78:	2300      	movs	r3, #0
10003b7a:	f104 0128 	add.w	r1, r4, #40	@ 0x28
10003b7e:	443d      	add	r5, r7
10003b80:	9100      	str	r1, [sp, #0]
10003b82:	2201      	movs	r2, #1
10003b84:	4619      	mov	r1, r3
10003b86:	e9cd 5702 	strd	r5, r7, [sp, #8]
10003b8a:	9601      	str	r6, [sp, #4]
10003b8c:	1d20      	adds	r0, r4, #4
10003b8e:	f000 f9df 	bl	10003f50 <tu_edpt_stream_init>
10003b92:	b005      	add	sp, #20
10003b94:	bdf0      	pop	{r4, r5, r6, r7, pc}
10003b96:	bf00      	nop
10003b98:	20001d94 	.word	0x20001d94
10003b9c:	20001d14 	.word	0x20001d14

10003ba0 <vendord_deinit>:
10003ba0:	b510      	push	{r4, lr}
10003ba2:	4c05      	ldr	r4, [pc, #20]	@ (10003bb8 <vendord_deinit+0x18>)
10003ba4:	4620      	mov	r0, r4
10003ba6:	f000 f9ff 	bl	10003fa8 <tu_edpt_stream_deinit>
10003baa:	f5a4 7092 	sub.w	r0, r4, #292	@ 0x124
10003bae:	f000 f9fb 	bl	10003fa8 <tu_edpt_stream_deinit>
10003bb2:	2001      	movs	r0, #1
10003bb4:	bd10      	pop	{r4, pc}
10003bb6:	bf00      	nop
10003bb8:	20001ebc 	.word	0x20001ebc

10003bbc <vendord_reset>:
10003bbc:	b538      	push	{r3, r4, r5, lr}
10003bbe:	2500      	movs	r5, #0
10003bc0:	4c06      	ldr	r4, [pc, #24]	@ (10003bdc <vendord_reset+0x20>)
10003bc2:	f504 7098 	add.w	r0, r4, #304	@ 0x130
10003bc6:	7025      	strb	r5, [r4, #0]
10003bc8:	f000 fcd2 	bl	10004570 <tu_fifo_clear>
10003bcc:	f104 000c 	add.w	r0, r4, #12
10003bd0:	f000 fcce 	bl	10004570 <tu_fifo_clear>
10003bd4:	f884 5129 	strb.w	r5, [r4, #297]	@ 0x129
10003bd8:	7165      	strb	r5, [r4, #5]
10003bda:	bd38      	pop	{r3, r4, r5, pc}
10003bdc:	20001d94 	.word	0x20001d94

10003be0 <vendord_open>:
10003be0:	e92d 4ff8 	stmdb	sp!, {r3, r4, r5, r6, r7, r8, r9, sl, fp, lr}
10003be4:	794b      	ldrb	r3, [r1, #5]
10003be6:	2bff      	cmp	r3, #255	@ 0xff
10003be8:	d002      	beq.n	10003bf0 <vendord_open+0x10>
10003bea:	2000      	movs	r0, #0
10003bec:	e8bd 8ff8 	ldmia.w	sp!, {r3, r4, r5, r6, r7, r8, r9, sl, fp, pc}
10003bf0:	4d39      	ldr	r5, [pc, #228]	@ (10003cd8 <vendord_open+0xf8>)
10003bf2:	460e      	mov	r6, r1
10003bf4:	f895 3129 	ldrb.w	r3, [r5, #297]	@ 0x129
10003bf8:	780c      	ldrb	r4, [r1, #0]
10003bfa:	2b00      	cmp	r3, #0
10003bfc:	d1f5      	bne.n	10003bea <vendord_open+0xa>
10003bfe:	796f      	ldrb	r7, [r5, #5]
10003c00:	2f00      	cmp	r7, #0
10003c02:	d1f2      	bne.n	10003bea <vendord_open+0xa>
10003c04:	788b      	ldrb	r3, [r1, #2]
10003c06:	440c      	add	r4, r1
10003c08:	702b      	strb	r3, [r5, #0]
10003c0a:	790b      	ldrb	r3, [r1, #4]
10003c0c:	2b00      	cmp	r3, #0
10003c0e:	d03e      	beq.n	10003c8e <vendord_open+0xae>
10003c10:	4680      	mov	r8, r0
10003c12:	eb01 0b02 	add.w	fp, r1, r2
10003c16:	f505 7a98 	add.w	sl, r5, #304	@ 0x130
10003c1a:	f505 7994 	add.w	r9, r5, #296	@ 0x128
10003c1e:	7863      	ldrb	r3, [r4, #1]
10003c20:	2b05      	cmp	r3, #5
10003c22:	d009      	beq.n	10003c38 <vendord_open+0x58>
10003c24:	45a3      	cmp	fp, r4
10003c26:	d802      	bhi.n	10003c2e <vendord_open+0x4e>
10003c28:	e031      	b.n	10003c8e <vendord_open+0xae>
10003c2a:	455c      	cmp	r4, fp
10003c2c:	d22f      	bcs.n	10003c8e <vendord_open+0xae>
10003c2e:	7823      	ldrb	r3, [r4, #0]
10003c30:	441c      	add	r4, r3
10003c32:	7863      	ldrb	r3, [r4, #1]
10003c34:	2b05      	cmp	r3, #5
10003c36:	d1f8      	bne.n	10003c2a <vendord_open+0x4a>
10003c38:	45a3      	cmp	fp, r4
10003c3a:	d928      	bls.n	10003c8e <vendord_open+0xae>
10003c3c:	4621      	mov	r1, r4
10003c3e:	4640      	mov	r0, r8
10003c40:	f7ff fb2a 	bl	10003298 <usbd_edpt_open>
10003c44:	2800      	cmp	r0, #0
10003c46:	d03e      	beq.n	10003cc6 <vendord_open+0xe6>
10003c48:	78a3      	ldrb	r3, [r4, #2]
10003c4a:	09db      	lsrs	r3, r3, #7
10003c4c:	d123      	bne.n	10003c96 <vendord_open+0xb6>
10003c4e:	4650      	mov	r0, sl
10003c50:	f000 fc8e 	bl	10004570 <tu_fifo_clear>
10003c54:	78a3      	ldrb	r3, [r4, #2]
10003c56:	f895 1128 	ldrb.w	r1, [r5, #296]	@ 0x128
10003c5a:	f885 3129 	strb.w	r3, [r5, #297]	@ 0x129
10003c5e:	88a3      	ldrh	r3, [r4, #4]
10003c60:	4640      	mov	r0, r8
10003c62:	f3c3 030a 	ubfx	r3, r3, #0, #11
10003c66:	f5a3 7300 	sub.w	r3, r3, #512	@ 0x200
10003c6a:	fab3 f383 	clz	r3, r3
10003c6e:	095b      	lsrs	r3, r3, #5
10003c70:	f363 0141 	bfi	r1, r3, #1, #1
10003c74:	f885 1128 	strb.w	r1, [r5, #296]	@ 0x128
10003c78:	4649      	mov	r1, r9
10003c7a:	f000 fa03 	bl	10004084 <tu_edpt_stream_read_xfer>
10003c7e:	b310      	cbz	r0, 10003cc6 <vendord_open+0xe6>
10003c80:	7823      	ldrb	r3, [r4, #0]
10003c82:	7931      	ldrb	r1, [r6, #4]
10003c84:	3701      	adds	r7, #1
10003c86:	441c      	add	r4, r3
10003c88:	b2fb      	uxtb	r3, r7
10003c8a:	4299      	cmp	r1, r3
10003c8c:	d8c7      	bhi.n	10003c1e <vendord_open+0x3e>
10003c8e:	1ba1      	subs	r1, r4, r6
10003c90:	b288      	uxth	r0, r1
10003c92:	e8bd 8ff8 	ldmia.w	sp!, {r3, r4, r5, r6, r7, r8, r9, sl, fp, pc}
10003c96:	4811      	ldr	r0, [pc, #68]	@ (10003cdc <vendord_open+0xfc>)
10003c98:	f000 fc6a 	bl	10004570 <tu_fifo_clear>
10003c9c:	78a3      	ldrb	r3, [r4, #2]
10003c9e:	f895 c004 	ldrb.w	ip, [r5, #4]
10003ca2:	716b      	strb	r3, [r5, #5]
10003ca4:	88a3      	ldrh	r3, [r4, #4]
10003ca6:	490e      	ldr	r1, [pc, #56]	@ (10003ce0 <vendord_open+0x100>)
10003ca8:	f3c3 030a 	ubfx	r3, r3, #0, #11
10003cac:	f5a3 7300 	sub.w	r3, r3, #512	@ 0x200
10003cb0:	fab3 f383 	clz	r3, r3
10003cb4:	095b      	lsrs	r3, r3, #5
10003cb6:	f363 0c41 	bfi	ip, r3, #1, #1
10003cba:	2000      	movs	r0, #0
10003cbc:	f885 c004 	strb.w	ip, [r5, #4]
10003cc0:	f000 f9a8 	bl	10004014 <tu_edpt_stream_write_xfer>
10003cc4:	e7dc      	b.n	10003c80 <vendord_open+0xa0>
10003cc6:	f04f 23e0 	mov.w	r3, #3758153728	@ 0xe000e000
10003cca:	f8d3 3df0 	ldr.w	r3, [r3, #3568]	@ 0xdf0
10003cce:	07db      	lsls	r3, r3, #31
10003cd0:	d58b      	bpl.n	10003bea <vendord_open+0xa>
10003cd2:	be00      	bkpt	0x0000
10003cd4:	e789      	b.n	10003bea <vendord_open+0xa>
10003cd6:	bf00      	nop
10003cd8:	20001d94 	.word	0x20001d94
10003cdc:	20001da0 	.word	0x20001da0
10003ce0:	20001d98 	.word	0x20001d98

10003ce4 <vendord_xfer_cb>:
10003ce4:	b570      	push	{r4, r5, r6, lr}
10003ce6:	4c1b      	ldr	r4, [pc, #108]	@ (10003d54 <vendord_xfer_cb+0x70>)
10003ce8:	4606      	mov	r6, r0
10003cea:	f894 c129 	ldrb.w	ip, [r4, #297]	@ 0x129
10003cee:	461d      	mov	r5, r3
10003cf0:	458c      	cmp	ip, r1
10003cf2:	7962      	ldrb	r2, [r4, #5]
10003cf4:	d004      	beq.n	10003d00 <vendord_xfer_cb+0x1c>
10003cf6:	428a      	cmp	r2, r1
10003cf8:	bf18      	it	ne
10003cfa:	2000      	movne	r0, #0
10003cfc:	d018      	beq.n	10003d30 <vendord_xfer_cb+0x4c>
10003cfe:	bd70      	pop	{r4, r5, r6, pc}
10003d00:	f8b4 3134 	ldrh.w	r3, [r4, #308]	@ 0x134
10003d04:	b963      	cbnz	r3, 10003d20 <vendord_xfer_cb+0x3c>
10003d06:	4b14      	ldr	r3, [pc, #80]	@ (10003d58 <vendord_xfer_cb+0x74>)
10003d08:	b123      	cbz	r3, 10003d14 <vendord_xfer_cb+0x30>
10003d0a:	2000      	movs	r0, #0
10003d0c:	4913      	ldr	r1, [pc, #76]	@ (10003d5c <vendord_xfer_cb+0x78>)
10003d0e:	b2aa      	uxth	r2, r5
10003d10:	f3af 8000 	nop.w
10003d14:	4630      	mov	r0, r6
10003d16:	4912      	ldr	r1, [pc, #72]	@ (10003d60 <vendord_xfer_cb+0x7c>)
10003d18:	f000 f9b4 	bl	10004084 <tu_edpt_stream_read_xfer>
10003d1c:	2001      	movs	r0, #1
10003d1e:	bd70      	pop	{r4, r5, r6, pc}
10003d20:	f8d4 112c 	ldr.w	r1, [r4, #300]	@ 0x12c
10003d24:	b2aa      	uxth	r2, r5
10003d26:	f504 7098 	add.w	r0, r4, #304	@ 0x130
10003d2a:	f000 fb75 	bl	10004418 <tu_fifo_write_n>
10003d2e:	e7ea      	b.n	10003d06 <vendord_xfer_cb+0x22>
10003d30:	4b0c      	ldr	r3, [pc, #48]	@ (10003d64 <vendord_xfer_cb+0x80>)
10003d32:	b11b      	cbz	r3, 10003d3c <vendord_xfer_cb+0x58>
10003d34:	2000      	movs	r0, #0
10003d36:	b2a9      	uxth	r1, r5
10003d38:	f3af 8000 	nop.w
10003d3c:	4630      	mov	r0, r6
10003d3e:	490a      	ldr	r1, [pc, #40]	@ (10003d68 <vendord_xfer_cb+0x84>)
10003d40:	f000 f968 	bl	10004014 <tu_edpt_stream_write_xfer>
10003d44:	2800      	cmp	r0, #0
10003d46:	d1e9      	bne.n	10003d1c <vendord_xfer_cb+0x38>
10003d48:	462a      	mov	r2, r5
10003d4a:	4630      	mov	r0, r6
10003d4c:	4906      	ldr	r1, [pc, #24]	@ (10003d68 <vendord_xfer_cb+0x84>)
10003d4e:	f000 f92d 	bl	10003fac <tu_edpt_stream_write_zlp_if_needed>
10003d52:	e7e3      	b.n	10003d1c <vendord_xfer_cb+0x38>
10003d54:	20001d94 	.word	0x20001d94
10003d58:	00000000 	.word	0x00000000
10003d5c:	20001d14 	.word	0x20001d14
10003d60:	20001ebc 	.word	0x20001ebc
10003d64:	00000000 	.word	0x00000000
10003d68:	20001d98 	.word	0x20001d98

10003d6c <tusb_rhport_init>:
10003d6c:	b510      	push	{r4, lr}
10003d6e:	b082      	sub	sp, #8
10003d70:	b1b9      	cbz	r1, 10003da2 <tusb_rhport_init+0x36>
10003d72:	2801      	cmp	r0, #1
10003d74:	d80c      	bhi.n	10003d90 <tusb_rhport_init+0x24>
10003d76:	780b      	ldrb	r3, [r1, #0]
10003d78:	b153      	cbz	r3, 10003d90 <tusb_rhport_init+0x24>
10003d7a:	4c13      	ldr	r4, [pc, #76]	@ (10003dc8 <tusb_rhport_init+0x5c>)
10003d7c:	2b01      	cmp	r3, #1
10003d7e:	5423      	strb	r3, [r4, r0]
10003d80:	d002      	beq.n	10003d88 <tusb_rhport_init+0x1c>
10003d82:	2001      	movs	r0, #1
10003d84:	b002      	add	sp, #8
10003d86:	bd10      	pop	{r4, pc}
10003d88:	f7fe fdfc 	bl	10002984 <tud_rhport_init>
10003d8c:	2800      	cmp	r0, #0
10003d8e:	d1f8      	bne.n	10003d82 <tusb_rhport_init+0x16>
10003d90:	f04f 23e0 	mov.w	r3, #3758153728	@ 0xe000e000
10003d94:	f8d3 3df0 	ldr.w	r3, [r3, #3568]	@ 0xdf0
10003d98:	07db      	lsls	r3, r3, #31
10003d9a:	d500      	bpl.n	10003d9e <tusb_rhport_init+0x32>
10003d9c:	be00      	bkpt	0x0000
10003d9e:	2000      	movs	r0, #0
10003da0:	e7f0      	b.n	10003d84 <tusb_rhport_init+0x18>
10003da2:	2401      	movs	r4, #1
10003da4:	4608      	mov	r0, r1
10003da6:	a901      	add	r1, sp, #4
10003da8:	f8ad 4004 	strh.w	r4, [sp, #4]
10003dac:	f7fe fdea 	bl	10002984 <tud_rhport_init>
10003db0:	b938      	cbnz	r0, 10003dc2 <tusb_rhport_init+0x56>
10003db2:	f04f 23e0 	mov.w	r3, #3758153728	@ 0xe000e000
10003db6:	f8d3 3df0 	ldr.w	r3, [r3, #3568]	@ 0xdf0
10003dba:	07da      	lsls	r2, r3, #31
10003dbc:	d5e2      	bpl.n	10003d84 <tusb_rhport_init+0x18>
10003dbe:	be00      	bkpt	0x0000
10003dc0:	e7e0      	b.n	10003d84 <tusb_rhport_init+0x18>
10003dc2:	4b01      	ldr	r3, [pc, #4]	@ (10003dc8 <tusb_rhport_init+0x5c>)
10003dc4:	701c      	strb	r4, [r3, #0]
10003dc6:	e7dd      	b.n	10003d84 <tusb_rhport_init+0x18>
10003dc8:	20001bec 	.word	0x20001bec

10003dcc <tu_edpt_claim>:
10003dcc:	b5f8      	push	{r3, r4, r5, r6, r7, lr}
10003dce:	7803      	ldrb	r3, [r0, #0]
10003dd0:	f013 0401 	ands.w	r4, r3, #1
10003dd4:	d11a      	bne.n	10003e0c <tu_edpt_claim+0x40>
10003dd6:	7803      	ldrb	r3, [r0, #0]
10003dd8:	4605      	mov	r5, r0
10003dda:	075a      	lsls	r2, r3, #29
10003ddc:	f3c3 0780 	ubfx	r7, r3, #2, #1
10003de0:	d501      	bpl.n	10003de6 <tu_edpt_claim+0x1a>
10003de2:	4620      	mov	r0, r4
10003de4:	bdf8      	pop	{r3, r4, r5, r6, r7, pc}
10003de6:	460e      	mov	r6, r1
10003de8:	f04f 31ff 	mov.w	r1, #4294967295	@ 0xffffffff
10003dec:	4630      	mov	r0, r6
10003dee:	f004 f973 	bl	100080d8 <__mutex_enter_timeout_ms_veneer>
10003df2:	782b      	ldrb	r3, [r5, #0]
10003df4:	f013 0401 	ands.w	r4, r3, #1
10003df8:	d10b      	bne.n	10003e12 <tu_edpt_claim+0x46>
10003dfa:	782b      	ldrb	r3, [r5, #0]
10003dfc:	075b      	lsls	r3, r3, #29
10003dfe:	d409      	bmi.n	10003e14 <tu_edpt_claim+0x48>
10003e00:	782b      	ldrb	r3, [r5, #0]
10003e02:	2401      	movs	r4, #1
10003e04:	f043 0304 	orr.w	r3, r3, #4
10003e08:	702b      	strb	r3, [r5, #0]
10003e0a:	e003      	b.n	10003e14 <tu_edpt_claim+0x48>
10003e0c:	2400      	movs	r4, #0
10003e0e:	4620      	mov	r0, r4
10003e10:	bdf8      	pop	{r3, r4, r5, r6, r7, pc}
10003e12:	463c      	mov	r4, r7
10003e14:	4630      	mov	r0, r6
10003e16:	f004 f967 	bl	100080e8 <__mutex_exit_veneer>
10003e1a:	4620      	mov	r0, r4
10003e1c:	bdf8      	pop	{r3, r4, r5, r6, r7, pc}
10003e1e:	bf00      	nop

10003e20 <tu_edpt_release>:
10003e20:	b570      	push	{r4, r5, r6, lr}
10003e22:	460c      	mov	r4, r1
10003e24:	4605      	mov	r5, r0
10003e26:	f04f 31ff 	mov.w	r1, #4294967295	@ 0xffffffff
10003e2a:	4620      	mov	r0, r4
10003e2c:	f004 f954 	bl	100080d8 <__mutex_enter_timeout_ms_veneer>
10003e30:	782b      	ldrb	r3, [r5, #0]
10003e32:	f3c3 0680 	ubfx	r6, r3, #2, #1
10003e36:	075b      	lsls	r3, r3, #29
10003e38:	d508      	bpl.n	10003e4c <tu_edpt_release+0x2c>
10003e3a:	782b      	ldrb	r3, [r5, #0]
10003e3c:	f013 0301 	ands.w	r3, r3, #1
10003e40:	bf11      	iteee	ne
10003e42:	2600      	movne	r6, #0
10003e44:	782a      	ldrbeq	r2, [r5, #0]
10003e46:	f363 0282 	bfieq	r2, r3, #2, #1
10003e4a:	702a      	strbeq	r2, [r5, #0]
10003e4c:	4620      	mov	r0, r4
10003e4e:	f004 f94b 	bl	100080e8 <__mutex_exit_veneer>
10003e52:	4630      	mov	r0, r6
10003e54:	bd70      	pop	{r4, r5, r6, pc}
10003e56:	bf00      	nop

10003e58 <tu_edpt_validate>:
10003e58:	b500      	push	{lr}
10003e5a:	78c3      	ldrb	r3, [r0, #3]
10003e5c:	f8b0 e004 	ldrh.w	lr, [r0, #4]
10003e60:	f003 0303 	and.w	r3, r3, #3
10003e64:	2b02      	cmp	r3, #2
10003e66:	f3ce 0c0a 	ubfx	ip, lr, #0, #11
10003e6a:	d015      	beq.n	10003e98 <tu_edpt_validate+0x40>
10003e6c:	2b03      	cmp	r3, #3
10003e6e:	d004      	beq.n	10003e7a <tu_edpt_validate+0x22>
10003e70:	2b01      	cmp	r3, #1
10003e72:	d028      	beq.n	10003ec6 <tu_edpt_validate+0x6e>
10003e74:	2000      	movs	r0, #0
10003e76:	f85d fb04 	ldr.w	pc, [sp], #4
10003e7a:	2902      	cmp	r1, #2
10003e7c:	bf14      	ite	ne
10003e7e:	2340      	movne	r3, #64	@ 0x40
10003e80:	f44f 6380 	moveq.w	r3, #1024	@ 0x400
10003e84:	4563      	cmp	r3, ip
10003e86:	d21c      	bcs.n	10003ec2 <tu_edpt_validate+0x6a>
10003e88:	f04f 23e0 	mov.w	r3, #3758153728	@ 0xe000e000
10003e8c:	f8d3 3df0 	ldr.w	r3, [r3, #3568]	@ 0xdf0
10003e90:	07da      	lsls	r2, r3, #31
10003e92:	d5ef      	bpl.n	10003e74 <tu_edpt_validate+0x1c>
10003e94:	be00      	bkpt	0x0000
10003e96:	e7ed      	b.n	10003e74 <tu_edpt_validate+0x1c>
10003e98:	2902      	cmp	r1, #2
10003e9a:	d01d      	beq.n	10003ed8 <tu_edpt_validate+0x80>
10003e9c:	b112      	cbz	r2, 10003ea4 <tu_edpt_validate+0x4c>
10003e9e:	f5bc 7f00 	cmp.w	ip, #512	@ 0x200
10003ea2:	d021      	beq.n	10003ee8 <tu_edpt_validate+0x90>
10003ea4:	f1bc 0f20 	cmp.w	ip, #32
10003ea8:	d81a      	bhi.n	10003ee0 <tu_edpt_validate+0x88>
10003eaa:	f41e 6fff 	tst.w	lr, #2040	@ 0x7f8
10003eae:	d0eb      	beq.n	10003e88 <tu_edpt_validate+0x30>
10003eb0:	4b10      	ldr	r3, [pc, #64]	@ (10003ef4 <tu_edpt_validate+0x9c>)
10003eb2:	f1ac 0c08 	sub.w	ip, ip, #8
10003eb6:	fa1f fc8c 	uxth.w	ip, ip
10003eba:	fa23 f30c 	lsr.w	r3, r3, ip
10003ebe:	07db      	lsls	r3, r3, #31
10003ec0:	d5e2      	bpl.n	10003e88 <tu_edpt_validate+0x30>
10003ec2:	2001      	movs	r0, #1
10003ec4:	e7d7      	b.n	10003e76 <tu_edpt_validate+0x1e>
10003ec6:	2902      	cmp	r1, #2
10003ec8:	f240 33ff 	movw	r3, #1023	@ 0x3ff
10003ecc:	bf08      	it	eq
10003ece:	f44f 6380 	moveq.w	r3, #1024	@ 0x400
10003ed2:	4563      	cmp	r3, ip
10003ed4:	d2f5      	bcs.n	10003ec2 <tu_edpt_validate+0x6a>
10003ed6:	e7d7      	b.n	10003e88 <tu_edpt_validate+0x30>
10003ed8:	f5bc 7f00 	cmp.w	ip, #512	@ 0x200
10003edc:	d0f1      	beq.n	10003ec2 <tu_edpt_validate+0x6a>
10003ede:	e7d3      	b.n	10003e88 <tu_edpt_validate+0x30>
10003ee0:	f1bc 0f40 	cmp.w	ip, #64	@ 0x40
10003ee4:	d0ed      	beq.n	10003ec2 <tu_edpt_validate+0x6a>
10003ee6:	e7cf      	b.n	10003e88 <tu_edpt_validate+0x30>
10003ee8:	2200      	movs	r2, #0
10003eea:	2340      	movs	r3, #64	@ 0x40
10003eec:	7142      	strb	r2, [r0, #5]
10003eee:	7103      	strb	r3, [r0, #4]
10003ef0:	e7e7      	b.n	10003ec2 <tu_edpt_validate+0x6a>
10003ef2:	bf00      	nop
10003ef4:	01000101 	.word	0x01000101

10003ef8 <tu_edpt_bind_driver>:
10003ef8:	440a      	add	r2, r1
10003efa:	4291      	cmp	r1, r2
10003efc:	d226      	bcs.n	10003f4c <tu_edpt_bind_driver+0x54>
10003efe:	f891 c001 	ldrb.w	ip, [r1, #1]
10003f02:	f1bc 0f05 	cmp.w	ip, #5
10003f06:	d005      	beq.n	10003f14 <tu_edpt_bind_driver+0x1c>
10003f08:	f891 c000 	ldrb.w	ip, [r1]
10003f0c:	4461      	add	r1, ip
10003f0e:	428a      	cmp	r2, r1
10003f10:	d8f5      	bhi.n	10003efe <tu_edpt_bind_driver+0x6>
10003f12:	4770      	bx	lr
10003f14:	b500      	push	{lr}
10003f16:	f891 c002 	ldrb.w	ip, [r1, #2]
10003f1a:	f00c 0e7f 	and.w	lr, ip, #127	@ 0x7f
10003f1e:	eb00 0e4e 	add.w	lr, r0, lr, lsl #1
10003f22:	ea4f 1cdc 	mov.w	ip, ip, lsr #7
10003f26:	f80e 300c 	strb.w	r3, [lr, ip]
10003f2a:	f891 c000 	ldrb.w	ip, [r1]
10003f2e:	4461      	add	r1, ip
10003f30:	428a      	cmp	r2, r1
10003f32:	d909      	bls.n	10003f48 <tu_edpt_bind_driver+0x50>
10003f34:	f891 c001 	ldrb.w	ip, [r1, #1]
10003f38:	f1bc 0f05 	cmp.w	ip, #5
10003f3c:	d0eb      	beq.n	10003f16 <tu_edpt_bind_driver+0x1e>
10003f3e:	f891 c000 	ldrb.w	ip, [r1]
10003f42:	4461      	add	r1, ip
10003f44:	428a      	cmp	r2, r1
10003f46:	d8f5      	bhi.n	10003f34 <tu_edpt_bind_driver+0x3c>
10003f48:	f85d fb04 	ldr.w	pc, [sp], #4
10003f4c:	4770      	bx	lr
10003f4e:	bf00      	nop

10003f50 <tu_edpt_stream_init>:
10003f50:	e92d 41f0 	stmdb	sp!, {r4, r5, r6, r7, r8, lr}
10003f54:	468e      	mov	lr, r1
10003f56:	b082      	sub	sp, #8
10003f58:	9300      	str	r3, [sp, #0]
10003f5a:	f890 c000 	ldrb.w	ip, [r0]
10003f5e:	9e08      	ldr	r6, [sp, #32]
10003f60:	f8bd 7024 	ldrh.w	r7, [sp, #36]	@ 0x24
10003f64:	f36e 0c00 	bfi	ip, lr, #0, #1
10003f68:	4604      	mov	r4, r0
10003f6a:	4615      	mov	r5, r2
10003f6c:	2301      	movs	r3, #1
10003f6e:	4631      	mov	r1, r6
10003f70:	463a      	mov	r2, r7
10003f72:	f800 cb08 	strb.w	ip, [r0], #8
10003f76:	f8bd 802c 	ldrh.w	r8, [sp, #44]	@ 0x2c
10003f7a:	f000 f8eb 	bl	10004154 <tu_fifo_config>
10003f7e:	b106      	cbz	r6, 10003f82 <tu_edpt_stream_init+0x32>
10003f80:	b93f      	cbnz	r7, 10003f92 <tu_edpt_stream_init+0x42>
10003f82:	2001      	movs	r0, #1
10003f84:	9b0a      	ldr	r3, [sp, #40]	@ 0x28
10003f86:	f8a4 8002 	strh.w	r8, [r4, #2]
10003f8a:	6063      	str	r3, [r4, #4]
10003f8c:	b002      	add	sp, #8
10003f8e:	e8bd 81f0 	ldmia.w	sp!, {r4, r5, r6, r7, r8, pc}
10003f92:	f104 061c 	add.w	r6, r4, #28
10003f96:	4630      	mov	r0, r6
10003f98:	f7fc fde6 	bl	10000b68 <mutex_init>
10003f9c:	b10d      	cbz	r5, 10003fa2 <tu_edpt_stream_init+0x52>
10003f9e:	4635      	mov	r5, r6
10003fa0:	2600      	movs	r6, #0
10003fa2:	e9c4 5605 	strd	r5, r6, [r4, #20]
10003fa6:	e7ec      	b.n	10003f82 <tu_edpt_stream_init+0x32>

10003fa8 <tu_edpt_stream_deinit>:
10003fa8:	2001      	movs	r0, #1
10003faa:	4770      	bx	lr

10003fac <tu_edpt_stream_write_zlp_if_needed>:
10003fac:	b5f8      	push	{r3, r4, r5, r6, r7, lr}
10003fae:	4607      	mov	r7, r0
10003fb0:	4608      	mov	r0, r1
10003fb2:	f240 13ff 	movw	r3, #511	@ 0x1ff
10003fb6:	4615      	mov	r5, r2
10003fb8:	f810 2b08 	ldrb.w	r2, [r0], #8
10003fbc:	460c      	mov	r4, r1
10003fbe:	f012 0f02 	tst.w	r2, #2
10003fc2:	bf0c      	ite	eq
10003fc4:	263f      	moveq	r6, #63	@ 0x3f
10003fc6:	461e      	movne	r6, r3
10003fc8:	f000 f8f4 	bl	100041b4 <tu_fifo_count>
10003fcc:	b928      	cbnz	r0, 10003fda <tu_edpt_stream_write_zlp_if_needed+0x2e>
10003fce:	b125      	cbz	r5, 10003fda <tu_edpt_stream_write_zlp_if_needed+0x2e>
10003fd0:	422e      	tst	r6, r5
10003fd2:	d102      	bne.n	10003fda <tu_edpt_stream_write_zlp_if_needed+0x2e>
10003fd4:	7823      	ldrb	r3, [r4, #0]
10003fd6:	07da      	lsls	r2, r3, #31
10003fd8:	d501      	bpl.n	10003fde <tu_edpt_stream_write_zlp_if_needed+0x32>
10003fda:	2000      	movs	r0, #0
10003fdc:	bdf8      	pop	{r3, r4, r5, r6, r7, pc}
10003fde:	4638      	mov	r0, r7
10003fe0:	7861      	ldrb	r1, [r4, #1]
10003fe2:	f7ff f97b 	bl	100032dc <usbd_edpt_claim>
10003fe6:	2800      	cmp	r0, #0
10003fe8:	d0f7      	beq.n	10003fda <tu_edpt_stream_write_zlp_if_needed+0x2e>
10003fea:	7823      	ldrb	r3, [r4, #0]
10003fec:	f013 0301 	ands.w	r3, r3, #1
10003ff0:	d007      	beq.n	10004002 <tu_edpt_stream_write_zlp_if_needed+0x56>
10003ff2:	f04f 23e0 	mov.w	r3, #3758153728	@ 0xe000e000
10003ff6:	f8d3 3df0 	ldr.w	r3, [r3, #3568]	@ 0xdf0
10003ffa:	07db      	lsls	r3, r3, #31
10003ffc:	d5ed      	bpl.n	10003fda <tu_edpt_stream_write_zlp_if_needed+0x2e>
10003ffe:	be00      	bkpt	0x0000
10004000:	e7eb      	b.n	10003fda <tu_edpt_stream_write_zlp_if_needed+0x2e>
10004002:	461a      	mov	r2, r3
10004004:	4638      	mov	r0, r7
10004006:	7861      	ldrb	r1, [r4, #1]
10004008:	f7ff f98c 	bl	10003324 <usbd_edpt_xfer>
1000400c:	2800      	cmp	r0, #0
1000400e:	d0f0      	beq.n	10003ff2 <tu_edpt_stream_write_zlp_if_needed+0x46>
10004010:	bdf8      	pop	{r3, r4, r5, r6, r7, pc}
10004012:	bf00      	nop

10004014 <tu_edpt_stream_write_xfer>:
10004014:	b570      	push	{r4, r5, r6, lr}
10004016:	f101 0508 	add.w	r5, r1, #8
1000401a:	4606      	mov	r6, r0
1000401c:	4628      	mov	r0, r5
1000401e:	460c      	mov	r4, r1
10004020:	f000 f8c8 	bl	100041b4 <tu_fifo_count>
10004024:	b110      	cbz	r0, 1000402c <tu_edpt_stream_write_xfer+0x18>
10004026:	7823      	ldrb	r3, [r4, #0]
10004028:	07d8      	lsls	r0, r3, #31
1000402a:	d501      	bpl.n	10004030 <tu_edpt_stream_write_xfer+0x1c>
1000402c:	2000      	movs	r0, #0
1000402e:	bd70      	pop	{r4, r5, r6, pc}
10004030:	4630      	mov	r0, r6
10004032:	7861      	ldrb	r1, [r4, #1]
10004034:	f7ff f952 	bl	100032dc <usbd_edpt_claim>
10004038:	2800      	cmp	r0, #0
1000403a:	d0f7      	beq.n	1000402c <tu_edpt_stream_write_xfer+0x18>
1000403c:	4628      	mov	r0, r5
1000403e:	8862      	ldrh	r2, [r4, #2]
10004040:	6861      	ldr	r1, [r4, #4]
10004042:	f000 f92d 	bl	100042a0 <tu_fifo_read_n>
10004046:	7823      	ldrb	r3, [r4, #0]
10004048:	4605      	mov	r5, r0
1000404a:	b148      	cbz	r0, 10004060 <tu_edpt_stream_write_xfer+0x4c>
1000404c:	07d9      	lsls	r1, r3, #31
1000404e:	d50e      	bpl.n	1000406e <tu_edpt_stream_write_xfer+0x5a>
10004050:	f04f 23e0 	mov.w	r3, #3758153728	@ 0xe000e000
10004054:	f8d3 3df0 	ldr.w	r3, [r3, #3568]	@ 0xdf0
10004058:	07da      	lsls	r2, r3, #31
1000405a:	d5e7      	bpl.n	1000402c <tu_edpt_stream_write_xfer+0x18>
1000405c:	be00      	bkpt	0x0000
1000405e:	e7e5      	b.n	1000402c <tu_edpt_stream_write_xfer+0x18>
10004060:	07db      	lsls	r3, r3, #31
10004062:	d4e3      	bmi.n	1000402c <tu_edpt_stream_write_xfer+0x18>
10004064:	4630      	mov	r0, r6
10004066:	7861      	ldrb	r1, [r4, #1]
10004068:	f7ff f94a 	bl	10003300 <usbd_edpt_release>
1000406c:	e7de      	b.n	1000402c <tu_edpt_stream_write_xfer+0x18>
1000406e:	4603      	mov	r3, r0
10004070:	6862      	ldr	r2, [r4, #4]
10004072:	4630      	mov	r0, r6
10004074:	7861      	ldrb	r1, [r4, #1]
10004076:	f7ff f955 	bl	10003324 <usbd_edpt_xfer>
1000407a:	2800      	cmp	r0, #0
1000407c:	d0e8      	beq.n	10004050 <tu_edpt_stream_write_xfer+0x3c>
1000407e:	4628      	mov	r0, r5
10004080:	bd70      	pop	{r4, r5, r6, pc}
10004082:	bf00      	nop

10004084 <tu_edpt_stream_read_xfer>:
10004084:	898a      	ldrh	r2, [r1, #12]
10004086:	e92d 41f0 	stmdb	sp!, {r4, r5, r6, r7, r8, lr}
1000408a:	780b      	ldrb	r3, [r1, #0]
1000408c:	460c      	mov	r4, r1
1000408e:	4605      	mov	r5, r0
10004090:	b98a      	cbnz	r2, 100040b6 <tu_edpt_stream_read_xfer+0x32>
10004092:	07df      	lsls	r7, r3, #31
10004094:	d425      	bmi.n	100040e2 <tu_edpt_stream_read_xfer+0x5e>
10004096:	7849      	ldrb	r1, [r1, #1]
10004098:	f7ff f920 	bl	100032dc <usbd_edpt_claim>
1000409c:	b308      	cbz	r0, 100040e2 <tu_edpt_stream_read_xfer+0x5e>
1000409e:	7822      	ldrb	r2, [r4, #0]
100040a0:	8863      	ldrh	r3, [r4, #2]
100040a2:	07d6      	lsls	r6, r2, #31
100040a4:	d53f      	bpl.n	10004126 <tu_edpt_stream_read_xfer+0xa2>
100040a6:	f04f 23e0 	mov.w	r3, #3758153728	@ 0xe000e000
100040aa:	f8d3 3df0 	ldr.w	r3, [r3, #3568]	@ 0xdf0
100040ae:	07da      	lsls	r2, r3, #31
100040b0:	d517      	bpl.n	100040e2 <tu_edpt_stream_read_xfer+0x5e>
100040b2:	be00      	bkpt	0x0000
100040b4:	e015      	b.n	100040e2 <tu_edpt_stream_read_xfer+0x5e>
100040b6:	f003 0302 	and.w	r3, r3, #2
100040ba:	f101 0808 	add.w	r8, r1, #8
100040be:	2b00      	cmp	r3, #0
100040c0:	4640      	mov	r0, r8
100040c2:	bf0c      	ite	eq
100040c4:	2740      	moveq	r7, #64	@ 0x40
100040c6:	f44f 7700 	movne.w	r7, #512	@ 0x200
100040ca:	f64f 76c0 	movw	r6, #65472	@ 0xffc0
100040ce:	bf18      	it	ne
100040d0:	f44f 467e 	movne.w	r6, #65024	@ 0xfe00
100040d4:	f000 f888 	bl	100041e8 <tu_fifo_remaining>
100040d8:	4287      	cmp	r7, r0
100040da:	d802      	bhi.n	100040e2 <tu_edpt_stream_read_xfer+0x5e>
100040dc:	7823      	ldrb	r3, [r4, #0]
100040de:	07d8      	lsls	r0, r3, #31
100040e0:	d502      	bpl.n	100040e8 <tu_edpt_stream_read_xfer+0x64>
100040e2:	2000      	movs	r0, #0
100040e4:	e8bd 81f0 	ldmia.w	sp!, {r4, r5, r6, r7, r8, pc}
100040e8:	4628      	mov	r0, r5
100040ea:	7861      	ldrb	r1, [r4, #1]
100040ec:	f7ff f8f6 	bl	100032dc <usbd_edpt_claim>
100040f0:	2800      	cmp	r0, #0
100040f2:	d0f6      	beq.n	100040e2 <tu_edpt_stream_read_xfer+0x5e>
100040f4:	4640      	mov	r0, r8
100040f6:	f000 f877 	bl	100041e8 <tu_fifo_remaining>
100040fa:	4287      	cmp	r7, r0
100040fc:	d81f      	bhi.n	1000413e <tu_edpt_stream_read_xfer+0xba>
100040fe:	7823      	ldrb	r3, [r4, #0]
10004100:	8862      	ldrh	r2, [r4, #2]
10004102:	07d9      	lsls	r1, r3, #31
10004104:	d4cf      	bmi.n	100040a6 <tu_edpt_stream_read_xfer+0x22>
10004106:	4030      	ands	r0, r6
10004108:	4290      	cmp	r0, r2
1000410a:	bf28      	it	cs
1000410c:	4610      	movcs	r0, r2
1000410e:	7861      	ldrb	r1, [r4, #1]
10004110:	4606      	mov	r6, r0
10004112:	b1e0      	cbz	r0, 1000414e <tu_edpt_stream_read_xfer+0xca>
10004114:	6862      	ldr	r2, [r4, #4]
10004116:	4633      	mov	r3, r6
10004118:	4628      	mov	r0, r5
1000411a:	f7ff f903 	bl	10003324 <usbd_edpt_xfer>
1000411e:	2800      	cmp	r0, #0
10004120:	d0c1      	beq.n	100040a6 <tu_edpt_stream_read_xfer+0x22>
10004122:	4630      	mov	r0, r6
10004124:	e7de      	b.n	100040e4 <tu_edpt_stream_read_xfer+0x60>
10004126:	7861      	ldrb	r1, [r4, #1]
10004128:	b13b      	cbz	r3, 1000413a <tu_edpt_stream_read_xfer+0xb6>
1000412a:	6862      	ldr	r2, [r4, #4]
1000412c:	4628      	mov	r0, r5
1000412e:	f7ff f8f9 	bl	10003324 <usbd_edpt_xfer>
10004132:	2800      	cmp	r0, #0
10004134:	d0b7      	beq.n	100040a6 <tu_edpt_stream_read_xfer+0x22>
10004136:	8860      	ldrh	r0, [r4, #2]
10004138:	e7d4      	b.n	100040e4 <tu_edpt_stream_read_xfer+0x60>
1000413a:	461a      	mov	r2, r3
1000413c:	e7f6      	b.n	1000412c <tu_edpt_stream_read_xfer+0xa8>
1000413e:	7823      	ldrb	r3, [r4, #0]
10004140:	07db      	lsls	r3, r3, #31
10004142:	d4ce      	bmi.n	100040e2 <tu_edpt_stream_read_xfer+0x5e>
10004144:	4628      	mov	r0, r5
10004146:	7861      	ldrb	r1, [r4, #1]
10004148:	f7ff f8da 	bl	10003300 <usbd_edpt_release>
1000414c:	e7c9      	b.n	100040e2 <tu_edpt_stream_read_xfer+0x5e>
1000414e:	4602      	mov	r2, r0
10004150:	e7e1      	b.n	10004116 <tu_edpt_stream_read_xfer+0x92>
10004152:	bf00      	nop

10004154 <tu_fifo_config>:
10004154:	e92d 41f0 	stmdb	sp!, {r4, r5, r6, r7, r8, lr}
10004158:	f5b2 4f00 	cmp.w	r2, #32768	@ 0x8000
1000415c:	f89d 8018 	ldrb.w	r8, [sp, #24]
10004160:	d824      	bhi.n	100041ac <tu_fifo_config+0x58>
10004162:	4604      	mov	r4, r0
10004164:	68c0      	ldr	r0, [r0, #12]
10004166:	4617      	mov	r7, r2
10004168:	460e      	mov	r6, r1
1000416a:	461d      	mov	r5, r3
1000416c:	b118      	cbz	r0, 10004176 <tu_fifo_config+0x22>
1000416e:	f04f 31ff 	mov.w	r1, #4294967295	@ 0xffffffff
10004172:	f003 ffb1 	bl	100080d8 <__mutex_enter_timeout_ms_veneer>
10004176:	6920      	ldr	r0, [r4, #16]
10004178:	b118      	cbz	r0, 10004182 <tu_fifo_config+0x2e>
1000417a:	f04f 31ff 	mov.w	r1, #4294967295	@ 0xffffffff
1000417e:	f003 ffab 	bl	100080d8 <__mutex_enter_timeout_ms_veneer>
10004182:	2200      	movs	r2, #0
10004184:	f3c5 030e 	ubfx	r3, r5, #0, #15
10004188:	68e0      	ldr	r0, [r4, #12]
1000418a:	ea43 33c8 	orr.w	r3, r3, r8, lsl #15
1000418e:	8162      	strh	r2, [r4, #10]
10004190:	6026      	str	r6, [r4, #0]
10004192:	80a7      	strh	r7, [r4, #4]
10004194:	80e3      	strh	r3, [r4, #6]
10004196:	8122      	strh	r2, [r4, #8]
10004198:	b108      	cbz	r0, 1000419e <tu_fifo_config+0x4a>
1000419a:	f003 ffa5 	bl	100080e8 <__mutex_exit_veneer>
1000419e:	6920      	ldr	r0, [r4, #16]
100041a0:	b108      	cbz	r0, 100041a6 <tu_fifo_config+0x52>
100041a2:	f003 ffa1 	bl	100080e8 <__mutex_exit_veneer>
100041a6:	2001      	movs	r0, #1
100041a8:	e8bd 81f0 	ldmia.w	sp!, {r4, r5, r6, r7, r8, pc}
100041ac:	2000      	movs	r0, #0
100041ae:	e8bd 81f0 	ldmia.w	sp!, {r4, r5, r6, r7, r8, pc}
100041b2:	bf00      	nop

100041b4 <tu_fifo_count>:
100041b4:	8903      	ldrh	r3, [r0, #8]
100041b6:	8942      	ldrh	r2, [r0, #10]
100041b8:	b29b      	uxth	r3, r3
100041ba:	b292      	uxth	r2, r2
100041bc:	8880      	ldrh	r0, [r0, #4]
100041be:	4293      	cmp	r3, r2
100041c0:	bf36      	itet	cc
100041c2:	ebc2 0240 	rsbcc	r2, r2, r0, lsl #1
100041c6:	1a9b      	subcs	r3, r3, r2
100041c8:	189b      	addcc	r3, r3, r2
100041ca:	b29b      	uxth	r3, r3
100041cc:	4298      	cmp	r0, r3
100041ce:	bf28      	it	cs
100041d0:	4618      	movcs	r0, r3
100041d2:	4770      	bx	lr

100041d4 <tu_fifo_empty>:
100041d4:	8902      	ldrh	r2, [r0, #8]
100041d6:	8943      	ldrh	r3, [r0, #10]
100041d8:	b290      	uxth	r0, r2
100041da:	b29b      	uxth	r3, r3
100041dc:	1ac0      	subs	r0, r0, r3
100041de:	fab0 f080 	clz	r0, r0
100041e2:	0940      	lsrs	r0, r0, #5
100041e4:	4770      	bx	lr
100041e6:	bf00      	nop

100041e8 <tu_fifo_remaining>:
100041e8:	8903      	ldrh	r3, [r0, #8]
100041ea:	8942      	ldrh	r2, [r0, #10]
100041ec:	b29b      	uxth	r3, r3
100041ee:	8880      	ldrh	r0, [r0, #4]
100041f0:	b292      	uxth	r2, r2
100041f2:	4293      	cmp	r3, r2
100041f4:	bf36      	itet	cc
100041f6:	ebc2 0240 	rsbcc	r2, r2, r0, lsl #1
100041fa:	1a9b      	subcs	r3, r3, r2
100041fc:	189b      	addcc	r3, r3, r2
100041fe:	b29b      	uxth	r3, r3
10004200:	4298      	cmp	r0, r3
10004202:	bf86      	itte	hi
10004204:	1ac0      	subhi	r0, r0, r3
10004206:	b280      	uxthhi	r0, r0
10004208:	2000      	movls	r0, #0
1000420a:	4770      	bx	lr

1000420c <tu_fifo_read>:
1000420c:	b538      	push	{r3, r4, r5, lr}
1000420e:	4604      	mov	r4, r0
10004210:	6900      	ldr	r0, [r0, #16]
10004212:	460d      	mov	r5, r1
10004214:	b118      	cbz	r0, 1000421e <tu_fifo_read+0x12>
10004216:	f04f 31ff 	mov.w	r1, #4294967295	@ 0xffffffff
1000421a:	f003 ff5d 	bl	100080d8 <__mutex_enter_timeout_ms_veneer>
1000421e:	8921      	ldrh	r1, [r4, #8]
10004220:	8963      	ldrh	r3, [r4, #10]
10004222:	b289      	uxth	r1, r1
10004224:	b29b      	uxth	r3, r3
10004226:	88a2      	ldrh	r2, [r4, #4]
10004228:	4299      	cmp	r1, r3
1000422a:	bf36      	itet	cc
1000422c:	ebc3 0042 	rsbcc	r0, r3, r2, lsl #1
10004230:	1ac8      	subcs	r0, r1, r3
10004232:	1840      	addcc	r0, r0, r1
10004234:	b280      	uxth	r0, r0
10004236:	b350      	cbz	r0, 1000428e <tu_fifo_read+0x82>
10004238:	4282      	cmp	r2, r0
1000423a:	d209      	bcs.n	10004250 <tu_fifo_read+0x44>
1000423c:	4291      	cmp	r1, r2
1000423e:	bf2c      	ite	cs
10004240:	1a89      	subcs	r1, r1, r2
10004242:	1889      	addcc	r1, r1, r2
10004244:	b28b      	uxth	r3, r1
10004246:	429a      	cmp	r2, r3
10004248:	8163      	strh	r3, [r4, #10]
1000424a:	d803      	bhi.n	10004254 <tu_fifo_read+0x48>
1000424c:	1a9b      	subs	r3, r3, r2
1000424e:	b29b      	uxth	r3, r3
10004250:	429a      	cmp	r2, r3
10004252:	d9fb      	bls.n	1000424c <tu_fifo_read+0x40>
10004254:	88e2      	ldrh	r2, [r4, #6]
10004256:	6821      	ldr	r1, [r4, #0]
10004258:	f3c2 020e 	ubfx	r2, r2, #0, #15
1000425c:	fb02 1103 	mla	r1, r2, r3, r1
10004260:	4628      	mov	r0, r5
10004262:	f003 fe19 	bl	10007e98 <memcpy>
10004266:	8961      	ldrh	r1, [r4, #10]
10004268:	2501      	movs	r5, #1
1000426a:	b289      	uxth	r1, r1
1000426c:	1c4b      	adds	r3, r1, #1
1000426e:	b29b      	uxth	r3, r3
10004270:	4299      	cmp	r1, r3
10004272:	88a2      	ldrh	r2, [r4, #4]
10004274:	d90e      	bls.n	10004294 <tu_fifo_read+0x88>
10004276:	2300      	movs	r3, #0
10004278:	fa02 f105 	lsl.w	r1, r2, r5
1000427c:	1a5b      	subs	r3, r3, r1
1000427e:	b29b      	uxth	r3, r3
10004280:	6920      	ldr	r0, [r4, #16]
10004282:	8163      	strh	r3, [r4, #10]
10004284:	b108      	cbz	r0, 1000428a <tu_fifo_read+0x7e>
10004286:	f003 ff2f 	bl	100080e8 <__mutex_exit_veneer>
1000428a:	4628      	mov	r0, r5
1000428c:	bd38      	pop	{r3, r4, r5, pc}
1000428e:	4605      	mov	r5, r0
10004290:	8963      	ldrh	r3, [r4, #10]
10004292:	b29b      	uxth	r3, r3
10004294:	ebb3 0f42 	cmp.w	r3, r2, lsl #1
10004298:	ea4f 0142 	mov.w	r1, r2, lsl #1
1000429c:	dbf0      	blt.n	10004280 <tu_fifo_read+0x74>
1000429e:	e7ed      	b.n	1000427c <tu_fifo_read+0x70>

100042a0 <tu_fifo_read_n>:
100042a0:	e92d 47f0 	stmdb	sp!, {r4, r5, r6, r7, r8, r9, sl, lr}
100042a4:	4606      	mov	r6, r0
100042a6:	6900      	ldr	r0, [r0, #16]
100042a8:	4688      	mov	r8, r1
100042aa:	4691      	mov	r9, r2
100042ac:	b118      	cbz	r0, 100042b6 <tu_fifo_read_n+0x16>
100042ae:	f04f 31ff 	mov.w	r1, #4294967295	@ 0xffffffff
100042b2:	f003 ff11 	bl	100080d8 <__mutex_enter_timeout_ms_veneer>
100042b6:	8933      	ldrh	r3, [r6, #8]
100042b8:	8974      	ldrh	r4, [r6, #10]
100042ba:	b29b      	uxth	r3, r3
100042bc:	b2a4      	uxth	r4, r4
100042be:	88b5      	ldrh	r5, [r6, #4]
100042c0:	42a3      	cmp	r3, r4
100042c2:	bf36      	itet	cc
100042c4:	ebc4 0745 	rsbcc	r7, r4, r5, lsl #1
100042c8:	1b1f      	subcs	r7, r3, r4
100042ca:	18ff      	addcc	r7, r7, r3
100042cc:	b2bf      	uxth	r7, r7
100042ce:	2f00      	cmp	r7, #0
100042d0:	d04a      	beq.n	10004368 <tu_fifo_read_n+0xc8>
100042d2:	42bd      	cmp	r5, r7
100042d4:	d340      	bcc.n	10004358 <tu_fifo_read_n+0xb8>
100042d6:	45b9      	cmp	r9, r7
100042d8:	bf28      	it	cs
100042da:	46b9      	movcs	r9, r7
100042dc:	42a5      	cmp	r5, r4
100042de:	fa1f f789 	uxth.w	r7, r9
100042e2:	d803      	bhi.n	100042ec <tu_fifo_read_n+0x4c>
100042e4:	1b64      	subs	r4, r4, r5
100042e6:	b2a4      	uxth	r4, r4
100042e8:	42a5      	cmp	r5, r4
100042ea:	d9fb      	bls.n	100042e4 <tu_fifo_read_n+0x44>
100042ec:	f8b6 a006 	ldrh.w	sl, [r6, #6]
100042f0:	1b2b      	subs	r3, r5, r4
100042f2:	6831      	ldr	r1, [r6, #0]
100042f4:	b29b      	uxth	r3, r3
100042f6:	f3ca 020e 	ubfx	r2, sl, #0, #15
100042fa:	429f      	cmp	r7, r3
100042fc:	4692      	mov	sl, r2
100042fe:	fb02 1104 	mla	r1, r2, r4, r1
10004302:	d923      	bls.n	1000434c <tu_fifo_read_n+0xac>
10004304:	fb13 f302 	smulbb	r3, r3, r2
10004308:	fa1f f983 	uxth.w	r9, r3
1000430c:	464a      	mov	r2, r9
1000430e:	4640      	mov	r0, r8
10004310:	1b7d      	subs	r5, r7, r5
10004312:	f003 fdc1 	bl	10007e98 <memcpy>
10004316:	1962      	adds	r2, r4, r5
10004318:	fb12 f20a 	smulbb	r2, r2, sl
1000431c:	6831      	ldr	r1, [r6, #0]
1000431e:	eb08 0009 	add.w	r0, r8, r9
10004322:	b292      	uxth	r2, r2
10004324:	f003 fdb8 	bl	10007e98 <memcpy>
10004328:	8972      	ldrh	r2, [r6, #10]
1000432a:	88b5      	ldrh	r5, [r6, #4]
1000432c:	b292      	uxth	r2, r2
1000432e:	19d3      	adds	r3, r2, r7
10004330:	b29b      	uxth	r3, r3
10004332:	429a      	cmp	r2, r3
10004334:	d91a      	bls.n	1000436c <tu_fifo_read_n+0xcc>
10004336:	006a      	lsls	r2, r5, #1
10004338:	1a9b      	subs	r3, r3, r2
1000433a:	b29b      	uxth	r3, r3
1000433c:	6930      	ldr	r0, [r6, #16]
1000433e:	8173      	strh	r3, [r6, #10]
10004340:	b108      	cbz	r0, 10004346 <tu_fifo_read_n+0xa6>
10004342:	f003 fed1 	bl	100080e8 <__mutex_exit_veneer>
10004346:	4638      	mov	r0, r7
10004348:	e8bd 87f0 	ldmia.w	sp!, {r4, r5, r6, r7, r8, r9, sl, pc}
1000434c:	4640      	mov	r0, r8
1000434e:	fb07 f202 	mul.w	r2, r7, r2
10004352:	f003 fda1 	bl	10007e98 <memcpy>
10004356:	e7e7      	b.n	10004328 <tu_fifo_read_n+0x88>
10004358:	42ab      	cmp	r3, r5
1000435a:	bf2c      	ite	cs
1000435c:	1b5b      	subcs	r3, r3, r5
1000435e:	195b      	addcc	r3, r3, r5
10004360:	b29c      	uxth	r4, r3
10004362:	462f      	mov	r7, r5
10004364:	8174      	strh	r4, [r6, #10]
10004366:	e7b6      	b.n	100042d6 <tu_fifo_read_n+0x36>
10004368:	8973      	ldrh	r3, [r6, #10]
1000436a:	b29b      	uxth	r3, r3
1000436c:	ebb3 0f45 	cmp.w	r3, r5, lsl #1
10004370:	ea4f 0245 	mov.w	r2, r5, lsl #1
10004374:	dbe2      	blt.n	1000433c <tu_fifo_read_n+0x9c>
10004376:	e7df      	b.n	10004338 <tu_fifo_read_n+0x98>

10004378 <tu_fifo_write>:
10004378:	b5f8      	push	{r3, r4, r5, r6, r7, lr}
1000437a:	4604      	mov	r4, r0
1000437c:	68c0      	ldr	r0, [r0, #12]
1000437e:	460e      	mov	r6, r1
10004380:	b118      	cbz	r0, 1000438a <tu_fifo_write+0x12>
10004382:	f04f 31ff 	mov.w	r1, #4294967295	@ 0xffffffff
10004386:	f003 fea7 	bl	100080d8 <__mutex_enter_timeout_ms_veneer>
1000438a:	8925      	ldrh	r5, [r4, #8]
1000438c:	8923      	ldrh	r3, [r4, #8]
1000438e:	8961      	ldrh	r1, [r4, #10]
10004390:	b29b      	uxth	r3, r3
10004392:	b289      	uxth	r1, r1
10004394:	88a2      	ldrh	r2, [r4, #4]
10004396:	428b      	cmp	r3, r1
10004398:	bf36      	itet	cc
1000439a:	ebc1 0142 	rsbcc	r1, r1, r2, lsl #1
1000439e:	1a5b      	subcs	r3, r3, r1
100043a0:	185b      	addcc	r3, r3, r1
100043a2:	b29b      	uxth	r3, r3
100043a4:	429a      	cmp	r2, r3
100043a6:	b2ad      	uxth	r5, r5
100043a8:	d808      	bhi.n	100043bc <tu_fifo_write+0x44>
100043aa:	79e7      	ldrb	r7, [r4, #7]
100043ac:	09ff      	lsrs	r7, r7, #7
100043ae:	d105      	bne.n	100043bc <tu_fifo_write+0x44>
100043b0:	68e0      	ldr	r0, [r4, #12]
100043b2:	b108      	cbz	r0, 100043b8 <tu_fifo_write+0x40>
100043b4:	f003 fe98 	bl	100080e8 <__mutex_exit_veneer>
100043b8:	4638      	mov	r0, r7
100043ba:	bdf8      	pop	{r3, r4, r5, r6, r7, pc}
100043bc:	4295      	cmp	r5, r2
100043be:	d319      	bcc.n	100043f4 <tu_fifo_write+0x7c>
100043c0:	462b      	mov	r3, r5
100043c2:	1a9b      	subs	r3, r3, r2
100043c4:	b29b      	uxth	r3, r3
100043c6:	4293      	cmp	r3, r2
100043c8:	d2fb      	bcs.n	100043c2 <tu_fifo_write+0x4a>
100043ca:	88e2      	ldrh	r2, [r4, #6]
100043cc:	6820      	ldr	r0, [r4, #0]
100043ce:	f3c2 020e 	ubfx	r2, r2, #0, #15
100043d2:	fb02 0003 	mla	r0, r2, r3, r0
100043d6:	4631      	mov	r1, r6
100043d8:	f003 fd5e 	bl	10007e98 <memcpy>
100043dc:	1c6b      	adds	r3, r5, #1
100043de:	b29b      	uxth	r3, r3
100043e0:	429d      	cmp	r5, r3
100043e2:	88a2      	ldrh	r2, [r4, #4]
100043e4:	d912      	bls.n	1000440c <tu_fifo_write+0x94>
100043e6:	2300      	movs	r3, #0
100043e8:	0051      	lsls	r1, r2, #1
100043ea:	1a5b      	subs	r3, r3, r1
100043ec:	b29b      	uxth	r3, r3
100043ee:	2701      	movs	r7, #1
100043f0:	8123      	strh	r3, [r4, #8]
100043f2:	e7dd      	b.n	100043b0 <tu_fifo_write+0x38>
100043f4:	88e2      	ldrh	r2, [r4, #6]
100043f6:	6820      	ldr	r0, [r4, #0]
100043f8:	f3c2 020e 	ubfx	r2, r2, #0, #15
100043fc:	fb05 0002 	mla	r0, r5, r2, r0
10004400:	4631      	mov	r1, r6
10004402:	f003 fd49 	bl	10007e98 <memcpy>
10004406:	3501      	adds	r5, #1
10004408:	88a2      	ldrh	r2, [r4, #4]
1000440a:	b2ab      	uxth	r3, r5
1000440c:	ebb3 0f42 	cmp.w	r3, r2, lsl #1
10004410:	ea4f 0142 	mov.w	r1, r2, lsl #1
10004414:	dbeb      	blt.n	100043ee <tu_fifo_write+0x76>
10004416:	e7e8      	b.n	100043ea <tu_fifo_write+0x72>

10004418 <tu_fifo_write_n>:
10004418:	e92d 4ff0 	stmdb	sp!, {r4, r5, r6, r7, r8, r9, sl, fp, lr}
1000441c:	4616      	mov	r6, r2
1000441e:	b083      	sub	sp, #12
10004420:	2a00      	cmp	r2, #0
10004422:	d04c      	beq.n	100044be <tu_fifo_write_n+0xa6>
10004424:	4605      	mov	r5, r0
10004426:	68c0      	ldr	r0, [r0, #12]
10004428:	4688      	mov	r8, r1
1000442a:	b118      	cbz	r0, 10004434 <tu_fifo_write_n+0x1c>
1000442c:	f04f 31ff 	mov.w	r1, #4294967295	@ 0xffffffff
10004430:	f003 fe52 	bl	100080d8 <__mutex_enter_timeout_ms_veneer>
10004434:	79ea      	ldrb	r2, [r5, #7]
10004436:	892f      	ldrh	r7, [r5, #8]
10004438:	8969      	ldrh	r1, [r5, #10]
1000443a:	09d2      	lsrs	r2, r2, #7
1000443c:	88ab      	ldrh	r3, [r5, #4]
1000443e:	b2bf      	uxth	r7, r7
10004440:	b289      	uxth	r1, r1
10004442:	d140      	bne.n	100044c6 <tu_fifo_write_n+0xae>
10004444:	428f      	cmp	r7, r1
10004446:	bf36      	itet	cc
10004448:	ebc1 0143 	rsbcc	r1, r1, r3, lsl #1
1000444c:	1a79      	subcs	r1, r7, r1
1000444e:	19c9      	addcc	r1, r1, r7
10004450:	b289      	uxth	r1, r1
10004452:	4299      	cmp	r1, r3
10004454:	d241      	bcs.n	100044da <tu_fifo_write_n+0xc2>
10004456:	1a59      	subs	r1, r3, r1
10004458:	b289      	uxth	r1, r1
1000445a:	428e      	cmp	r6, r1
1000445c:	bf28      	it	cs
1000445e:	460e      	movcs	r6, r1
10004460:	f8b5 a006 	ldrh.w	sl, [r5, #6]
10004464:	eb07 0906 	add.w	r9, r7, r6
10004468:	eba6 0b03 	sub.w	fp, r6, r3
1000446c:	f3ca 0a0e 	ubfx	sl, sl, #0, #15
10004470:	fa1f f989 	uxth.w	r9, r9
10004474:	fa1f fb8b 	uxth.w	fp, fp
10004478:	429f      	cmp	r7, r3
1000447a:	463c      	mov	r4, r7
1000447c:	d303      	bcc.n	10004486 <tu_fifo_write_n+0x6e>
1000447e:	1ae4      	subs	r4, r4, r3
10004480:	b2a4      	uxth	r4, r4
10004482:	429c      	cmp	r4, r3
10004484:	d2fb      	bcs.n	1000447e <tu_fifo_write_n+0x66>
10004486:	1b1b      	subs	r3, r3, r4
10004488:	6828      	ldr	r0, [r5, #0]
1000448a:	b29b      	uxth	r3, r3
1000448c:	42b3      	cmp	r3, r6
1000448e:	fb0a 0004 	mla	r0, sl, r4, r0
10004492:	d34b      	bcc.n	1000452c <tu_fifo_write_n+0x114>
10004494:	4641      	mov	r1, r8
10004496:	fb0a f206 	mul.w	r2, sl, r6
1000449a:	f003 fcfd 	bl	10007e98 <memcpy>
1000449e:	88aa      	ldrh	r2, [r5, #4]
100044a0:	454f      	cmp	r7, r9
100044a2:	ea4f 0342 	mov.w	r3, r2, lsl #1
100044a6:	d802      	bhi.n	100044ae <tu_fifo_write_n+0x96>
100044a8:	ebb9 0f42 	cmp.w	r9, r2, lsl #1
100044ac:	db03      	blt.n	100044b6 <tu_fifo_write_n+0x9e>
100044ae:	eba9 0303 	sub.w	r3, r9, r3
100044b2:	fa1f f983 	uxth.w	r9, r3
100044b6:	68e8      	ldr	r0, [r5, #12]
100044b8:	f8a5 9008 	strh.w	r9, [r5, #8]
100044bc:	b988      	cbnz	r0, 100044e2 <tu_fifo_write_n+0xca>
100044be:	4630      	mov	r0, r6
100044c0:	b003      	add	sp, #12
100044c2:	e8bd 8ff0 	ldmia.w	sp!, {r4, r5, r6, r7, r8, r9, sl, fp, pc}
100044c6:	f8b5 a006 	ldrh.w	sl, [r5, #6]
100044ca:	429e      	cmp	r6, r3
100044cc:	f3ca 0a0e 	ubfx	sl, sl, #0, #15
100044d0:	d30d      	bcc.n	100044ee <tu_fifo_write_n+0xd6>
100044d2:	2b00      	cmp	r3, #0
100044d4:	d13f      	bne.n	10004556 <tu_fifo_write_n+0x13e>
100044d6:	461e      	mov	r6, r3
100044d8:	e000      	b.n	100044dc <tu_fifo_write_n+0xc4>
100044da:	2600      	movs	r6, #0
100044dc:	68e8      	ldr	r0, [r5, #12]
100044de:	2800      	cmp	r0, #0
100044e0:	d0ed      	beq.n	100044be <tu_fifo_write_n+0xa6>
100044e2:	f003 fe01 	bl	100080e8 <__mutex_exit_veneer>
100044e6:	4630      	mov	r0, r6
100044e8:	b003      	add	sp, #12
100044ea:	e8bd 8ff0 	ldmia.w	sp!, {r4, r5, r6, r7, r8, r9, sl, fp, pc}
100044ee:	428f      	cmp	r7, r1
100044f0:	bf36      	itet	cc
100044f2:	ebc1 0243 	rsbcc	r2, r1, r3, lsl #1
100044f6:	1a7a      	subcs	r2, r7, r1
100044f8:	19d2      	addcc	r2, r2, r7
100044fa:	b292      	uxth	r2, r2
100044fc:	0058      	lsls	r0, r3, #1
100044fe:	4432      	add	r2, r6
10004500:	eba6 0b03 	sub.w	fp, r6, r3
10004504:	4282      	cmp	r2, r0
10004506:	fa1f fb8b 	uxth.w	fp, fp
1000450a:	db0a      	blt.n	10004522 <tu_fifo_write_n+0x10a>
1000450c:	eb01 0903 	add.w	r9, r1, r3
10004510:	fa1f f989 	uxth.w	r9, r9
10004514:	eba9 0706 	sub.w	r7, r9, r6
10004518:	b2bf      	uxth	r7, r7
1000451a:	42b9      	cmp	r1, r7
1000451c:	d918      	bls.n	10004550 <tu_fifo_write_n+0x138>
1000451e:	1a38      	subs	r0, r7, r0
10004520:	b287      	uxth	r7, r0
10004522:	eb06 0907 	add.w	r9, r6, r7
10004526:	fa1f f989 	uxth.w	r9, r9
1000452a:	e7a5      	b.n	10004478 <tu_fifo_write_n+0x60>
1000452c:	fb13 f30a 	smulbb	r3, r3, sl
10004530:	445c      	add	r4, fp
10004532:	fb14 f40a 	smulbb	r4, r4, sl
10004536:	b29a      	uxth	r2, r3
10004538:	4641      	mov	r1, r8
1000453a:	9201      	str	r2, [sp, #4]
1000453c:	f003 fcac 	bl	10007e98 <memcpy>
10004540:	9a01      	ldr	r2, [sp, #4]
10004542:	6828      	ldr	r0, [r5, #0]
10004544:	eb08 0102 	add.w	r1, r8, r2
10004548:	b2a2      	uxth	r2, r4
1000454a:	f003 fca5 	bl	10007e98 <memcpy>
1000454e:	e7a6      	b.n	1000449e <tu_fifo_write_n+0x86>
10004550:	42b8      	cmp	r0, r7
10004552:	dc91      	bgt.n	10004478 <tu_fifo_write_n+0x60>
10004554:	e7e3      	b.n	1000451e <tu_fifo_write_n+0x106>
10004556:	1af6      	subs	r6, r6, r3
10004558:	eb01 0903 	add.w	r9, r1, r3
1000455c:	fb0a 8806 	mla	r8, sl, r6, r8
10004560:	460f      	mov	r7, r1
10004562:	461e      	mov	r6, r3
10004564:	f04f 0b00 	mov.w	fp, #0
10004568:	fa1f f989 	uxth.w	r9, r9
1000456c:	e784      	b.n	10004478 <tu_fifo_write_n+0x60>
1000456e:	bf00      	nop

10004570 <tu_fifo_clear>:
10004570:	b510      	push	{r4, lr}
10004572:	4604      	mov	r4, r0
10004574:	68c0      	ldr	r0, [r0, #12]
10004576:	b118      	cbz	r0, 10004580 <tu_fifo_clear+0x10>
10004578:	f04f 31ff 	mov.w	r1, #4294967295	@ 0xffffffff
1000457c:	f003 fdac 	bl	100080d8 <__mutex_enter_timeout_ms_veneer>
10004580:	6920      	ldr	r0, [r4, #16]
10004582:	b118      	cbz	r0, 1000458c <tu_fifo_clear+0x1c>
10004584:	f04f 31ff 	mov.w	r1, #4294967295	@ 0xffffffff
10004588:	f003 fda6 	bl	100080d8 <__mutex_enter_timeout_ms_veneer>
1000458c:	2300      	movs	r3, #0
1000458e:	68e0      	ldr	r0, [r4, #12]
10004590:	8163      	strh	r3, [r4, #10]
10004592:	8123      	strh	r3, [r4, #8]
10004594:	b108      	cbz	r0, 1000459a <tu_fifo_clear+0x2a>
10004596:	f003 fda7 	bl	100080e8 <__mutex_exit_veneer>
1000459a:	6920      	ldr	r0, [r4, #16]
1000459c:	b108      	cbz	r0, 100045a2 <tu_fifo_clear+0x32>
1000459e:	f003 fda3 	bl	100080e8 <__mutex_exit_veneer>
100045a2:	2001      	movs	r0, #1
100045a4:	bd10      	pop	{r4, pc}
100045a6:	bf00      	nop

100045a8 <tu_fifo_set_overwritable>:
100045a8:	b538      	push	{r3, r4, r5, lr}
100045aa:	79c3      	ldrb	r3, [r0, #7]
100045ac:	ebb1 1fd3 	cmp.w	r1, r3, lsr #7
100045b0:	d019      	beq.n	100045e6 <tu_fifo_set_overwritable+0x3e>
100045b2:	4604      	mov	r4, r0
100045b4:	68c0      	ldr	r0, [r0, #12]
100045b6:	460d      	mov	r5, r1
100045b8:	b118      	cbz	r0, 100045c2 <tu_fifo_set_overwritable+0x1a>
100045ba:	f04f 31ff 	mov.w	r1, #4294967295	@ 0xffffffff
100045be:	f003 fd8b 	bl	100080d8 <__mutex_enter_timeout_ms_veneer>
100045c2:	6920      	ldr	r0, [r4, #16]
100045c4:	b118      	cbz	r0, 100045ce <tu_fifo_set_overwritable+0x26>
100045c6:	f04f 31ff 	mov.w	r1, #4294967295	@ 0xffffffff
100045ca:	f003 fd85 	bl	100080d8 <__mutex_enter_timeout_ms_veneer>
100045ce:	79e3      	ldrb	r3, [r4, #7]
100045d0:	68e0      	ldr	r0, [r4, #12]
100045d2:	f365 13c7 	bfi	r3, r5, #7, #1
100045d6:	71e3      	strb	r3, [r4, #7]
100045d8:	b108      	cbz	r0, 100045de <tu_fifo_set_overwritable+0x36>
100045da:	f003 fd85 	bl	100080e8 <__mutex_exit_veneer>
100045de:	6920      	ldr	r0, [r4, #16]
100045e0:	b108      	cbz	r0, 100045e6 <tu_fifo_set_overwritable+0x3e>
100045e2:	f003 fd81 	bl	100080e8 <__mutex_exit_veneer>
100045e6:	2001      	movs	r0, #1
100045e8:	bd38      	pop	{r3, r4, r5, pc}
100045ea:	bf00      	nop

100045ec <prvIdleTask>:
100045ec:	b508      	push	{r3, lr}
100045ee:	4c10      	ldr	r4, [pc, #64]	@ (10004630 <prvIdleTask+0x44>)
100045f0:	e014      	b.n	1000461c <prvIdleTask+0x30>
100045f2:	f001 fe57 	bl	100062a4 <vPortEnterCritical>
100045f6:	6923      	ldr	r3, [r4, #16]
100045f8:	68dd      	ldr	r5, [r3, #12]
100045fa:	1d28      	adds	r0, r5, #4
100045fc:	f001 ff0a 	bl	10006414 <uxListRemove>
10004600:	69a3      	ldr	r3, [r4, #24]
10004602:	3b01      	subs	r3, #1
10004604:	61a3      	str	r3, [r4, #24]
10004606:	6823      	ldr	r3, [r4, #0]
10004608:	3b01      	subs	r3, #1
1000460a:	6023      	str	r3, [r4, #0]
1000460c:	f001 fe56 	bl	100062bc <vPortExitCritical>
10004610:	6b28      	ldr	r0, [r5, #48]	@ 0x30
10004612:	f001 fdf5 	bl	10006200 <vPortFree>
10004616:	4628      	mov	r0, r5
10004618:	f001 fdf2 	bl	10006200 <vPortFree>
1000461c:	6823      	ldr	r3, [r4, #0]
1000461e:	2b00      	cmp	r3, #0
10004620:	d1e7      	bne.n	100045f2 <prvIdleTask+0x6>
10004622:	69e3      	ldr	r3, [r4, #28]
10004624:	2b01      	cmp	r3, #1
10004626:	d9f9      	bls.n	1000461c <prvIdleTask+0x30>
10004628:	f001 fe30 	bl	1000628c <vPortYield>
1000462c:	e7f6      	b.n	1000461c <prvIdleTask+0x30>
1000462e:	bf00      	nop
10004630:	200016ac 	.word	0x200016ac

10004634 <prvAddCurrentTaskToDelayedList>:
10004634:	b5f8      	push	{r3, r4, r5, r6, r7, lr}
10004636:	4605      	mov	r5, r0
10004638:	4c29      	ldr	r4, [pc, #164]	@ (100046e0 <prvAddCurrentTaskToDelayedList+0xac>)
1000463a:	460f      	mov	r7, r1
1000463c:	f8d4 6080 	ldr.w	r6, [r4, #128]	@ 0x80
10004640:	f8d4 0084 	ldr.w	r0, [r4, #132]	@ 0x84
10004644:	3004      	adds	r0, #4
10004646:	f001 fee5 	bl	10006414 <uxListRemove>
1000464a:	1c6b      	adds	r3, r5, #1
1000464c:	d01b      	beq.n	10004686 <prvAddCurrentTaskToDelayedList+0x52>
1000464e:	f8d4 3084 	ldr.w	r3, [r4, #132]	@ 0x84
10004652:	1976      	adds	r6, r6, r5
10004654:	605e      	str	r6, [r3, #4]
10004656:	d20d      	bcs.n	10004674 <prvAddCurrentTaskToDelayedList+0x40>
10004658:	f8d4 00a0 	ldr.w	r0, [r4, #160]	@ 0xa0
1000465c:	f8d4 1084 	ldr.w	r1, [r4, #132]	@ 0x84
10004660:	3104      	adds	r1, #4
10004662:	f001 febf 	bl	100063e4 <vListInsert>
10004666:	f8d4 30a4 	ldr.w	r3, [r4, #164]	@ 0xa4
1000466a:	42b3      	cmp	r3, r6
1000466c:	d901      	bls.n	10004672 <prvAddCurrentTaskToDelayedList+0x3e>
1000466e:	f8c4 60a4 	str.w	r6, [r4, #164]	@ 0xa4
10004672:	bdf8      	pop	{r3, r4, r5, r6, r7, pc}
10004674:	f8d4 009c 	ldr.w	r0, [r4, #156]	@ 0x9c
10004678:	f8d4 1084 	ldr.w	r1, [r4, #132]	@ 0x84
1000467c:	e8bd 40f8 	ldmia.w	sp!, {r3, r4, r5, r6, r7, lr}
10004680:	3104      	adds	r1, #4
10004682:	f001 beaf 	b.w	100063e4 <vListInsert>
10004686:	b97f      	cbnz	r7, 100046a8 <prvAddCurrentTaskToDelayedList+0x74>
10004688:	f8d4 3084 	ldr.w	r3, [r4, #132]	@ 0x84
1000468c:	1e72      	subs	r2, r6, #1
1000468e:	605a      	str	r2, [r3, #4]
10004690:	2e00      	cmp	r6, #0
10004692:	d1ef      	bne.n	10004674 <prvAddCurrentTaskToDelayedList+0x40>
10004694:	f8d4 00a0 	ldr.w	r0, [r4, #160]	@ 0xa0
10004698:	f8d4 1084 	ldr.w	r1, [r4, #132]	@ 0x84
1000469c:	3104      	adds	r1, #4
1000469e:	f001 fea1 	bl	100063e4 <vListInsert>
100046a2:	f8d4 30a4 	ldr.w	r3, [r4, #164]	@ 0xa4
100046a6:	bdf8      	pop	{r3, r4, r5, r6, r7, pc}
100046a8:	f8d4 1084 	ldr.w	r1, [r4, #132]	@ 0x84
100046ac:	f8d4 308c 	ldr.w	r3, [r4, #140]	@ 0x8c
100046b0:	f8d4 2084 	ldr.w	r2, [r4, #132]	@ 0x84
100046b4:	6898      	ldr	r0, [r3, #8]
100046b6:	608b      	str	r3, [r1, #8]
100046b8:	f8d4 1084 	ldr.w	r1, [r4, #132]	@ 0x84
100046bc:	60d0      	str	r0, [r2, #12]
100046be:	3104      	adds	r1, #4
100046c0:	f8d4 2084 	ldr.w	r2, [r4, #132]	@ 0x84
100046c4:	6041      	str	r1, [r0, #4]
100046c6:	f8d4 0084 	ldr.w	r0, [r4, #132]	@ 0x84
100046ca:	f8d4 1088 	ldr.w	r1, [r4, #136]	@ 0x88
100046ce:	3204      	adds	r2, #4
100046d0:	f104 0588 	add.w	r5, r4, #136	@ 0x88
100046d4:	3101      	adds	r1, #1
100046d6:	609a      	str	r2, [r3, #8]
100046d8:	f8c4 1088 	str.w	r1, [r4, #136]	@ 0x88
100046dc:	6145      	str	r5, [r0, #20]
100046de:	bdf8      	pop	{r3, r4, r5, r6, r7, pc}
100046e0:	200016ac 	.word	0x200016ac

100046e4 <xTaskIncrementTick.part.0>:
100046e4:	4a51      	ldr	r2, [pc, #324]	@ (1000482c <xTaskIncrementTick.part.0+0x148>)
100046e6:	e92d 43f0 	stmdb	sp!, {r4, r5, r6, r7, r8, r9, lr}
100046ea:	f8d2 7080 	ldr.w	r7, [r2, #128]	@ 0x80
100046ee:	3701      	adds	r7, #1
100046f0:	f8c2 7080 	str.w	r7, [r2, #128]	@ 0x80
100046f4:	b9af      	cbnz	r7, 10004722 <xTaskIncrementTick.part.0+0x3e>
100046f6:	f8d2 30a0 	ldr.w	r3, [r2, #160]	@ 0xa0
100046fa:	f8d2 109c 	ldr.w	r1, [r2, #156]	@ 0x9c
100046fe:	f8c2 10a0 	str.w	r1, [r2, #160]	@ 0xa0
10004702:	f8c2 309c 	str.w	r3, [r2, #156]	@ 0x9c
10004706:	f8d2 30a8 	ldr.w	r3, [r2, #168]	@ 0xa8
1000470a:	3301      	adds	r3, #1
1000470c:	f8c2 30a8 	str.w	r3, [r2, #168]	@ 0xa8
10004710:	f8d2 30a0 	ldr.w	r3, [r2, #160]	@ 0xa0
10004714:	681b      	ldr	r3, [r3, #0]
10004716:	2b00      	cmp	r3, #0
10004718:	d176      	bne.n	10004808 <xTaskIncrementTick.part.0+0x124>
1000471a:	f04f 33ff 	mov.w	r3, #4294967295	@ 0xffffffff
1000471e:	f8c2 30a4 	str.w	r3, [r2, #164]	@ 0xa4
10004722:	f8d2 30a4 	ldr.w	r3, [r2, #164]	@ 0xa4
10004726:	429f      	cmp	r7, r3
10004728:	d366      	bcc.n	100047f8 <xTaskIncrementTick.part.0+0x114>
1000472a:	f8d2 30a0 	ldr.w	r3, [r2, #160]	@ 0xa0
1000472e:	6818      	ldr	r0, [r3, #0]
10004730:	2800      	cmp	r0, #0
10004732:	d070      	beq.n	10004816 <xTaskIncrementTick.part.0+0x132>
10004734:	2000      	movs	r0, #0
10004736:	f8df e0f8 	ldr.w	lr, [pc, #248]	@ 10004830 <xTaskIncrementTick.part.0+0x14c>
1000473a:	4684      	mov	ip, r0
1000473c:	e049      	b.n	100047d2 <xTaskIncrementTick.part.0+0xee>
1000473e:	f8d3 8014 	ldr.w	r8, [r3, #20]
10004742:	e9d3 1502 	ldrd	r1, r5, [r3, #8]
10004746:	608d      	str	r5, [r1, #8]
10004748:	6069      	str	r1, [r5, #4]
1000474a:	f8d8 1004 	ldr.w	r1, [r8, #4]
1000474e:	42a1      	cmp	r1, r4
10004750:	f8d8 1000 	ldr.w	r1, [r8]
10004754:	bf08      	it	eq
10004756:	f8c8 5004 	streq.w	r5, [r8, #4]
1000475a:	6a9d      	ldr	r5, [r3, #40]	@ 0x28
1000475c:	3901      	subs	r1, #1
1000475e:	f8c3 c014 	str.w	ip, [r3, #20]
10004762:	f8c8 1000 	str.w	r1, [r8]
10004766:	b17d      	cbz	r5, 10004788 <xTaskIncrementTick.part.0+0xa4>
10004768:	e9d3 1807 	ldrd	r1, r8, [r3, #28]
1000476c:	f8c1 8008 	str.w	r8, [r1, #8]
10004770:	f8c8 1004 	str.w	r1, [r8, #4]
10004774:	6869      	ldr	r1, [r5, #4]
10004776:	42b1      	cmp	r1, r6
10004778:	6829      	ldr	r1, [r5, #0]
1000477a:	bf08      	it	eq
1000477c:	f8c5 8004 	streq.w	r8, [r5, #4]
10004780:	3901      	subs	r1, #1
10004782:	f8c3 c028 	str.w	ip, [r3, #40]	@ 0x28
10004786:	6029      	str	r1, [r5, #0]
10004788:	6ad9      	ldr	r1, [r3, #44]	@ 0x2c
1000478a:	f8d2 60ac 	ldr.w	r6, [r2, #172]	@ 0xac
1000478e:	eb01 0581 	add.w	r5, r1, r1, lsl #2
10004792:	eb02 0885 	add.w	r8, r2, r5, lsl #2
10004796:	42b1      	cmp	r1, r6
10004798:	f8d8 6020 	ldr.w	r6, [r8, #32]
1000479c:	eb0e 0985 	add.w	r9, lr, r5, lsl #2
100047a0:	68b5      	ldr	r5, [r6, #8]
100047a2:	bf88      	it	hi
100047a4:	f8c2 10ac 	strhi.w	r1, [r2, #172]	@ 0xac
100047a8:	e9c3 6502 	strd	r6, r5, [r3, #8]
100047ac:	606c      	str	r4, [r5, #4]
100047ae:	f8d8 501c 	ldr.w	r5, [r8, #28]
100047b2:	60b4      	str	r4, [r6, #8]
100047b4:	3501      	adds	r5, #1
100047b6:	f8c3 9014 	str.w	r9, [r3, #20]
100047ba:	f8c8 501c 	str.w	r5, [r8, #28]
100047be:	f8d2 4084 	ldr.w	r4, [r2, #132]	@ 0x84
100047c2:	f8d2 30a0 	ldr.w	r3, [r2, #160]	@ 0xa0
100047c6:	6ae4      	ldr	r4, [r4, #44]	@ 0x2c
100047c8:	681b      	ldr	r3, [r3, #0]
100047ca:	42a1      	cmp	r1, r4
100047cc:	bf88      	it	hi
100047ce:	2001      	movhi	r0, #1
100047d0:	b30b      	cbz	r3, 10004816 <xTaskIncrementTick.part.0+0x132>
100047d2:	f8d2 30a0 	ldr.w	r3, [r2, #160]	@ 0xa0
100047d6:	68db      	ldr	r3, [r3, #12]
100047d8:	68db      	ldr	r3, [r3, #12]
100047da:	6859      	ldr	r1, [r3, #4]
100047dc:	1d1c      	adds	r4, r3, #4
100047de:	428f      	cmp	r7, r1
100047e0:	f103 0618 	add.w	r6, r3, #24
100047e4:	d2ab      	bcs.n	1000473e <xTaskIncrementTick.part.0+0x5a>
100047e6:	f8c2 10a4 	str.w	r1, [r2, #164]	@ 0xa4
100047ea:	f8d2 30b0 	ldr.w	r3, [r2, #176]	@ 0xb0
100047ee:	2b00      	cmp	r3, #0
100047f0:	bf18      	it	ne
100047f2:	2001      	movne	r0, #1
100047f4:	e8bd 83f0 	ldmia.w	sp!, {r4, r5, r6, r7, r8, r9, pc}
100047f8:	f8d2 30b0 	ldr.w	r3, [r2, #176]	@ 0xb0
100047fc:	2000      	movs	r0, #0
100047fe:	2b00      	cmp	r3, #0
10004800:	bf18      	it	ne
10004802:	2001      	movne	r0, #1
10004804:	e8bd 83f0 	ldmia.w	sp!, {r4, r5, r6, r7, r8, r9, pc}
10004808:	f8d2 30a0 	ldr.w	r3, [r2, #160]	@ 0xa0
1000480c:	68db      	ldr	r3, [r3, #12]
1000480e:	681b      	ldr	r3, [r3, #0]
10004810:	f8c2 30a4 	str.w	r3, [r2, #164]	@ 0xa4
10004814:	e785      	b.n	10004722 <xTaskIncrementTick.part.0+0x3e>
10004816:	f04f 33ff 	mov.w	r3, #4294967295	@ 0xffffffff
1000481a:	f8c2 30a4 	str.w	r3, [r2, #164]	@ 0xa4
1000481e:	f8d2 30b0 	ldr.w	r3, [r2, #176]	@ 0xb0
10004822:	2b00      	cmp	r3, #0
10004824:	bf18      	it	ne
10004826:	2001      	movne	r0, #1
10004828:	e8bd 83f0 	ldmia.w	sp!, {r4, r5, r6, r7, r8, r9, pc}
1000482c:	200016ac 	.word	0x200016ac
10004830:	200016c8 	.word	0x200016c8

10004834 <xTaskCreate>:
10004834:	e92d 43f8 	stmdb	sp!, {r3, r4, r5, r6, r7, r8, r9, lr}
10004838:	0095      	lsls	r5, r2, #2
1000483a:	4607      	mov	r7, r0
1000483c:	4628      	mov	r0, r5
1000483e:	4689      	mov	r9, r1
10004840:	4698      	mov	r8, r3
10004842:	f001 fcd1 	bl	100061e8 <pvPortMalloc>
10004846:	2800      	cmp	r0, #0
10004848:	f000 80b6 	beq.w	100049b8 <xTaskCreate+0x184>
1000484c:	4606      	mov	r6, r0
1000484e:	2068      	movs	r0, #104	@ 0x68
10004850:	f001 fcca 	bl	100061e8 <pvPortMalloc>
10004854:	4604      	mov	r4, r0
10004856:	2800      	cmp	r0, #0
10004858:	f000 80ab 	beq.w	100049b2 <xTaskCreate+0x17e>
1000485c:	3d04      	subs	r5, #4
1000485e:	2268      	movs	r2, #104	@ 0x68
10004860:	2100      	movs	r1, #0
10004862:	4435      	add	r5, r6
10004864:	f002 feb4 	bl	100075d0 <memset>
10004868:	f025 0507 	bic.w	r5, r5, #7
1000486c:	6326      	str	r6, [r4, #48]	@ 0x30
1000486e:	f1b9 0f00 	cmp.w	r9, #0
10004872:	d04a      	beq.n	1000490a <xTaskCreate+0xd6>
10004874:	f899 3000 	ldrb.w	r3, [r9]
10004878:	f884 3034 	strb.w	r3, [r4, #52]	@ 0x34
1000487c:	2b00      	cmp	r3, #0
1000487e:	d044      	beq.n	1000490a <xTaskCreate+0xd6>
10004880:	f899 3001 	ldrb.w	r3, [r9, #1]
10004884:	f884 3035 	strb.w	r3, [r4, #53]	@ 0x35
10004888:	b3fb      	cbz	r3, 1000490a <xTaskCreate+0xd6>
1000488a:	f899 3002 	ldrb.w	r3, [r9, #2]
1000488e:	f884 3036 	strb.w	r3, [r4, #54]	@ 0x36
10004892:	b3d3      	cbz	r3, 1000490a <xTaskCreate+0xd6>
10004894:	f899 3003 	ldrb.w	r3, [r9, #3]
10004898:	f884 3037 	strb.w	r3, [r4, #55]	@ 0x37
1000489c:	b3ab      	cbz	r3, 1000490a <xTaskCreate+0xd6>
1000489e:	f899 3004 	ldrb.w	r3, [r9, #4]
100048a2:	f884 3038 	strb.w	r3, [r4, #56]	@ 0x38
100048a6:	b383      	cbz	r3, 1000490a <xTaskCreate+0xd6>
100048a8:	f899 3005 	ldrb.w	r3, [r9, #5]
100048ac:	f884 3039 	strb.w	r3, [r4, #57]	@ 0x39
100048b0:	b35b      	cbz	r3, 1000490a <xTaskCreate+0xd6>
100048b2:	f899 3006 	ldrb.w	r3, [r9, #6]
100048b6:	f884 303a 	strb.w	r3, [r4, #58]	@ 0x3a
100048ba:	b333      	cbz	r3, 1000490a <xTaskCreate+0xd6>
100048bc:	f899 3007 	ldrb.w	r3, [r9, #7]
100048c0:	f884 303b 	strb.w	r3, [r4, #59]	@ 0x3b
100048c4:	b30b      	cbz	r3, 1000490a <xTaskCreate+0xd6>
100048c6:	f899 3008 	ldrb.w	r3, [r9, #8]
100048ca:	f884 303c 	strb.w	r3, [r4, #60]	@ 0x3c
100048ce:	b1e3      	cbz	r3, 1000490a <xTaskCreate+0xd6>
100048d0:	f899 3009 	ldrb.w	r3, [r9, #9]
100048d4:	f884 303d 	strb.w	r3, [r4, #61]	@ 0x3d
100048d8:	b1bb      	cbz	r3, 1000490a <xTaskCreate+0xd6>
100048da:	f899 300a 	ldrb.w	r3, [r9, #10]
100048de:	f884 303e 	strb.w	r3, [r4, #62]	@ 0x3e
100048e2:	b193      	cbz	r3, 1000490a <xTaskCreate+0xd6>
100048e4:	f899 300b 	ldrb.w	r3, [r9, #11]
100048e8:	f884 303f 	strb.w	r3, [r4, #63]	@ 0x3f
100048ec:	b16b      	cbz	r3, 1000490a <xTaskCreate+0xd6>
100048ee:	f899 300c 	ldrb.w	r3, [r9, #12]
100048f2:	f884 3040 	strb.w	r3, [r4, #64]	@ 0x40
100048f6:	b143      	cbz	r3, 1000490a <xTaskCreate+0xd6>
100048f8:	f899 300d 	ldrb.w	r3, [r9, #13]
100048fc:	f884 3041 	strb.w	r3, [r4, #65]	@ 0x41
10004900:	b11b      	cbz	r3, 1000490a <xTaskCreate+0xd6>
10004902:	f899 300e 	ldrb.w	r3, [r9, #14]
10004906:	f884 3042 	strb.w	r3, [r4, #66]	@ 0x42
1000490a:	9b08      	ldr	r3, [sp, #32]
1000490c:	1d26      	adds	r6, r4, #4
1000490e:	2b04      	cmp	r3, #4
10004910:	bf28      	it	cs
10004912:	2304      	movcs	r3, #4
10004914:	4699      	mov	r9, r3
10004916:	62e3      	str	r3, [r4, #44]	@ 0x2c
10004918:	4630      	mov	r0, r6
1000491a:	f001 fd51 	bl	100063c0 <vListInitialiseItem>
1000491e:	f104 0018 	add.w	r0, r4, #24
10004922:	f001 fd4d 	bl	100063c0 <vListInitialiseItem>
10004926:	f1c9 0305 	rsb	r3, r9, #5
1000492a:	61a3      	str	r3, [r4, #24]
1000492c:	4642      	mov	r2, r8
1000492e:	4639      	mov	r1, r7
10004930:	4628      	mov	r0, r5
10004932:	6124      	str	r4, [r4, #16]
10004934:	6264      	str	r4, [r4, #36]	@ 0x24
10004936:	f001 fc95 	bl	10006264 <pxPortInitialiseStack>
1000493a:	9b09      	ldr	r3, [sp, #36]	@ 0x24
1000493c:	6020      	str	r0, [r4, #0]
1000493e:	b103      	cbz	r3, 10004942 <xTaskCreate+0x10e>
10004940:	601c      	str	r4, [r3, #0]
10004942:	4d3d      	ldr	r5, [pc, #244]	@ (10004a38 <xTaskCreate+0x204>)
10004944:	f001 fcae 	bl	100062a4 <vPortEnterCritical>
10004948:	69ab      	ldr	r3, [r5, #24]
1000494a:	3301      	adds	r3, #1
1000494c:	61ab      	str	r3, [r5, #24]
1000494e:	f8d5 3084 	ldr.w	r3, [r5, #132]	@ 0x84
10004952:	2b00      	cmp	r3, #0
10004954:	d03c      	beq.n	100049d0 <xTaskCreate+0x19c>
10004956:	f8d5 20f0 	ldr.w	r2, [r5, #240]	@ 0xf0
1000495a:	6ae3      	ldr	r3, [r4, #44]	@ 0x2c
1000495c:	b382      	cbz	r2, 100049c0 <xTaskCreate+0x18c>
1000495e:	f105 071c 	add.w	r7, r5, #28
10004962:	f8d5 20f4 	ldr.w	r2, [r5, #244]	@ 0xf4
10004966:	3201      	adds	r2, #1
10004968:	f8c5 20f4 	str.w	r2, [r5, #244]	@ 0xf4
1000496c:	f8d5 20ac 	ldr.w	r2, [r5, #172]	@ 0xac
10004970:	429a      	cmp	r2, r3
10004972:	bf38      	it	cc
10004974:	f8c5 30ac 	strcc.w	r3, [r5, #172]	@ 0xac
10004978:	eb03 0383 	add.w	r3, r3, r3, lsl #2
1000497c:	eb07 0783 	add.w	r7, r7, r3, lsl #2
10004980:	eb05 0383 	add.w	r3, r5, r3, lsl #2
10004984:	6a1a      	ldr	r2, [r3, #32]
10004986:	6891      	ldr	r1, [r2, #8]
10004988:	60a2      	str	r2, [r4, #8]
1000498a:	60e1      	str	r1, [r4, #12]
1000498c:	604e      	str	r6, [r1, #4]
1000498e:	6096      	str	r6, [r2, #8]
10004990:	69da      	ldr	r2, [r3, #28]
10004992:	6167      	str	r7, [r4, #20]
10004994:	3201      	adds	r2, #1
10004996:	61da      	str	r2, [r3, #28]
10004998:	f001 fc90 	bl	100062bc <vPortExitCritical>
1000499c:	f8d5 30f0 	ldr.w	r3, [r5, #240]	@ 0xf0
100049a0:	b12b      	cbz	r3, 100049ae <xTaskCreate+0x17a>
100049a2:	f8d5 2084 	ldr.w	r2, [r5, #132]	@ 0x84
100049a6:	6ae3      	ldr	r3, [r4, #44]	@ 0x2c
100049a8:	6ad2      	ldr	r2, [r2, #44]	@ 0x2c
100049aa:	429a      	cmp	r2, r3
100049ac:	d319      	bcc.n	100049e2 <xTaskCreate+0x1ae>
100049ae:	2001      	movs	r0, #1
100049b0:	e004      	b.n	100049bc <xTaskCreate+0x188>
100049b2:	4630      	mov	r0, r6
100049b4:	f001 fc24 	bl	10006200 <vPortFree>
100049b8:	f04f 30ff 	mov.w	r0, #4294967295	@ 0xffffffff
100049bc:	e8bd 83f8 	ldmia.w	sp!, {r3, r4, r5, r6, r7, r8, r9, pc}
100049c0:	f8d5 2084 	ldr.w	r2, [r5, #132]	@ 0x84
100049c4:	6ad2      	ldr	r2, [r2, #44]	@ 0x2c
100049c6:	429a      	cmp	r2, r3
100049c8:	bf98      	it	ls
100049ca:	f8c5 4084 	strls.w	r4, [r5, #132]	@ 0x84
100049ce:	e7c6      	b.n	1000495e <xTaskCreate+0x12a>
100049d0:	f8c5 4084 	str.w	r4, [r5, #132]	@ 0x84
100049d4:	69ab      	ldr	r3, [r5, #24]
100049d6:	2b01      	cmp	r3, #1
100049d8:	d006      	beq.n	100049e8 <xTaskCreate+0x1b4>
100049da:	6ae3      	ldr	r3, [r4, #44]	@ 0x2c
100049dc:	f105 071c 	add.w	r7, r5, #28
100049e0:	e7bf      	b.n	10004962 <xTaskCreate+0x12e>
100049e2:	f001 fc53 	bl	1000628c <vPortYield>
100049e6:	e7e2      	b.n	100049ae <xTaskCreate+0x17a>
100049e8:	f105 071c 	add.w	r7, r5, #28
100049ec:	46b8      	mov	r8, r7
100049ee:	f105 0980 	add.w	r9, r5, #128	@ 0x80
100049f2:	4640      	mov	r0, r8
100049f4:	f108 0814 	add.w	r8, r8, #20
100049f8:	f001 fcd6 	bl	100063a8 <vListInitialise>
100049fc:	45c1      	cmp	r9, r8
100049fe:	d1f8      	bne.n	100049f2 <xTaskCreate+0x1be>
10004a00:	f8df 8038 	ldr.w	r8, [pc, #56]	@ 10004a3c <xTaskCreate+0x208>
10004a04:	4640      	mov	r0, r8
10004a06:	f108 0914 	add.w	r9, r8, #20
10004a0a:	f001 fccd 	bl	100063a8 <vListInitialise>
10004a0e:	4648      	mov	r0, r9
10004a10:	f001 fcca 	bl	100063a8 <vListInitialise>
10004a14:	f108 0028 	add.w	r0, r8, #40	@ 0x28
10004a18:	f001 fcc6 	bl	100063a8 <vListInitialise>
10004a1c:	f1a8 00b0 	sub.w	r0, r8, #176	@ 0xb0
10004a20:	f001 fcc2 	bl	100063a8 <vListInitialise>
10004a24:	f1a8 002c 	sub.w	r0, r8, #44	@ 0x2c
10004a28:	f001 fcbe 	bl	100063a8 <vListInitialise>
10004a2c:	f8c5 80a0 	str.w	r8, [r5, #160]	@ 0xa0
10004a30:	6ae3      	ldr	r3, [r4, #44]	@ 0x2c
10004a32:	f8c5 909c 	str.w	r9, [r5, #156]	@ 0x9c
10004a36:	e794      	b.n	10004962 <xTaskCreate+0x12e>
10004a38:	200016ac 	.word	0x200016ac
10004a3c:	20001760 	.word	0x20001760

10004a40 <vTaskDelete>:
10004a40:	b570      	push	{r4, r5, r6, lr}
10004a42:	4605      	mov	r5, r0
10004a44:	4c25      	ldr	r4, [pc, #148]	@ (10004adc <vTaskDelete+0x9c>)
10004a46:	f001 fc2d 	bl	100062a4 <vPortEnterCritical>
10004a4a:	b3c5      	cbz	r5, 10004abe <vTaskDelete+0x7e>
10004a4c:	1d2e      	adds	r6, r5, #4
10004a4e:	4630      	mov	r0, r6
10004a50:	f001 fce0 	bl	10006414 <uxListRemove>
10004a54:	6aab      	ldr	r3, [r5, #40]	@ 0x28
10004a56:	b11b      	cbz	r3, 10004a60 <vTaskDelete+0x20>
10004a58:	f105 0018 	add.w	r0, r5, #24
10004a5c:	f001 fcda 	bl	10006414 <uxListRemove>
10004a60:	f8d4 30f4 	ldr.w	r3, [r4, #244]	@ 0xf4
10004a64:	f8d4 2084 	ldr.w	r2, [r4, #132]	@ 0x84
10004a68:	3301      	adds	r3, #1
10004a6a:	42aa      	cmp	r2, r5
10004a6c:	f8c4 30f4 	str.w	r3, [r4, #244]	@ 0xf4
10004a70:	d02c      	beq.n	10004acc <vTaskDelete+0x8c>
10004a72:	69a3      	ldr	r3, [r4, #24]
10004a74:	3b01      	subs	r3, #1
10004a76:	61a3      	str	r3, [r4, #24]
10004a78:	f8d4 30a0 	ldr.w	r3, [r4, #160]	@ 0xa0
10004a7c:	681b      	ldr	r3, [r3, #0]
10004a7e:	b1cb      	cbz	r3, 10004ab4 <vTaskDelete+0x74>
10004a80:	f8d4 30a0 	ldr.w	r3, [r4, #160]	@ 0xa0
10004a84:	68db      	ldr	r3, [r3, #12]
10004a86:	681b      	ldr	r3, [r3, #0]
10004a88:	f8c4 30a4 	str.w	r3, [r4, #164]	@ 0xa4
10004a8c:	f001 fc16 	bl	100062bc <vPortExitCritical>
10004a90:	f8d4 3084 	ldr.w	r3, [r4, #132]	@ 0x84
10004a94:	42ab      	cmp	r3, r5
10004a96:	d005      	beq.n	10004aa4 <vTaskDelete+0x64>
10004a98:	6b28      	ldr	r0, [r5, #48]	@ 0x30
10004a9a:	f001 fbb1 	bl	10006200 <vPortFree>
10004a9e:	4628      	mov	r0, r5
10004aa0:	f001 fbae 	bl	10006200 <vPortFree>
10004aa4:	f8d4 30f0 	ldr.w	r3, [r4, #240]	@ 0xf0
10004aa8:	b11b      	cbz	r3, 10004ab2 <vTaskDelete+0x72>
10004aaa:	f8d4 3084 	ldr.w	r3, [r4, #132]	@ 0x84
10004aae:	42ab      	cmp	r3, r5
10004ab0:	d008      	beq.n	10004ac4 <vTaskDelete+0x84>
10004ab2:	bd70      	pop	{r4, r5, r6, pc}
10004ab4:	f04f 33ff 	mov.w	r3, #4294967295	@ 0xffffffff
10004ab8:	f8c4 30a4 	str.w	r3, [r4, #164]	@ 0xa4
10004abc:	e7e6      	b.n	10004a8c <vTaskDelete+0x4c>
10004abe:	f8d4 5084 	ldr.w	r5, [r4, #132]	@ 0x84
10004ac2:	e7c3      	b.n	10004a4c <vTaskDelete+0xc>
10004ac4:	e8bd 4070 	ldmia.w	sp!, {r4, r5, r6, lr}
10004ac8:	f001 bbe0 	b.w	1000628c <vPortYield>
10004acc:	4631      	mov	r1, r6
10004ace:	4804      	ldr	r0, [pc, #16]	@ (10004ae0 <vTaskDelete+0xa0>)
10004ad0:	f001 fc7a 	bl	100063c8 <vListInsertEnd>
10004ad4:	6823      	ldr	r3, [r4, #0]
10004ad6:	3301      	adds	r3, #1
10004ad8:	6023      	str	r3, [r4, #0]
10004ada:	e7d7      	b.n	10004a8c <vTaskDelete+0x4c>
10004adc:	200016ac 	.word	0x200016ac
10004ae0:	200016b0 	.word	0x200016b0

10004ae4 <uxTaskPriorityGet>:
10004ae4:	b510      	push	{r4, lr}
10004ae6:	4604      	mov	r4, r0
10004ae8:	f001 fbdc 	bl	100062a4 <vPortEnterCritical>
10004aec:	b124      	cbz	r4, 10004af8 <uxTaskPriorityGet+0x14>
10004aee:	6ae4      	ldr	r4, [r4, #44]	@ 0x2c
10004af0:	f001 fbe4 	bl	100062bc <vPortExitCritical>
10004af4:	4620      	mov	r0, r4
10004af6:	bd10      	pop	{r4, pc}
10004af8:	4b03      	ldr	r3, [pc, #12]	@ (10004b08 <uxTaskPriorityGet+0x24>)
10004afa:	f8d3 4084 	ldr.w	r4, [r3, #132]	@ 0x84
10004afe:	6ae4      	ldr	r4, [r4, #44]	@ 0x2c
10004b00:	f001 fbdc 	bl	100062bc <vPortExitCritical>
10004b04:	4620      	mov	r0, r4
10004b06:	bd10      	pop	{r4, pc}
10004b08:	200016ac 	.word	0x200016ac

10004b0c <uxTaskPriorityGetFromISR>:
10004b0c:	b510      	push	{r4, lr}
10004b0e:	4604      	mov	r4, r0
10004b10:	f001 fbde 	bl	100062d0 <ulSetInterruptMaskFromISR>
10004b14:	b124      	cbz	r4, 10004b20 <uxTaskPriorityGetFromISR+0x14>
10004b16:	6ae4      	ldr	r4, [r4, #44]	@ 0x2c
10004b18:	f001 fbde 	bl	100062d8 <vClearInterruptMaskFromISR>
10004b1c:	4620      	mov	r0, r4
10004b1e:	bd10      	pop	{r4, pc}
10004b20:	4b03      	ldr	r3, [pc, #12]	@ (10004b30 <uxTaskPriorityGetFromISR+0x24>)
10004b22:	f8d3 4084 	ldr.w	r4, [r3, #132]	@ 0x84
10004b26:	6ae4      	ldr	r4, [r4, #44]	@ 0x2c
10004b28:	f001 fbd6 	bl	100062d8 <vClearInterruptMaskFromISR>
10004b2c:	4620      	mov	r0, r4
10004b2e:	bd10      	pop	{r4, pc}
10004b30:	200016ac 	.word	0x200016ac

10004b34 <vTaskPrioritySet>:
10004b34:	2904      	cmp	r1, #4
10004b36:	e92d 41f0 	stmdb	sp!, {r4, r5, r6, r7, r8, lr}
10004b3a:	bf28      	it	cs
10004b3c:	2104      	movcs	r1, #4
10004b3e:	4604      	mov	r4, r0
10004b40:	460d      	mov	r5, r1
10004b42:	f001 fbaf 	bl	100062a4 <vPortEnterCritical>
10004b46:	b38c      	cbz	r4, 10004bac <vTaskPrioritySet+0x78>
10004b48:	6ae3      	ldr	r3, [r4, #44]	@ 0x2c
10004b4a:	429d      	cmp	r5, r3
10004b4c:	d015      	beq.n	10004b7a <vTaskPrioritySet+0x46>
10004b4e:	e9d4 1205 	ldrd	r1, r2, [r4, #20]
10004b52:	4e2b      	ldr	r6, [pc, #172]	@ (10004c00 <vTaskPrioritySet+0xcc>)
10004b54:	eb03 0383 	add.w	r3, r3, r3, lsl #2
10004b58:	f106 071c 	add.w	r7, r6, #28
10004b5c:	f8d6 0084 	ldr.w	r0, [r6, #132]	@ 0x84
10004b60:	eb07 0383 	add.w	r3, r7, r3, lsl #2
10004b64:	d80d      	bhi.n	10004b82 <vTaskPrioritySet+0x4e>
10004b66:	42a0      	cmp	r0, r4
10004b68:	d012      	beq.n	10004b90 <vTaskPrioritySet+0x5c>
10004b6a:	2a00      	cmp	r2, #0
10004b6c:	62e5      	str	r5, [r4, #44]	@ 0x2c
10004b6e:	db21      	blt.n	10004bb4 <vTaskPrioritySet+0x80>
10004b70:	f1c5 0505 	rsb	r5, r5, #5
10004b74:	4299      	cmp	r1, r3
10004b76:	61a5      	str	r5, [r4, #24]
10004b78:	d01e      	beq.n	10004bb8 <vTaskPrioritySet+0x84>
10004b7a:	e8bd 41f0 	ldmia.w	sp!, {r4, r5, r6, r7, r8, lr}
10004b7e:	f001 bb9d 	b.w	100062bc <vPortExitCritical>
10004b82:	42a0      	cmp	r0, r4
10004b84:	d0f1      	beq.n	10004b6a <vTaskPrioritySet+0x36>
10004b86:	f8d6 0084 	ldr.w	r0, [r6, #132]	@ 0x84
10004b8a:	6ac0      	ldr	r0, [r0, #44]	@ 0x2c
10004b8c:	42a8      	cmp	r0, r5
10004b8e:	d2ec      	bcs.n	10004b6a <vTaskPrioritySet+0x36>
10004b90:	2a00      	cmp	r2, #0
10004b92:	62e5      	str	r5, [r4, #44]	@ 0x2c
10004b94:	db02      	blt.n	10004b9c <vTaskPrioritySet+0x68>
10004b96:	f1c5 0505 	rsb	r5, r5, #5
10004b9a:	61a5      	str	r5, [r4, #24]
10004b9c:	4299      	cmp	r1, r3
10004b9e:	d02d      	beq.n	10004bfc <vTaskPrioritySet+0xc8>
10004ba0:	f001 fb74 	bl	1000628c <vPortYield>
10004ba4:	e8bd 41f0 	ldmia.w	sp!, {r4, r5, r6, r7, r8, lr}
10004ba8:	f001 bb88 	b.w	100062bc <vPortExitCritical>
10004bac:	4b14      	ldr	r3, [pc, #80]	@ (10004c00 <vTaskPrioritySet+0xcc>)
10004bae:	f8d3 4084 	ldr.w	r4, [r3, #132]	@ 0x84
10004bb2:	e7c9      	b.n	10004b48 <vTaskPrioritySet+0x14>
10004bb4:	4299      	cmp	r1, r3
10004bb6:	d1e0      	bne.n	10004b7a <vTaskPrioritySet+0x46>
10004bb8:	2500      	movs	r5, #0
10004bba:	f104 0804 	add.w	r8, r4, #4
10004bbe:	4640      	mov	r0, r8
10004bc0:	f001 fc28 	bl	10006414 <uxListRemove>
10004bc4:	6ae3      	ldr	r3, [r4, #44]	@ 0x2c
10004bc6:	f8d6 20ac 	ldr.w	r2, [r6, #172]	@ 0xac
10004bca:	4293      	cmp	r3, r2
10004bcc:	eb03 0283 	add.w	r2, r3, r3, lsl #2
10004bd0:	bf88      	it	hi
10004bd2:	f8c6 30ac 	strhi.w	r3, [r6, #172]	@ 0xac
10004bd6:	eb06 0382 	add.w	r3, r6, r2, lsl #2
10004bda:	6a19      	ldr	r1, [r3, #32]
10004bdc:	eb07 0782 	add.w	r7, r7, r2, lsl #2
10004be0:	69da      	ldr	r2, [r3, #28]
10004be2:	6888      	ldr	r0, [r1, #8]
10004be4:	3201      	adds	r2, #1
10004be6:	60a1      	str	r1, [r4, #8]
10004be8:	60e0      	str	r0, [r4, #12]
10004bea:	f8c0 8004 	str.w	r8, [r0, #4]
10004bee:	f8c1 8008 	str.w	r8, [r1, #8]
10004bf2:	6167      	str	r7, [r4, #20]
10004bf4:	61da      	str	r2, [r3, #28]
10004bf6:	2d00      	cmp	r5, #0
10004bf8:	d1d2      	bne.n	10004ba0 <vTaskPrioritySet+0x6c>
10004bfa:	e7be      	b.n	10004b7a <vTaskPrioritySet+0x46>
10004bfc:	2501      	movs	r5, #1
10004bfe:	e7dc      	b.n	10004bba <vTaskPrioritySet+0x86>
10004c00:	200016ac 	.word	0x200016ac

10004c04 <vTaskSuspend>:
10004c04:	b570      	push	{r4, r5, r6, lr}
10004c06:	4604      	mov	r4, r0
10004c08:	4d53      	ldr	r5, [pc, #332]	@ (10004d58 <vTaskSuspend+0x154>)
10004c0a:	f001 fb4b 	bl	100062a4 <vPortEnterCritical>
10004c0e:	2c00      	cmp	r4, #0
10004c10:	d04a      	beq.n	10004ca8 <vTaskSuspend+0xa4>
10004c12:	1d26      	adds	r6, r4, #4
10004c14:	4630      	mov	r0, r6
10004c16:	f001 fbfd 	bl	10006414 <uxListRemove>
10004c1a:	6aa3      	ldr	r3, [r4, #40]	@ 0x28
10004c1c:	b11b      	cbz	r3, 10004c26 <vTaskSuspend+0x22>
10004c1e:	f104 0018 	add.w	r0, r4, #24
10004c22:	f001 fbf7 	bl	10006414 <uxListRemove>
10004c26:	4631      	mov	r1, r6
10004c28:	484c      	ldr	r0, [pc, #304]	@ (10004d5c <vTaskSuspend+0x158>)
10004c2a:	f001 fbcd 	bl	100063c8 <vListInsertEnd>
10004c2e:	f894 3064 	ldrb.w	r3, [r4, #100]	@ 0x64
10004c32:	2b01      	cmp	r3, #1
10004c34:	bf04      	itt	eq
10004c36:	2300      	moveq	r3, #0
10004c38:	f884 3064 	strbeq.w	r3, [r4, #100]	@ 0x64
10004c3c:	f894 3065 	ldrb.w	r3, [r4, #101]	@ 0x65
10004c40:	2b01      	cmp	r3, #1
10004c42:	bf04      	itt	eq
10004c44:	2300      	moveq	r3, #0
10004c46:	f884 3065 	strbeq.w	r3, [r4, #101]	@ 0x65
10004c4a:	f894 3066 	ldrb.w	r3, [r4, #102]	@ 0x66
10004c4e:	2b01      	cmp	r3, #1
10004c50:	bf04      	itt	eq
10004c52:	2300      	moveq	r3, #0
10004c54:	f884 3066 	strbeq.w	r3, [r4, #102]	@ 0x66
10004c58:	f001 fb30 	bl	100062bc <vPortExitCritical>
10004c5c:	f8d5 30f0 	ldr.w	r3, [r5, #240]	@ 0xf0
10004c60:	b99b      	cbnz	r3, 10004c8a <vTaskSuspend+0x86>
10004c62:	f8d5 3084 	ldr.w	r3, [r5, #132]	@ 0x84
10004c66:	42a3      	cmp	r3, r4
10004c68:	d000      	beq.n	10004c6c <vTaskSuspend+0x68>
10004c6a:	bd70      	pop	{r4, r5, r6, pc}
10004c6c:	f8d5 30f0 	ldr.w	r3, [r5, #240]	@ 0xf0
10004c70:	bb2b      	cbnz	r3, 10004cbe <vTaskSuspend+0xba>
10004c72:	f8d5 1088 	ldr.w	r1, [r5, #136]	@ 0x88
10004c76:	69aa      	ldr	r2, [r5, #24]
10004c78:	4291      	cmp	r1, r2
10004c7a:	d01d      	beq.n	10004cb8 <vTaskSuspend+0xb4>
10004c7c:	f8d5 30f8 	ldr.w	r3, [r5, #248]	@ 0xf8
10004c80:	b30b      	cbz	r3, 10004cc6 <vTaskSuspend+0xc2>
10004c82:	2301      	movs	r3, #1
10004c84:	f8c5 30b0 	str.w	r3, [r5, #176]	@ 0xb0
10004c88:	bd70      	pop	{r4, r5, r6, pc}
10004c8a:	f001 fb0b 	bl	100062a4 <vPortEnterCritical>
10004c8e:	f8d5 30a0 	ldr.w	r3, [r5, #160]	@ 0xa0
10004c92:	681b      	ldr	r3, [r3, #0]
10004c94:	b15b      	cbz	r3, 10004cae <vTaskSuspend+0xaa>
10004c96:	f8d5 30a0 	ldr.w	r3, [r5, #160]	@ 0xa0
10004c9a:	68db      	ldr	r3, [r3, #12]
10004c9c:	681b      	ldr	r3, [r3, #0]
10004c9e:	f8c5 30a4 	str.w	r3, [r5, #164]	@ 0xa4
10004ca2:	f001 fb0b 	bl	100062bc <vPortExitCritical>
10004ca6:	e7dc      	b.n	10004c62 <vTaskSuspend+0x5e>
10004ca8:	f8d5 4084 	ldr.w	r4, [r5, #132]	@ 0x84
10004cac:	e7b1      	b.n	10004c12 <vTaskSuspend+0xe>
10004cae:	f04f 33ff 	mov.w	r3, #4294967295	@ 0xffffffff
10004cb2:	f8c5 30a4 	str.w	r3, [r5, #164]	@ 0xa4
10004cb6:	e7f4      	b.n	10004ca2 <vTaskSuspend+0x9e>
10004cb8:	f8c5 3084 	str.w	r3, [r5, #132]	@ 0x84
10004cbc:	bd70      	pop	{r4, r5, r6, pc}
10004cbe:	e8bd 4070 	ldmia.w	sp!, {r4, r5, r6, lr}
10004cc2:	f001 bae3 	b.w	1000628c <vPortYield>
10004cc6:	f8c5 30b0 	str.w	r3, [r5, #176]	@ 0xb0
10004cca:	f8d5 30ac 	ldr.w	r3, [r5, #172]	@ 0xac
10004cce:	eb03 0283 	add.w	r2, r3, r3, lsl #2
10004cd2:	eb05 0282 	add.w	r2, r5, r2, lsl #2
10004cd6:	69d1      	ldr	r1, [r2, #28]
10004cd8:	009a      	lsls	r2, r3, #2
10004cda:	bb31      	cbnz	r1, 10004d2a <vTaskSuspend+0x126>
10004cdc:	1e59      	subs	r1, r3, #1
10004cde:	eb01 0281 	add.w	r2, r1, r1, lsl #2
10004ce2:	eb05 0282 	add.w	r2, r5, r2, lsl #2
10004ce6:	69d0      	ldr	r0, [r2, #28]
10004ce8:	008a      	lsls	r2, r1, #2
10004cea:	bb98      	cbnz	r0, 10004d54 <vTaskSuspend+0x150>
10004cec:	1e99      	subs	r1, r3, #2
10004cee:	eb01 0281 	add.w	r2, r1, r1, lsl #2
10004cf2:	eb05 0282 	add.w	r2, r5, r2, lsl #2
10004cf6:	69d0      	ldr	r0, [r2, #28]
10004cf8:	008a      	lsls	r2, r1, #2
10004cfa:	bb58      	cbnz	r0, 10004d54 <vTaskSuspend+0x150>
10004cfc:	1ed9      	subs	r1, r3, #3
10004cfe:	eb01 0281 	add.w	r2, r1, r1, lsl #2
10004d02:	eb05 0282 	add.w	r2, r5, r2, lsl #2
10004d06:	69d0      	ldr	r0, [r2, #28]
10004d08:	008a      	lsls	r2, r1, #2
10004d0a:	bb18      	cbnz	r0, 10004d54 <vTaskSuspend+0x150>
10004d0c:	1f19      	subs	r1, r3, #4
10004d0e:	eb01 0281 	add.w	r2, r1, r1, lsl #2
10004d12:	eb05 0282 	add.w	r2, r5, r2, lsl #2
10004d16:	69d0      	ldr	r0, [r2, #28]
10004d18:	008a      	lsls	r2, r1, #2
10004d1a:	b9d8      	cbnz	r0, 10004d54 <vTaskSuspend+0x150>
10004d1c:	3b05      	subs	r3, #5
10004d1e:	eb03 0283 	add.w	r2, r3, r3, lsl #2
10004d22:	eb05 0282 	add.w	r2, r5, r2, lsl #2
10004d26:	69d2      	ldr	r2, [r2, #28]
10004d28:	009a      	lsls	r2, r3, #2
10004d2a:	441a      	add	r2, r3
10004d2c:	eb05 0482 	add.w	r4, r5, r2, lsl #2
10004d30:	6a21      	ldr	r1, [r4, #32]
10004d32:	6848      	ldr	r0, [r1, #4]
10004d34:	490a      	ldr	r1, [pc, #40]	@ (10004d60 <vTaskSuspend+0x15c>)
10004d36:	6220      	str	r0, [r4, #32]
10004d38:	eb01 0282 	add.w	r2, r1, r2, lsl #2
10004d3c:	3208      	adds	r2, #8
10004d3e:	4290      	cmp	r0, r2
10004d40:	bf08      	it	eq
10004d42:	6aa0      	ldreq	r0, [r4, #40]	@ 0x28
10004d44:	68c2      	ldr	r2, [r0, #12]
10004d46:	bf08      	it	eq
10004d48:	6220      	streq	r0, [r4, #32]
10004d4a:	f8c5 2084 	str.w	r2, [r5, #132]	@ 0x84
10004d4e:	f8c5 30ac 	str.w	r3, [r5, #172]	@ 0xac
10004d52:	bd70      	pop	{r4, r5, r6, pc}
10004d54:	460b      	mov	r3, r1
10004d56:	e7e8      	b.n	10004d2a <vTaskSuspend+0x126>
10004d58:	200016ac 	.word	0x200016ac
10004d5c:	20001734 	.word	0x20001734
10004d60:	200016c8 	.word	0x200016c8

10004d64 <vTaskResume>:
10004d64:	b5f8      	push	{r3, r4, r5, r6, r7, lr}
10004d66:	4d20      	ldr	r5, [pc, #128]	@ (10004de8 <vTaskResume+0x84>)
10004d68:	f8d5 3084 	ldr.w	r3, [r5, #132]	@ 0x84
10004d6c:	4283      	cmp	r3, r0
10004d6e:	d00c      	beq.n	10004d8a <vTaskResume+0x26>
10004d70:	4604      	mov	r4, r0
10004d72:	b150      	cbz	r0, 10004d8a <vTaskResume+0x26>
10004d74:	f001 fa96 	bl	100062a4 <vPortEnterCritical>
10004d78:	6962      	ldr	r2, [r4, #20]
10004d7a:	f105 0388 	add.w	r3, r5, #136	@ 0x88
10004d7e:	429a      	cmp	r2, r3
10004d80:	d004      	beq.n	10004d8c <vTaskResume+0x28>
10004d82:	e8bd 40f8 	ldmia.w	sp!, {r3, r4, r5, r6, r7, lr}
10004d86:	f001 ba99 	b.w	100062bc <vPortExitCritical>
10004d8a:	bdf8      	pop	{r3, r4, r5, r6, r7, pc}
10004d8c:	6aa3      	ldr	r3, [r4, #40]	@ 0x28
10004d8e:	f105 02dc 	add.w	r2, r5, #220	@ 0xdc
10004d92:	4293      	cmp	r3, r2
10004d94:	d0f5      	beq.n	10004d82 <vTaskResume+0x1e>
10004d96:	2b00      	cmp	r3, #0
10004d98:	d1f3      	bne.n	10004d82 <vTaskResume+0x1e>
10004d9a:	1d27      	adds	r7, r4, #4
10004d9c:	4638      	mov	r0, r7
10004d9e:	f001 fb39 	bl	10006414 <uxListRemove>
10004da2:	6ae3      	ldr	r3, [r4, #44]	@ 0x2c
10004da4:	f8d5 20ac 	ldr.w	r2, [r5, #172]	@ 0xac
10004da8:	eb03 0c83 	add.w	ip, r3, r3, lsl #2
10004dac:	4293      	cmp	r3, r2
10004dae:	eb05 028c 	add.w	r2, r5, ip, lsl #2
10004db2:	6a16      	ldr	r6, [r2, #32]
10004db4:	bf88      	it	hi
10004db6:	f8c5 30ac 	strhi.w	r3, [r5, #172]	@ 0xac
10004dba:	480c      	ldr	r0, [pc, #48]	@ (10004dec <vTaskResume+0x88>)
10004dbc:	69d1      	ldr	r1, [r2, #28]
10004dbe:	eb00 008c 	add.w	r0, r0, ip, lsl #2
10004dc2:	f8d6 c008 	ldr.w	ip, [r6, #8]
10004dc6:	3101      	adds	r1, #1
10004dc8:	60a6      	str	r6, [r4, #8]
10004dca:	f8c4 c00c 	str.w	ip, [r4, #12]
10004dce:	f8cc 7004 	str.w	r7, [ip, #4]
10004dd2:	60b7      	str	r7, [r6, #8]
10004dd4:	6160      	str	r0, [r4, #20]
10004dd6:	61d1      	str	r1, [r2, #28]
10004dd8:	f8d5 2084 	ldr.w	r2, [r5, #132]	@ 0x84
10004ddc:	6ad2      	ldr	r2, [r2, #44]	@ 0x2c
10004dde:	4293      	cmp	r3, r2
10004de0:	d9cf      	bls.n	10004d82 <vTaskResume+0x1e>
10004de2:	f001 fa53 	bl	1000628c <vPortYield>
10004de6:	e7cc      	b.n	10004d82 <vTaskResume+0x1e>
10004de8:	200016ac 	.word	0x200016ac
10004dec:	200016c8 	.word	0x200016c8

10004df0 <xTaskResumeFromISR>:
10004df0:	e92d 41f0 	stmdb	sp!, {r4, r5, r6, r7, r8, lr}
10004df4:	4604      	mov	r4, r0
10004df6:	f001 fa6b 	bl	100062d0 <ulSetInterruptMaskFromISR>
10004dfa:	4e23      	ldr	r6, [pc, #140]	@ (10004e88 <xTaskResumeFromISR+0x98>)
10004dfc:	6962      	ldr	r2, [r4, #20]
10004dfe:	f106 0388 	add.w	r3, r6, #136	@ 0x88
10004e02:	429a      	cmp	r2, r3
10004e04:	4605      	mov	r5, r0
10004e06:	d006      	beq.n	10004e16 <xTaskResumeFromISR+0x26>
10004e08:	2700      	movs	r7, #0
10004e0a:	4628      	mov	r0, r5
10004e0c:	f001 fa64 	bl	100062d8 <vClearInterruptMaskFromISR>
10004e10:	4638      	mov	r0, r7
10004e12:	e8bd 81f0 	ldmia.w	sp!, {r4, r5, r6, r7, r8, pc}
10004e16:	6aa3      	ldr	r3, [r4, #40]	@ 0x28
10004e18:	f106 00dc 	add.w	r0, r6, #220	@ 0xdc
10004e1c:	4283      	cmp	r3, r0
10004e1e:	d0f3      	beq.n	10004e08 <xTaskResumeFromISR+0x18>
10004e20:	2b00      	cmp	r3, #0
10004e22:	d1f1      	bne.n	10004e08 <xTaskResumeFromISR+0x18>
10004e24:	f8d6 70f8 	ldr.w	r7, [r6, #248]	@ 0xf8
10004e28:	bb4f      	cbnz	r7, 10004e7e <xTaskResumeFromISR+0x8e>
10004e2a:	f8d6 3084 	ldr.w	r3, [r6, #132]	@ 0x84
10004e2e:	6ae2      	ldr	r2, [r4, #44]	@ 0x2c
10004e30:	6adb      	ldr	r3, [r3, #44]	@ 0x2c
10004e32:	429a      	cmp	r2, r3
10004e34:	d903      	bls.n	10004e3e <xTaskResumeFromISR+0x4e>
10004e36:	2301      	movs	r3, #1
10004e38:	461f      	mov	r7, r3
10004e3a:	f8c6 30b0 	str.w	r3, [r6, #176]	@ 0xb0
10004e3e:	f104 0804 	add.w	r8, r4, #4
10004e42:	4640      	mov	r0, r8
10004e44:	f001 fae6 	bl	10006414 <uxListRemove>
10004e48:	6ae3      	ldr	r3, [r4, #44]	@ 0x2c
10004e4a:	f8d6 20ac 	ldr.w	r2, [r6, #172]	@ 0xac
10004e4e:	490f      	ldr	r1, [pc, #60]	@ (10004e8c <xTaskResumeFromISR+0x9c>)
10004e50:	4293      	cmp	r3, r2
10004e52:	bf88      	it	hi
10004e54:	f8c6 30ac 	strhi.w	r3, [r6, #172]	@ 0xac
10004e58:	eb03 0383 	add.w	r3, r3, r3, lsl #2
10004e5c:	eb06 0683 	add.w	r6, r6, r3, lsl #2
10004e60:	6a30      	ldr	r0, [r6, #32]
10004e62:	69f2      	ldr	r2, [r6, #28]
10004e64:	eb01 0383 	add.w	r3, r1, r3, lsl #2
10004e68:	6881      	ldr	r1, [r0, #8]
10004e6a:	3201      	adds	r2, #1
10004e6c:	60a0      	str	r0, [r4, #8]
10004e6e:	60e1      	str	r1, [r4, #12]
10004e70:	f8c1 8004 	str.w	r8, [r1, #4]
10004e74:	f8c0 8008 	str.w	r8, [r0, #8]
10004e78:	6163      	str	r3, [r4, #20]
10004e7a:	61f2      	str	r2, [r6, #28]
10004e7c:	e7c5      	b.n	10004e0a <xTaskResumeFromISR+0x1a>
10004e7e:	f104 0118 	add.w	r1, r4, #24
10004e82:	f001 faa1 	bl	100063c8 <vListInsertEnd>
10004e86:	e7bf      	b.n	10004e08 <xTaskResumeFromISR+0x18>
10004e88:	200016ac 	.word	0x200016ac
10004e8c:	200016c8 	.word	0x200016c8

10004e90 <vTaskStartScheduler>:
10004e90:	e92d 43f8 	stmdb	sp!, {r3, r4, r5, r6, r7, r8, r9, lr}
10004e94:	f44f 7000 	mov.w	r0, #512	@ 0x200
10004e98:	f001 f9a6 	bl	100061e8 <pvPortMalloc>
10004e9c:	2800      	cmp	r0, #0
10004e9e:	d062      	beq.n	10004f66 <vTaskStartScheduler+0xd6>
10004ea0:	4605      	mov	r5, r0
10004ea2:	2068      	movs	r0, #104	@ 0x68
10004ea4:	f001 f9a0 	bl	100061e8 <pvPortMalloc>
10004ea8:	4604      	mov	r4, r0
10004eaa:	2800      	cmp	r0, #0
10004eac:	d05f      	beq.n	10004f6e <vTaskStartScheduler+0xde>
10004eae:	2100      	movs	r1, #0
10004eb0:	2268      	movs	r2, #104	@ 0x68
10004eb2:	f002 fb8d 	bl	100075d0 <memset>
10004eb6:	4a54      	ldr	r2, [pc, #336]	@ (10005008 <vTaskStartScheduler+0x178>)
10004eb8:	1d27      	adds	r7, r4, #4
10004eba:	f505 73fe 	add.w	r3, r5, #508	@ 0x1fc
10004ebe:	6362      	str	r2, [r4, #52]	@ 0x34
10004ec0:	4638      	mov	r0, r7
10004ec2:	6325      	str	r5, [r4, #48]	@ 0x30
10004ec4:	f023 0507 	bic.w	r5, r3, #7
10004ec8:	f001 fa7a 	bl	100063c0 <vListInitialiseItem>
10004ecc:	f104 0018 	add.w	r0, r4, #24
10004ed0:	f001 fa76 	bl	100063c0 <vListInitialiseItem>
10004ed4:	2305      	movs	r3, #5
10004ed6:	2200      	movs	r2, #0
10004ed8:	61a3      	str	r3, [r4, #24]
10004eda:	4628      	mov	r0, r5
10004edc:	494b      	ldr	r1, [pc, #300]	@ (1000500c <vTaskStartScheduler+0x17c>)
10004ede:	6124      	str	r4, [r4, #16]
10004ee0:	6264      	str	r4, [r4, #36]	@ 0x24
10004ee2:	f001 f9bf 	bl	10006264 <pxPortInitialiseStack>
10004ee6:	4d4a      	ldr	r5, [pc, #296]	@ (10005010 <vTaskStartScheduler+0x180>)
10004ee8:	6020      	str	r0, [r4, #0]
10004eea:	f8c5 40fc 	str.w	r4, [r5, #252]	@ 0xfc
10004eee:	f001 f9d9 	bl	100062a4 <vPortEnterCritical>
10004ef2:	69ab      	ldr	r3, [r5, #24]
10004ef4:	3301      	adds	r3, #1
10004ef6:	61ab      	str	r3, [r5, #24]
10004ef8:	f8d5 3084 	ldr.w	r3, [r5, #132]	@ 0x84
10004efc:	2b00      	cmp	r3, #0
10004efe:	d045      	beq.n	10004f8c <vTaskStartScheduler+0xfc>
10004f00:	f8d5 20f0 	ldr.w	r2, [r5, #240]	@ 0xf0
10004f04:	6ae3      	ldr	r3, [r4, #44]	@ 0x2c
10004f06:	2a00      	cmp	r2, #0
10004f08:	d038      	beq.n	10004f7c <vTaskStartScheduler+0xec>
10004f0a:	f105 061c 	add.w	r6, r5, #28
10004f0e:	f8d5 20f4 	ldr.w	r2, [r5, #244]	@ 0xf4
10004f12:	3201      	adds	r2, #1
10004f14:	f8c5 20f4 	str.w	r2, [r5, #244]	@ 0xf4
10004f18:	f8d5 20ac 	ldr.w	r2, [r5, #172]	@ 0xac
10004f1c:	429a      	cmp	r2, r3
10004f1e:	bf38      	it	cc
10004f20:	f8c5 30ac 	strcc.w	r3, [r5, #172]	@ 0xac
10004f24:	eb03 0383 	add.w	r3, r3, r3, lsl #2
10004f28:	eb06 0683 	add.w	r6, r6, r3, lsl #2
10004f2c:	eb05 0383 	add.w	r3, r5, r3, lsl #2
10004f30:	6a1a      	ldr	r2, [r3, #32]
10004f32:	6891      	ldr	r1, [r2, #8]
10004f34:	60a2      	str	r2, [r4, #8]
10004f36:	60e1      	str	r1, [r4, #12]
10004f38:	604f      	str	r7, [r1, #4]
10004f3a:	6097      	str	r7, [r2, #8]
10004f3c:	69da      	ldr	r2, [r3, #28]
10004f3e:	6166      	str	r6, [r4, #20]
10004f40:	3201      	adds	r2, #1
10004f42:	61da      	str	r2, [r3, #28]
10004f44:	f001 f9ba 	bl	100062bc <vPortExitCritical>
10004f48:	f8d5 30f0 	ldr.w	r3, [r5, #240]	@ 0xf0
10004f4c:	b13b      	cbz	r3, 10004f5e <vTaskStartScheduler+0xce>
10004f4e:	f8d5 2084 	ldr.w	r2, [r5, #132]	@ 0x84
10004f52:	6ae3      	ldr	r3, [r4, #44]	@ 0x2c
10004f54:	6ad2      	ldr	r2, [r2, #44]	@ 0x2c
10004f56:	429a      	cmp	r2, r3
10004f58:	d201      	bcs.n	10004f5e <vTaskStartScheduler+0xce>
10004f5a:	f001 f997 	bl	1000628c <vPortYield>
10004f5e:	f001 f835 	bl	10005fcc <xTimerCreateTimerTask>
10004f62:	2801      	cmp	r0, #1
10004f64:	d01b      	beq.n	10004f9e <vTaskStartScheduler+0x10e>
10004f66:	4b2b      	ldr	r3, [pc, #172]	@ (10005014 <vTaskStartScheduler+0x184>)
10004f68:	681b      	ldr	r3, [r3, #0]
10004f6a:	e8bd 83f8 	ldmia.w	sp!, {r3, r4, r5, r6, r7, r8, r9, pc}
10004f6e:	4628      	mov	r0, r5
10004f70:	f001 f946 	bl	10006200 <vPortFree>
10004f74:	4b27      	ldr	r3, [pc, #156]	@ (10005014 <vTaskStartScheduler+0x184>)
10004f76:	681b      	ldr	r3, [r3, #0]
10004f78:	e8bd 83f8 	ldmia.w	sp!, {r3, r4, r5, r6, r7, r8, r9, pc}
10004f7c:	f8d5 2084 	ldr.w	r2, [r5, #132]	@ 0x84
10004f80:	6ad2      	ldr	r2, [r2, #44]	@ 0x2c
10004f82:	429a      	cmp	r2, r3
10004f84:	bf98      	it	ls
10004f86:	f8c5 4084 	strls.w	r4, [r5, #132]	@ 0x84
10004f8a:	e7be      	b.n	10004f0a <vTaskStartScheduler+0x7a>
10004f8c:	f8c5 4084 	str.w	r4, [r5, #132]	@ 0x84
10004f90:	69ab      	ldr	r3, [r5, #24]
10004f92:	2b01      	cmp	r3, #1
10004f94:	d010      	beq.n	10004fb8 <vTaskStartScheduler+0x128>
10004f96:	6ae3      	ldr	r3, [r4, #44]	@ 0x2c
10004f98:	f105 061c 	add.w	r6, r5, #28
10004f9c:	e7b7      	b.n	10004f0e <vTaskStartScheduler+0x7e>
10004f9e:	b672      	cpsid	i
10004fa0:	f04f 32ff 	mov.w	r2, #4294967295	@ 0xffffffff
10004fa4:	2300      	movs	r3, #0
10004fa6:	f8c5 20a4 	str.w	r2, [r5, #164]	@ 0xa4
10004faa:	f8c5 00f0 	str.w	r0, [r5, #240]	@ 0xf0
10004fae:	f8c5 3080 	str.w	r3, [r5, #128]	@ 0x80
10004fb2:	f001 f9d5 	bl	10006360 <xPortStartScheduler>
10004fb6:	e7d6      	b.n	10004f66 <vTaskStartScheduler+0xd6>
10004fb8:	f105 061c 	add.w	r6, r5, #28
10004fbc:	46b0      	mov	r8, r6
10004fbe:	f105 0980 	add.w	r9, r5, #128	@ 0x80
10004fc2:	4640      	mov	r0, r8
10004fc4:	f108 0814 	add.w	r8, r8, #20
10004fc8:	f001 f9ee 	bl	100063a8 <vListInitialise>
10004fcc:	45c8      	cmp	r8, r9
10004fce:	d1f8      	bne.n	10004fc2 <vTaskStartScheduler+0x132>
10004fd0:	f8df 8044 	ldr.w	r8, [pc, #68]	@ 10005018 <vTaskStartScheduler+0x188>
10004fd4:	4640      	mov	r0, r8
10004fd6:	f108 0914 	add.w	r9, r8, #20
10004fda:	f001 f9e5 	bl	100063a8 <vListInitialise>
10004fde:	4648      	mov	r0, r9
10004fe0:	f001 f9e2 	bl	100063a8 <vListInitialise>
10004fe4:	f108 0028 	add.w	r0, r8, #40	@ 0x28
10004fe8:	f001 f9de 	bl	100063a8 <vListInitialise>
10004fec:	f1a8 00b0 	sub.w	r0, r8, #176	@ 0xb0
10004ff0:	f001 f9da 	bl	100063a8 <vListInitialise>
10004ff4:	f1a8 002c 	sub.w	r0, r8, #44	@ 0x2c
10004ff8:	f001 f9d6 	bl	100063a8 <vListInitialise>
10004ffc:	f8c5 80a0 	str.w	r8, [r5, #160]	@ 0xa0
10005000:	6ae3      	ldr	r3, [r4, #44]	@ 0x2c
10005002:	f8c5 909c 	str.w	r9, [r5, #156]	@ 0x9c
10005006:	e782      	b.n	10004f0e <vTaskStartScheduler+0x7e>
10005008:	454c4449 	.word	0x454c4449
1000500c:	100045ed 	.word	0x100045ed
10005010:	200016ac 	.word	0x200016ac
10005014:	1000857c 	.word	0x1000857c
10005018:	20001760 	.word	0x20001760

1000501c <vTaskEndScheduler>:
1000501c:	b672      	cpsid	i
1000501e:	2200      	movs	r2, #0
10005020:	4b02      	ldr	r3, [pc, #8]	@ (1000502c <vTaskEndScheduler+0x10>)
10005022:	f8c3 20f0 	str.w	r2, [r3, #240]	@ 0xf0
10005026:	f001 b92f 	b.w	10006288 <vPortEndScheduler>
1000502a:	bf00      	nop
1000502c:	200016ac 	.word	0x200016ac

10005030 <vTaskSuspendAll>:
10005030:	4a03      	ldr	r2, [pc, #12]	@ (10005040 <vTaskSuspendAll+0x10>)
10005032:	f8d2 30f8 	ldr.w	r3, [r2, #248]	@ 0xf8
10005036:	3301      	adds	r3, #1
10005038:	f8c2 30f8 	str.w	r3, [r2, #248]	@ 0xf8
1000503c:	4770      	bx	lr
1000503e:	bf00      	nop
10005040:	200016ac 	.word	0x200016ac

10005044 <xTaskResumeAll>:
10005044:	e92d 41f0 	stmdb	sp!, {r4, r5, r6, r7, r8, lr}
10005048:	4c4c      	ldr	r4, [pc, #304]	@ (1000517c <xTaskResumeAll+0x138>)
1000504a:	f001 f92b 	bl	100062a4 <vPortEnterCritical>
1000504e:	f8d4 30f8 	ldr.w	r3, [r4, #248]	@ 0xf8
10005052:	3b01      	subs	r3, #1
10005054:	f8c4 30f8 	str.w	r3, [r4, #248]	@ 0xf8
10005058:	f8d4 70f8 	ldr.w	r7, [r4, #248]	@ 0xf8
1000505c:	2f00      	cmp	r7, #0
1000505e:	d173      	bne.n	10005148 <xTaskResumeAll+0x104>
10005060:	69a3      	ldr	r3, [r4, #24]
10005062:	2b00      	cmp	r3, #0
10005064:	d070      	beq.n	10005148 <xTaskResumeAll+0x104>
10005066:	f8d4 30dc 	ldr.w	r3, [r4, #220]	@ 0xdc
1000506a:	2b00      	cmp	r3, #0
1000506c:	d04f      	beq.n	1000510e <xTaskResumeAll+0xca>
1000506e:	f04f 0801 	mov.w	r8, #1
10005072:	f104 0e1c 	add.w	lr, r4, #28
10005076:	f8d4 30e8 	ldr.w	r3, [r4, #232]	@ 0xe8
1000507a:	68db      	ldr	r3, [r3, #12]
1000507c:	6a9a      	ldr	r2, [r3, #40]	@ 0x28
1000507e:	f103 0518 	add.w	r5, r3, #24
10005082:	6856      	ldr	r6, [r2, #4]
10005084:	e9d3 0107 	ldrd	r0, r1, [r3, #28]
10005088:	42ae      	cmp	r6, r5
1000508a:	6081      	str	r1, [r0, #8]
1000508c:	6048      	str	r0, [r1, #4]
1000508e:	bf08      	it	eq
10005090:	6051      	streq	r1, [r2, #4]
10005092:	6811      	ldr	r1, [r2, #0]
10005094:	629f      	str	r7, [r3, #40]	@ 0x28
10005096:	3901      	subs	r1, #1
10005098:	6011      	str	r1, [r2, #0]
1000509a:	6958      	ldr	r0, [r3, #20]
1000509c:	1d1e      	adds	r6, r3, #4
1000509e:	6845      	ldr	r5, [r0, #4]
100050a0:	e9d3 1202 	ldrd	r1, r2, [r3, #8]
100050a4:	42b5      	cmp	r5, r6
100050a6:	608a      	str	r2, [r1, #8]
100050a8:	6805      	ldr	r5, [r0, #0]
100050aa:	6051      	str	r1, [r2, #4]
100050ac:	bf08      	it	eq
100050ae:	6042      	streq	r2, [r0, #4]
100050b0:	6ada      	ldr	r2, [r3, #44]	@ 0x2c
100050b2:	3d01      	subs	r5, #1
100050b4:	eb02 0182 	add.w	r1, r2, r2, lsl #2
100050b8:	6005      	str	r5, [r0, #0]
100050ba:	eb04 0c81 	add.w	ip, r4, r1, lsl #2
100050be:	f8d4 00ac 	ldr.w	r0, [r4, #172]	@ 0xac
100050c2:	f8dc 5020 	ldr.w	r5, [ip, #32]
100050c6:	4282      	cmp	r2, r0
100050c8:	68a8      	ldr	r0, [r5, #8]
100050ca:	bf88      	it	hi
100050cc:	f8c4 20ac 	strhi.w	r2, [r4, #172]	@ 0xac
100050d0:	e9c3 5002 	strd	r5, r0, [r3, #8]
100050d4:	6046      	str	r6, [r0, #4]
100050d6:	f8dc 001c 	ldr.w	r0, [ip, #28]
100050da:	eb0e 0181 	add.w	r1, lr, r1, lsl #2
100050de:	3001      	adds	r0, #1
100050e0:	60ae      	str	r6, [r5, #8]
100050e2:	6159      	str	r1, [r3, #20]
100050e4:	f8cc 001c 	str.w	r0, [ip, #28]
100050e8:	f8d4 3084 	ldr.w	r3, [r4, #132]	@ 0x84
100050ec:	6adb      	ldr	r3, [r3, #44]	@ 0x2c
100050ee:	429a      	cmp	r2, r3
100050f0:	d930      	bls.n	10005154 <xTaskResumeAll+0x110>
100050f2:	f8c4 80b0 	str.w	r8, [r4, #176]	@ 0xb0
100050f6:	f8d4 30dc 	ldr.w	r3, [r4, #220]	@ 0xdc
100050fa:	2b00      	cmp	r3, #0
100050fc:	d1bb      	bne.n	10005076 <xTaskResumeAll+0x32>
100050fe:	f8d4 30a0 	ldr.w	r3, [r4, #160]	@ 0xa0
10005102:	681b      	ldr	r3, [r3, #0]
10005104:	bb7b      	cbnz	r3, 10005166 <xTaskResumeAll+0x122>
10005106:	f04f 33ff 	mov.w	r3, #4294967295	@ 0xffffffff
1000510a:	f8c4 30a4 	str.w	r3, [r4, #164]	@ 0xa4
1000510e:	f8d4 5100 	ldr.w	r5, [r4, #256]	@ 0x100
10005112:	b1b5      	cbz	r5, 10005142 <xTaskResumeAll+0xfe>
10005114:	2601      	movs	r6, #1
10005116:	e006      	b.n	10005126 <xTaskResumeAll+0xe2>
10005118:	f7ff fae4 	bl	100046e4 <xTaskIncrementTick.part.0>
1000511c:	b108      	cbz	r0, 10005122 <xTaskResumeAll+0xde>
1000511e:	f8c4 60b0 	str.w	r6, [r4, #176]	@ 0xb0
10005122:	3d01      	subs	r5, #1
10005124:	d00b      	beq.n	1000513e <xTaskResumeAll+0xfa>
10005126:	f8d4 30f8 	ldr.w	r3, [r4, #248]	@ 0xf8
1000512a:	2b00      	cmp	r3, #0
1000512c:	d0f4      	beq.n	10005118 <xTaskResumeAll+0xd4>
1000512e:	f8d4 3100 	ldr.w	r3, [r4, #256]	@ 0x100
10005132:	3d01      	subs	r5, #1
10005134:	f103 0301 	add.w	r3, r3, #1
10005138:	f8c4 3100 	str.w	r3, [r4, #256]	@ 0x100
1000513c:	d1f3      	bne.n	10005126 <xTaskResumeAll+0xe2>
1000513e:	f8c4 5100 	str.w	r5, [r4, #256]	@ 0x100
10005142:	f8d4 30b0 	ldr.w	r3, [r4, #176]	@ 0xb0
10005146:	b9ab      	cbnz	r3, 10005174 <xTaskResumeAll+0x130>
10005148:	2400      	movs	r4, #0
1000514a:	f001 f8b7 	bl	100062bc <vPortExitCritical>
1000514e:	4620      	mov	r0, r4
10005150:	e8bd 81f0 	ldmia.w	sp!, {r4, r5, r6, r7, r8, pc}
10005154:	f8d4 30dc 	ldr.w	r3, [r4, #220]	@ 0xdc
10005158:	2b00      	cmp	r3, #0
1000515a:	d18c      	bne.n	10005076 <xTaskResumeAll+0x32>
1000515c:	f8d4 30a0 	ldr.w	r3, [r4, #160]	@ 0xa0
10005160:	681b      	ldr	r3, [r3, #0]
10005162:	2b00      	cmp	r3, #0
10005164:	d0cf      	beq.n	10005106 <xTaskResumeAll+0xc2>
10005166:	f8d4 30a0 	ldr.w	r3, [r4, #160]	@ 0xa0
1000516a:	68db      	ldr	r3, [r3, #12]
1000516c:	681b      	ldr	r3, [r3, #0]
1000516e:	f8c4 30a4 	str.w	r3, [r4, #164]	@ 0xa4
10005172:	e7cc      	b.n	1000510e <xTaskResumeAll+0xca>
10005174:	f001 f88a 	bl	1000628c <vPortYield>
10005178:	2401      	movs	r4, #1
1000517a:	e7e6      	b.n	1000514a <xTaskResumeAll+0x106>
1000517c:	200016ac 	.word	0x200016ac

10005180 <xTaskDelayUntil>:
10005180:	b5f8      	push	{r3, r4, r5, r6, r7, lr}
10005182:	4d23      	ldr	r5, [pc, #140]	@ (10005210 <xTaskDelayUntil+0x90>)
10005184:	f8d5 30f8 	ldr.w	r3, [r5, #248]	@ 0xf8
10005188:	3301      	adds	r3, #1
1000518a:	f8c5 30f8 	str.w	r3, [r5, #248]	@ 0xf8
1000518e:	6803      	ldr	r3, [r0, #0]
10005190:	f8d5 6080 	ldr.w	r6, [r5, #128]	@ 0x80
10005194:	185c      	adds	r4, r3, r1
10005196:	bf2c      	ite	cs
10005198:	2101      	movcs	r1, #1
1000519a:	2100      	movcc	r1, #0
1000519c:	42b3      	cmp	r3, r6
1000519e:	d907      	bls.n	100051b0 <xTaskDelayUntil+0x30>
100051a0:	b939      	cbnz	r1, 100051b2 <xTaskDelayUntil+0x32>
100051a2:	6004      	str	r4, [r0, #0]
100051a4:	2400      	movs	r4, #0
100051a6:	f7ff ff4d 	bl	10005044 <xTaskResumeAll>
100051aa:	b1f8      	cbz	r0, 100051ec <xTaskDelayUntil+0x6c>
100051ac:	4620      	mov	r0, r4
100051ae:	bdf8      	pop	{r3, r4, r5, r6, r7, pc}
100051b0:	b909      	cbnz	r1, 100051b6 <xTaskDelayUntil+0x36>
100051b2:	42a6      	cmp	r6, r4
100051b4:	d2f5      	bcs.n	100051a2 <xTaskDelayUntil+0x22>
100051b6:	f8d5 7080 	ldr.w	r7, [r5, #128]	@ 0x80
100051ba:	6004      	str	r4, [r0, #0]
100051bc:	f8d5 0084 	ldr.w	r0, [r5, #132]	@ 0x84
100051c0:	1bbe      	subs	r6, r7, r6
100051c2:	3004      	adds	r0, #4
100051c4:	f001 f926 	bl	10006414 <uxListRemove>
100051c8:	4434      	add	r4, r6
100051ca:	f8d5 3084 	ldr.w	r3, [r5, #132]	@ 0x84
100051ce:	42a7      	cmp	r7, r4
100051d0:	605c      	str	r4, [r3, #4]
100051d2:	d90f      	bls.n	100051f4 <xTaskDelayUntil+0x74>
100051d4:	f8d5 009c 	ldr.w	r0, [r5, #156]	@ 0x9c
100051d8:	f8d5 1084 	ldr.w	r1, [r5, #132]	@ 0x84
100051dc:	3104      	adds	r1, #4
100051de:	f001 f901 	bl	100063e4 <vListInsert>
100051e2:	2401      	movs	r4, #1
100051e4:	f7ff ff2e 	bl	10005044 <xTaskResumeAll>
100051e8:	2800      	cmp	r0, #0
100051ea:	d1df      	bne.n	100051ac <xTaskDelayUntil+0x2c>
100051ec:	f001 f84e 	bl	1000628c <vPortYield>
100051f0:	4620      	mov	r0, r4
100051f2:	bdf8      	pop	{r3, r4, r5, r6, r7, pc}
100051f4:	f8d5 00a0 	ldr.w	r0, [r5, #160]	@ 0xa0
100051f8:	f8d5 1084 	ldr.w	r1, [r5, #132]	@ 0x84
100051fc:	3104      	adds	r1, #4
100051fe:	f001 f8f1 	bl	100063e4 <vListInsert>
10005202:	f8d5 30a4 	ldr.w	r3, [r5, #164]	@ 0xa4
10005206:	429c      	cmp	r4, r3
10005208:	d2eb      	bcs.n	100051e2 <xTaskDelayUntil+0x62>
1000520a:	f8c5 40a4 	str.w	r4, [r5, #164]	@ 0xa4
1000520e:	e7e8      	b.n	100051e2 <xTaskDelayUntil+0x62>
10005210:	200016ac 	.word	0x200016ac

10005214 <vTaskDelay>:
10005214:	b908      	cbnz	r0, 1000521a <vTaskDelay+0x6>
10005216:	f001 b839 	b.w	1000628c <vPortYield>
1000521a:	b570      	push	{r4, r5, r6, lr}
1000521c:	4d19      	ldr	r5, [pc, #100]	@ (10005284 <vTaskDelay+0x70>)
1000521e:	4604      	mov	r4, r0
10005220:	f8d5 30f8 	ldr.w	r3, [r5, #248]	@ 0xf8
10005224:	3301      	adds	r3, #1
10005226:	f8c5 30f8 	str.w	r3, [r5, #248]	@ 0xf8
1000522a:	f8d5 6080 	ldr.w	r6, [r5, #128]	@ 0x80
1000522e:	f8d5 0084 	ldr.w	r0, [r5, #132]	@ 0x84
10005232:	3004      	adds	r0, #4
10005234:	f001 f8ee 	bl	10006414 <uxListRemove>
10005238:	f8d5 3084 	ldr.w	r3, [r5, #132]	@ 0x84
1000523c:	19a4      	adds	r4, r4, r6
1000523e:	605c      	str	r4, [r3, #4]
10005240:	d210      	bcs.n	10005264 <vTaskDelay+0x50>
10005242:	f8d5 00a0 	ldr.w	r0, [r5, #160]	@ 0xa0
10005246:	f8d5 1084 	ldr.w	r1, [r5, #132]	@ 0x84
1000524a:	3104      	adds	r1, #4
1000524c:	f001 f8ca 	bl	100063e4 <vListInsert>
10005250:	f8d5 30a4 	ldr.w	r3, [r5, #164]	@ 0xa4
10005254:	429c      	cmp	r4, r3
10005256:	bf38      	it	cc
10005258:	f8c5 40a4 	strcc.w	r4, [r5, #164]	@ 0xa4
1000525c:	f7ff fef2 	bl	10005044 <xTaskResumeAll>
10005260:	b158      	cbz	r0, 1000527a <vTaskDelay+0x66>
10005262:	bd70      	pop	{r4, r5, r6, pc}
10005264:	f8d5 009c 	ldr.w	r0, [r5, #156]	@ 0x9c
10005268:	f8d5 1084 	ldr.w	r1, [r5, #132]	@ 0x84
1000526c:	3104      	adds	r1, #4
1000526e:	f001 f8b9 	bl	100063e4 <vListInsert>
10005272:	f7ff fee7 	bl	10005044 <xTaskResumeAll>
10005276:	2800      	cmp	r0, #0
10005278:	d1f3      	bne.n	10005262 <vTaskDelay+0x4e>
1000527a:	e8bd 4070 	ldmia.w	sp!, {r4, r5, r6, lr}
1000527e:	f001 b805 	b.w	1000628c <vPortYield>
10005282:	bf00      	nop
10005284:	200016ac 	.word	0x200016ac

10005288 <xTaskGetTickCount>:
10005288:	4b01      	ldr	r3, [pc, #4]	@ (10005290 <xTaskGetTickCount+0x8>)
1000528a:	f8d3 0080 	ldr.w	r0, [r3, #128]	@ 0x80
1000528e:	4770      	bx	lr
10005290:	200016ac 	.word	0x200016ac

10005294 <xTaskGetTickCountFromISR>:
10005294:	4b01      	ldr	r3, [pc, #4]	@ (1000529c <xTaskGetTickCountFromISR+0x8>)
10005296:	f8d3 0080 	ldr.w	r0, [r3, #128]	@ 0x80
1000529a:	4770      	bx	lr
1000529c:	200016ac 	.word	0x200016ac

100052a0 <uxTaskGetNumberOfTasks>:
100052a0:	4b01      	ldr	r3, [pc, #4]	@ (100052a8 <uxTaskGetNumberOfTasks+0x8>)
100052a2:	6998      	ldr	r0, [r3, #24]
100052a4:	4770      	bx	lr
100052a6:	bf00      	nop
100052a8:	200016ac 	.word	0x200016ac

100052ac <pcTaskGetName>:
100052ac:	b108      	cbz	r0, 100052b2 <pcTaskGetName+0x6>
100052ae:	3034      	adds	r0, #52	@ 0x34
100052b0:	4770      	bx	lr
100052b2:	4b02      	ldr	r3, [pc, #8]	@ (100052bc <pcTaskGetName+0x10>)
100052b4:	f8d3 0084 	ldr.w	r0, [r3, #132]	@ 0x84
100052b8:	3034      	adds	r0, #52	@ 0x34
100052ba:	4770      	bx	lr
100052bc:	200016ac 	.word	0x200016ac

100052c0 <xTaskCatchUpTicks>:
100052c0:	b538      	push	{r3, r4, r5, lr}
100052c2:	4c0a      	ldr	r4, [pc, #40]	@ (100052ec <xTaskCatchUpTicks+0x2c>)
100052c4:	4605      	mov	r5, r0
100052c6:	f8d4 30f8 	ldr.w	r3, [r4, #248]	@ 0xf8
100052ca:	3301      	adds	r3, #1
100052cc:	f8c4 30f8 	str.w	r3, [r4, #248]	@ 0xf8
100052d0:	f000 ffe8 	bl	100062a4 <vPortEnterCritical>
100052d4:	f8d4 3100 	ldr.w	r3, [r4, #256]	@ 0x100
100052d8:	442b      	add	r3, r5
100052da:	f8c4 3100 	str.w	r3, [r4, #256]	@ 0x100
100052de:	f000 ffed 	bl	100062bc <vPortExitCritical>
100052e2:	e8bd 4038 	ldmia.w	sp!, {r3, r4, r5, lr}
100052e6:	f7ff bead 	b.w	10005044 <xTaskResumeAll>
100052ea:	bf00      	nop
100052ec:	200016ac 	.word	0x200016ac

100052f0 <xTaskIncrementTick>:
100052f0:	4b06      	ldr	r3, [pc, #24]	@ (1000530c <xTaskIncrementTick+0x1c>)
100052f2:	f8d3 20f8 	ldr.w	r2, [r3, #248]	@ 0xf8
100052f6:	b90a      	cbnz	r2, 100052fc <xTaskIncrementTick+0xc>
100052f8:	f7ff b9f4 	b.w	100046e4 <xTaskIncrementTick.part.0>
100052fc:	f8d3 2100 	ldr.w	r2, [r3, #256]	@ 0x100
10005300:	2000      	movs	r0, #0
10005302:	3201      	adds	r2, #1
10005304:	f8c3 2100 	str.w	r2, [r3, #256]	@ 0x100
10005308:	4770      	bx	lr
1000530a:	bf00      	nop
1000530c:	200016ac 	.word	0x200016ac

10005310 <vTaskSwitchContext>:
10005310:	4b2c      	ldr	r3, [pc, #176]	@ (100053c4 <vTaskSwitchContext+0xb4>)
10005312:	f8d3 20f8 	ldr.w	r2, [r3, #248]	@ 0xf8
10005316:	b11a      	cbz	r2, 10005320 <vTaskSwitchContext+0x10>
10005318:	2201      	movs	r2, #1
1000531a:	f8c3 20b0 	str.w	r2, [r3, #176]	@ 0xb0
1000531e:	4770      	bx	lr
10005320:	b410      	push	{r4}
10005322:	f8c3 20b0 	str.w	r2, [r3, #176]	@ 0xb0
10005326:	f8d3 20ac 	ldr.w	r2, [r3, #172]	@ 0xac
1000532a:	eb02 0182 	add.w	r1, r2, r2, lsl #2
1000532e:	eb03 0181 	add.w	r1, r3, r1, lsl #2
10005332:	69c8      	ldr	r0, [r1, #28]
10005334:	0091      	lsls	r1, r2, #2
10005336:	bb38      	cbnz	r0, 10005388 <vTaskSwitchContext+0x78>
10005338:	1e50      	subs	r0, r2, #1
1000533a:	eb00 0180 	add.w	r1, r0, r0, lsl #2
1000533e:	eb03 0181 	add.w	r1, r3, r1, lsl #2
10005342:	69cc      	ldr	r4, [r1, #28]
10005344:	0081      	lsls	r1, r0, #2
10005346:	2c00      	cmp	r4, #0
10005348:	d139      	bne.n	100053be <vTaskSwitchContext+0xae>
1000534a:	1e90      	subs	r0, r2, #2
1000534c:	eb00 0180 	add.w	r1, r0, r0, lsl #2
10005350:	eb03 0181 	add.w	r1, r3, r1, lsl #2
10005354:	69cc      	ldr	r4, [r1, #28]
10005356:	0081      	lsls	r1, r0, #2
10005358:	bb8c      	cbnz	r4, 100053be <vTaskSwitchContext+0xae>
1000535a:	1ed0      	subs	r0, r2, #3
1000535c:	eb00 0180 	add.w	r1, r0, r0, lsl #2
10005360:	eb03 0181 	add.w	r1, r3, r1, lsl #2
10005364:	69cc      	ldr	r4, [r1, #28]
10005366:	0081      	lsls	r1, r0, #2
10005368:	bb4c      	cbnz	r4, 100053be <vTaskSwitchContext+0xae>
1000536a:	1f10      	subs	r0, r2, #4
1000536c:	eb00 0180 	add.w	r1, r0, r0, lsl #2
10005370:	eb03 0181 	add.w	r1, r3, r1, lsl #2
10005374:	69cc      	ldr	r4, [r1, #28]
10005376:	0081      	lsls	r1, r0, #2
10005378:	bb0c      	cbnz	r4, 100053be <vTaskSwitchContext+0xae>
1000537a:	3a05      	subs	r2, #5
1000537c:	eb02 0182 	add.w	r1, r2, r2, lsl #2
10005380:	eb03 0181 	add.w	r1, r3, r1, lsl #2
10005384:	69c9      	ldr	r1, [r1, #28]
10005386:	0091      	lsls	r1, r2, #2
10005388:	4411      	add	r1, r2
1000538a:	eb03 0c81 	add.w	ip, r3, r1, lsl #2
1000538e:	f8dc 0020 	ldr.w	r0, [ip, #32]
10005392:	6844      	ldr	r4, [r0, #4]
10005394:	480c      	ldr	r0, [pc, #48]	@ (100053c8 <vTaskSwitchContext+0xb8>)
10005396:	f8cc 4020 	str.w	r4, [ip, #32]
1000539a:	eb00 0181 	add.w	r1, r0, r1, lsl #2
1000539e:	3108      	adds	r1, #8
100053a0:	428c      	cmp	r4, r1
100053a2:	bf08      	it	eq
100053a4:	f8dc 4028 	ldreq.w	r4, [ip, #40]	@ 0x28
100053a8:	68e1      	ldr	r1, [r4, #12]
100053aa:	bf08      	it	eq
100053ac:	f8cc 4020 	streq.w	r4, [ip, #32]
100053b0:	f8c3 1084 	str.w	r1, [r3, #132]	@ 0x84
100053b4:	f85d 4b04 	ldr.w	r4, [sp], #4
100053b8:	f8c3 20ac 	str.w	r2, [r3, #172]	@ 0xac
100053bc:	4770      	bx	lr
100053be:	4602      	mov	r2, r0
100053c0:	e7e2      	b.n	10005388 <vTaskSwitchContext+0x78>
100053c2:	bf00      	nop
100053c4:	200016ac 	.word	0x200016ac
100053c8:	200016c8 	.word	0x200016c8

100053cc <vTaskPlaceOnEventList>:
100053cc:	b570      	push	{r4, r5, r6, lr}
100053ce:	460d      	mov	r5, r1
100053d0:	4c23      	ldr	r4, [pc, #140]	@ (10005460 <vTaskPlaceOnEventList+0x94>)
100053d2:	f8d4 1084 	ldr.w	r1, [r4, #132]	@ 0x84
100053d6:	3118      	adds	r1, #24
100053d8:	f001 f804 	bl	100063e4 <vListInsert>
100053dc:	f8d4 6080 	ldr.w	r6, [r4, #128]	@ 0x80
100053e0:	f8d4 0084 	ldr.w	r0, [r4, #132]	@ 0x84
100053e4:	3004      	adds	r0, #4
100053e6:	f001 f815 	bl	10006414 <uxListRemove>
100053ea:	1c6b      	adds	r3, r5, #1
100053ec:	d01b      	beq.n	10005426 <vTaskPlaceOnEventList+0x5a>
100053ee:	f8d4 3084 	ldr.w	r3, [r4, #132]	@ 0x84
100053f2:	19ad      	adds	r5, r5, r6
100053f4:	605d      	str	r5, [r3, #4]
100053f6:	d308      	bcc.n	1000540a <vTaskPlaceOnEventList+0x3e>
100053f8:	f8d4 009c 	ldr.w	r0, [r4, #156]	@ 0x9c
100053fc:	f8d4 1084 	ldr.w	r1, [r4, #132]	@ 0x84
10005400:	e8bd 4070 	ldmia.w	sp!, {r4, r5, r6, lr}
10005404:	3104      	adds	r1, #4
10005406:	f000 bfed 	b.w	100063e4 <vListInsert>
1000540a:	f8d4 00a0 	ldr.w	r0, [r4, #160]	@ 0xa0
1000540e:	f8d4 1084 	ldr.w	r1, [r4, #132]	@ 0x84
10005412:	3104      	adds	r1, #4
10005414:	f000 ffe6 	bl	100063e4 <vListInsert>
10005418:	f8d4 30a4 	ldr.w	r3, [r4, #164]	@ 0xa4
1000541c:	429d      	cmp	r5, r3
1000541e:	bf38      	it	cc
10005420:	f8c4 50a4 	strcc.w	r5, [r4, #164]	@ 0xa4
10005424:	bd70      	pop	{r4, r5, r6, pc}
10005426:	f8d4 1084 	ldr.w	r1, [r4, #132]	@ 0x84
1000542a:	f8d4 308c 	ldr.w	r3, [r4, #140]	@ 0x8c
1000542e:	f8d4 2084 	ldr.w	r2, [r4, #132]	@ 0x84
10005432:	6898      	ldr	r0, [r3, #8]
10005434:	608b      	str	r3, [r1, #8]
10005436:	f8d4 1084 	ldr.w	r1, [r4, #132]	@ 0x84
1000543a:	60d0      	str	r0, [r2, #12]
1000543c:	3104      	adds	r1, #4
1000543e:	f8d4 2084 	ldr.w	r2, [r4, #132]	@ 0x84
10005442:	6041      	str	r1, [r0, #4]
10005444:	f8d4 0084 	ldr.w	r0, [r4, #132]	@ 0x84
10005448:	f8d4 1088 	ldr.w	r1, [r4, #136]	@ 0x88
1000544c:	3204      	adds	r2, #4
1000544e:	f104 0588 	add.w	r5, r4, #136	@ 0x88
10005452:	3101      	adds	r1, #1
10005454:	609a      	str	r2, [r3, #8]
10005456:	f8c4 1088 	str.w	r1, [r4, #136]	@ 0x88
1000545a:	6145      	str	r5, [r0, #20]
1000545c:	bd70      	pop	{r4, r5, r6, pc}
1000545e:	bf00      	nop
10005460:	200016ac 	.word	0x200016ac

10005464 <vTaskPlaceOnUnorderedEventList>:
10005464:	b5f8      	push	{r3, r4, r5, r6, r7, lr}
10005466:	4c30      	ldr	r4, [pc, #192]	@ (10005528 <vTaskPlaceOnUnorderedEventList+0xc4>)
10005468:	f041 4100 	orr.w	r1, r1, #2147483648	@ 0x80000000
1000546c:	f8d4 5084 	ldr.w	r5, [r4, #132]	@ 0x84
10005470:	f8d4 3084 	ldr.w	r3, [r4, #132]	@ 0x84
10005474:	61a9      	str	r1, [r5, #24]
10005476:	4615      	mov	r5, r2
10005478:	6842      	ldr	r2, [r0, #4]
1000547a:	f8d4 e084 	ldr.w	lr, [r4, #132]	@ 0x84
1000547e:	61da      	str	r2, [r3, #28]
10005480:	f8d4 7084 	ldr.w	r7, [r4, #132]	@ 0x84
10005484:	f8d4 6084 	ldr.w	r6, [r4, #132]	@ 0x84
10005488:	f8d4 c084 	ldr.w	ip, [r4, #132]	@ 0x84
1000548c:	6803      	ldr	r3, [r0, #0]
1000548e:	6891      	ldr	r1, [r2, #8]
10005490:	3301      	adds	r3, #1
10005492:	3618      	adds	r6, #24
10005494:	3718      	adds	r7, #24
10005496:	f8ce 1020 	str.w	r1, [lr, #32]
1000549a:	604f      	str	r7, [r1, #4]
1000549c:	6096      	str	r6, [r2, #8]
1000549e:	f8cc 0028 	str.w	r0, [ip, #40]	@ 0x28
100054a2:	6003      	str	r3, [r0, #0]
100054a4:	f8d4 6080 	ldr.w	r6, [r4, #128]	@ 0x80
100054a8:	f8d4 0084 	ldr.w	r0, [r4, #132]	@ 0x84
100054ac:	3004      	adds	r0, #4
100054ae:	f000 ffb1 	bl	10006414 <uxListRemove>
100054b2:	1c6b      	adds	r3, r5, #1
100054b4:	d01b      	beq.n	100054ee <vTaskPlaceOnUnorderedEventList+0x8a>
100054b6:	f8d4 3084 	ldr.w	r3, [r4, #132]	@ 0x84
100054ba:	19ad      	adds	r5, r5, r6
100054bc:	605d      	str	r5, [r3, #4]
100054be:	d308      	bcc.n	100054d2 <vTaskPlaceOnUnorderedEventList+0x6e>
100054c0:	f8d4 009c 	ldr.w	r0, [r4, #156]	@ 0x9c
100054c4:	f8d4 1084 	ldr.w	r1, [r4, #132]	@ 0x84
100054c8:	e8bd 40f8 	ldmia.w	sp!, {r3, r4, r5, r6, r7, lr}
100054cc:	3104      	adds	r1, #4
100054ce:	f000 bf89 	b.w	100063e4 <vListInsert>
100054d2:	f8d4 00a0 	ldr.w	r0, [r4, #160]	@ 0xa0
100054d6:	f8d4 1084 	ldr.w	r1, [r4, #132]	@ 0x84
100054da:	3104      	adds	r1, #4
100054dc:	f000 ff82 	bl	100063e4 <vListInsert>
100054e0:	f8d4 30a4 	ldr.w	r3, [r4, #164]	@ 0xa4
100054e4:	429d      	cmp	r5, r3
100054e6:	bf38      	it	cc
100054e8:	f8c4 50a4 	strcc.w	r5, [r4, #164]	@ 0xa4
100054ec:	bdf8      	pop	{r3, r4, r5, r6, r7, pc}
100054ee:	f8d4 1084 	ldr.w	r1, [r4, #132]	@ 0x84
100054f2:	f8d4 308c 	ldr.w	r3, [r4, #140]	@ 0x8c
100054f6:	f8d4 2084 	ldr.w	r2, [r4, #132]	@ 0x84
100054fa:	6898      	ldr	r0, [r3, #8]
100054fc:	608b      	str	r3, [r1, #8]
100054fe:	f8d4 1084 	ldr.w	r1, [r4, #132]	@ 0x84
10005502:	60d0      	str	r0, [r2, #12]
10005504:	3104      	adds	r1, #4
10005506:	f8d4 2084 	ldr.w	r2, [r4, #132]	@ 0x84
1000550a:	6041      	str	r1, [r0, #4]
1000550c:	f8d4 0084 	ldr.w	r0, [r4, #132]	@ 0x84
10005510:	f8d4 1088 	ldr.w	r1, [r4, #136]	@ 0x88
10005514:	3204      	adds	r2, #4
10005516:	f104 0588 	add.w	r5, r4, #136	@ 0x88
1000551a:	3101      	adds	r1, #1
1000551c:	609a      	str	r2, [r3, #8]
1000551e:	f8c4 1088 	str.w	r1, [r4, #136]	@ 0x88
10005522:	6145      	str	r5, [r0, #20]
10005524:	bdf8      	pop	{r3, r4, r5, r6, r7, pc}
10005526:	bf00      	nop
10005528:	200016ac 	.word	0x200016ac

1000552c <vTaskPlaceOnEventListRestricted>:
1000552c:	4694      	mov	ip, r2
1000552e:	e92d 41f0 	stmdb	sp!, {r4, r5, r6, r7, r8, lr}
10005532:	4c32      	ldr	r4, [pc, #200]	@ (100055fc <vTaskPlaceOnEventListRestricted+0xd0>)
10005534:	460d      	mov	r5, r1
10005536:	f8d4 3084 	ldr.w	r3, [r4, #132]	@ 0x84
1000553a:	6841      	ldr	r1, [r0, #4]
1000553c:	f8d4 8084 	ldr.w	r8, [r4, #132]	@ 0x84
10005540:	61d9      	str	r1, [r3, #28]
10005542:	f8d4 7084 	ldr.w	r7, [r4, #132]	@ 0x84
10005546:	f8d4 6084 	ldr.w	r6, [r4, #132]	@ 0x84
1000554a:	f8d4 e084 	ldr.w	lr, [r4, #132]	@ 0x84
1000554e:	6803      	ldr	r3, [r0, #0]
10005550:	688a      	ldr	r2, [r1, #8]
10005552:	3718      	adds	r7, #24
10005554:	3618      	adds	r6, #24
10005556:	3301      	adds	r3, #1
10005558:	f8c8 2020 	str.w	r2, [r8, #32]
1000555c:	6057      	str	r7, [r2, #4]
1000555e:	608e      	str	r6, [r1, #8]
10005560:	f8ce 0028 	str.w	r0, [lr, #40]	@ 0x28
10005564:	6003      	str	r3, [r0, #0]
10005566:	f1bc 0f00 	cmp.w	ip, #0
1000556a:	d023      	beq.n	100055b4 <vTaskPlaceOnEventListRestricted+0x88>
1000556c:	f8d4 3080 	ldr.w	r3, [r4, #128]	@ 0x80
10005570:	f8d4 0084 	ldr.w	r0, [r4, #132]	@ 0x84
10005574:	f104 0588 	add.w	r5, r4, #136	@ 0x88
10005578:	3004      	adds	r0, #4
1000557a:	f000 ff4b 	bl	10006414 <uxListRemove>
1000557e:	f8d4 1084 	ldr.w	r1, [r4, #132]	@ 0x84
10005582:	f8d4 308c 	ldr.w	r3, [r4, #140]	@ 0x8c
10005586:	f8d4 2084 	ldr.w	r2, [r4, #132]	@ 0x84
1000558a:	6898      	ldr	r0, [r3, #8]
1000558c:	608b      	str	r3, [r1, #8]
1000558e:	f8d4 1084 	ldr.w	r1, [r4, #132]	@ 0x84
10005592:	60d0      	str	r0, [r2, #12]
10005594:	3104      	adds	r1, #4
10005596:	f8d4 2084 	ldr.w	r2, [r4, #132]	@ 0x84
1000559a:	6041      	str	r1, [r0, #4]
1000559c:	f8d4 0084 	ldr.w	r0, [r4, #132]	@ 0x84
100055a0:	f8d4 1088 	ldr.w	r1, [r4, #136]	@ 0x88
100055a4:	3204      	adds	r2, #4
100055a6:	3101      	adds	r1, #1
100055a8:	609a      	str	r2, [r3, #8]
100055aa:	f8c4 1088 	str.w	r1, [r4, #136]	@ 0x88
100055ae:	6145      	str	r5, [r0, #20]
100055b0:	e8bd 81f0 	ldmia.w	sp!, {r4, r5, r6, r7, r8, pc}
100055b4:	f8d4 6080 	ldr.w	r6, [r4, #128]	@ 0x80
100055b8:	f8d4 0084 	ldr.w	r0, [r4, #132]	@ 0x84
100055bc:	3004      	adds	r0, #4
100055be:	f000 ff29 	bl	10006414 <uxListRemove>
100055c2:	f8d4 3084 	ldr.w	r3, [r4, #132]	@ 0x84
100055c6:	19ad      	adds	r5, r5, r6
100055c8:	605d      	str	r5, [r3, #4]
100055ca:	d308      	bcc.n	100055de <vTaskPlaceOnEventListRestricted+0xb2>
100055cc:	f8d4 009c 	ldr.w	r0, [r4, #156]	@ 0x9c
100055d0:	f8d4 1084 	ldr.w	r1, [r4, #132]	@ 0x84
100055d4:	e8bd 41f0 	ldmia.w	sp!, {r4, r5, r6, r7, r8, lr}
100055d8:	3104      	adds	r1, #4
100055da:	f000 bf03 	b.w	100063e4 <vListInsert>
100055de:	f8d4 00a0 	ldr.w	r0, [r4, #160]	@ 0xa0
100055e2:	f8d4 1084 	ldr.w	r1, [r4, #132]	@ 0x84
100055e6:	3104      	adds	r1, #4
100055e8:	f000 fefc 	bl	100063e4 <vListInsert>
100055ec:	f8d4 30a4 	ldr.w	r3, [r4, #164]	@ 0xa4
100055f0:	429d      	cmp	r5, r3
100055f2:	bf38      	it	cc
100055f4:	f8c4 50a4 	strcc.w	r5, [r4, #164]	@ 0xa4
100055f8:	e8bd 81f0 	ldmia.w	sp!, {r4, r5, r6, r7, r8, pc}
100055fc:	200016ac 	.word	0x200016ac

10005600 <xTaskRemoveFromEventList>:
10005600:	b4f0      	push	{r4, r5, r6, r7}
10005602:	2600      	movs	r6, #0
10005604:	68c3      	ldr	r3, [r0, #12]
10005606:	68db      	ldr	r3, [r3, #12]
10005608:	6a99      	ldr	r1, [r3, #40]	@ 0x28
1000560a:	e9d3 0207 	ldrd	r0, r2, [r3, #28]
1000560e:	6082      	str	r2, [r0, #8]
10005610:	6050      	str	r0, [r2, #4]
10005612:	6848      	ldr	r0, [r1, #4]
10005614:	f103 0518 	add.w	r5, r3, #24
10005618:	42a8      	cmp	r0, r5
1000561a:	6808      	ldr	r0, [r1, #0]
1000561c:	bf08      	it	eq
1000561e:	604a      	streq	r2, [r1, #4]
10005620:	3801      	subs	r0, #1
10005622:	4a26      	ldr	r2, [pc, #152]	@ (100056bc <xTaskRemoveFromEventList+0xbc>)
10005624:	6adc      	ldr	r4, [r3, #44]	@ 0x2c
10005626:	629e      	str	r6, [r3, #40]	@ 0x28
10005628:	6008      	str	r0, [r1, #0]
1000562a:	f8d2 10f8 	ldr.w	r1, [r2, #248]	@ 0xf8
1000562e:	2900      	cmp	r1, #0
10005630:	d133      	bne.n	1000569a <xTaskRemoveFromEventList+0x9a>
10005632:	e9d3 5002 	ldrd	r5, r0, [r3, #8]
10005636:	6959      	ldr	r1, [r3, #20]
10005638:	60a8      	str	r0, [r5, #8]
1000563a:	6045      	str	r5, [r0, #4]
1000563c:	684d      	ldr	r5, [r1, #4]
1000563e:	1d1f      	adds	r7, r3, #4
10005640:	42bd      	cmp	r5, r7
10005642:	bf08      	it	eq
10005644:	6048      	streq	r0, [r1, #4]
10005646:	6808      	ldr	r0, [r1, #0]
10005648:	eb04 0c84 	add.w	ip, r4, r4, lsl #2
1000564c:	3801      	subs	r0, #1
1000564e:	6008      	str	r0, [r1, #0]
10005650:	f8d2 10ac 	ldr.w	r1, [r2, #172]	@ 0xac
10005654:	4d1a      	ldr	r5, [pc, #104]	@ (100056c0 <xTaskRemoveFromEventList+0xc0>)
10005656:	42a1      	cmp	r1, r4
10005658:	eb02 018c 	add.w	r1, r2, ip, lsl #2
1000565c:	6a0e      	ldr	r6, [r1, #32]
1000565e:	bf38      	it	cc
10005660:	f8c2 40ac 	strcc.w	r4, [r2, #172]	@ 0xac
10005664:	69c8      	ldr	r0, [r1, #28]
10005666:	eb05 058c 	add.w	r5, r5, ip, lsl #2
1000566a:	f8d6 c008 	ldr.w	ip, [r6, #8]
1000566e:	3001      	adds	r0, #1
10005670:	609e      	str	r6, [r3, #8]
10005672:	f8c3 c00c 	str.w	ip, [r3, #12]
10005676:	f8cc 7004 	str.w	r7, [ip, #4]
1000567a:	60b7      	str	r7, [r6, #8]
1000567c:	615d      	str	r5, [r3, #20]
1000567e:	61c8      	str	r0, [r1, #28]
10005680:	f8d2 3084 	ldr.w	r3, [r2, #132]	@ 0x84
10005684:	6adb      	ldr	r3, [r3, #44]	@ 0x2c
10005686:	42a3      	cmp	r3, r4
10005688:	bf38      	it	cc
1000568a:	2301      	movcc	r3, #1
1000568c:	bcf0      	pop	{r4, r5, r6, r7}
1000568e:	bf36      	itet	cc
10005690:	4618      	movcc	r0, r3
10005692:	2000      	movcs	r0, #0
10005694:	f8c2 30b0 	strcc.w	r3, [r2, #176]	@ 0xb0
10005698:	4770      	bx	lr
1000569a:	f8d2 00dc 	ldr.w	r0, [r2, #220]	@ 0xdc
1000569e:	f8d2 10e0 	ldr.w	r1, [r2, #224]	@ 0xe0
100056a2:	3001      	adds	r0, #1
100056a4:	f8c2 00dc 	str.w	r0, [r2, #220]	@ 0xdc
100056a8:	6888      	ldr	r0, [r1, #8]
100056aa:	61d9      	str	r1, [r3, #28]
100056ac:	6218      	str	r0, [r3, #32]
100056ae:	6045      	str	r5, [r0, #4]
100056b0:	608d      	str	r5, [r1, #8]
100056b2:	f102 01dc 	add.w	r1, r2, #220	@ 0xdc
100056b6:	6299      	str	r1, [r3, #40]	@ 0x28
100056b8:	e7e2      	b.n	10005680 <xTaskRemoveFromEventList+0x80>
100056ba:	bf00      	nop
100056bc:	200016ac 	.word	0x200016ac
100056c0:	200016c8 	.word	0x200016c8

100056c4 <vTaskRemoveFromUnorderedEventList>:
100056c4:	b4f0      	push	{r4, r5, r6, r7}
100056c6:	e9d0 5401 	ldrd	r5, r4, [r0, #4]
100056ca:	2600      	movs	r6, #0
100056cc:	6902      	ldr	r2, [r0, #16]
100056ce:	f041 4100 	orr.w	r1, r1, #2147483648	@ 0x80000000
100056d2:	6001      	str	r1, [r0, #0]
100056d4:	6851      	ldr	r1, [r2, #4]
100056d6:	68c3      	ldr	r3, [r0, #12]
100056d8:	4281      	cmp	r1, r0
100056da:	6811      	ldr	r1, [r2, #0]
100056dc:	60ac      	str	r4, [r5, #8]
100056de:	6065      	str	r5, [r4, #4]
100056e0:	f101 31ff 	add.w	r1, r1, #4294967295	@ 0xffffffff
100056e4:	bf08      	it	eq
100056e6:	6054      	streq	r4, [r2, #4]
100056e8:	e9d3 5402 	ldrd	r5, r4, [r3, #8]
100056ec:	6106      	str	r6, [r0, #16]
100056ee:	6011      	str	r1, [r2, #0]
100056f0:	695a      	ldr	r2, [r3, #20]
100056f2:	1d1f      	adds	r7, r3, #4
100056f4:	6810      	ldr	r0, [r2, #0]
100056f6:	6851      	ldr	r1, [r2, #4]
100056f8:	3801      	subs	r0, #1
100056fa:	42b9      	cmp	r1, r7
100056fc:	4915      	ldr	r1, [pc, #84]	@ (10005754 <vTaskRemoveFromUnorderedEventList+0x90>)
100056fe:	60ac      	str	r4, [r5, #8]
10005700:	6065      	str	r5, [r4, #4]
10005702:	bf08      	it	eq
10005704:	6054      	streq	r4, [r2, #4]
10005706:	6010      	str	r0, [r2, #0]
10005708:	6ada      	ldr	r2, [r3, #44]	@ 0x2c
1000570a:	f8d1 00ac 	ldr.w	r0, [r1, #172]	@ 0xac
1000570e:	eb02 0c82 	add.w	ip, r2, r2, lsl #2
10005712:	4282      	cmp	r2, r0
10005714:	eb01 008c 	add.w	r0, r1, ip, lsl #2
10005718:	6a06      	ldr	r6, [r0, #32]
1000571a:	bf88      	it	hi
1000571c:	f8c1 20ac 	strhi.w	r2, [r1, #172]	@ 0xac
10005720:	4d0d      	ldr	r5, [pc, #52]	@ (10005758 <vTaskRemoveFromUnorderedEventList+0x94>)
10005722:	69c4      	ldr	r4, [r0, #28]
10005724:	eb05 058c 	add.w	r5, r5, ip, lsl #2
10005728:	f8d6 c008 	ldr.w	ip, [r6, #8]
1000572c:	3401      	adds	r4, #1
1000572e:	609e      	str	r6, [r3, #8]
10005730:	f8c3 c00c 	str.w	ip, [r3, #12]
10005734:	f8cc 7004 	str.w	r7, [ip, #4]
10005738:	60b7      	str	r7, [r6, #8]
1000573a:	615d      	str	r5, [r3, #20]
1000573c:	61c4      	str	r4, [r0, #28]
1000573e:	f8d1 3084 	ldr.w	r3, [r1, #132]	@ 0x84
10005742:	bcf0      	pop	{r4, r5, r6, r7}
10005744:	6adb      	ldr	r3, [r3, #44]	@ 0x2c
10005746:	429a      	cmp	r2, r3
10005748:	bf84      	itt	hi
1000574a:	2301      	movhi	r3, #1
1000574c:	f8c1 30b0 	strhi.w	r3, [r1, #176]	@ 0xb0
10005750:	4770      	bx	lr
10005752:	bf00      	nop
10005754:	200016ac 	.word	0x200016ac
10005758:	200016c8 	.word	0x200016c8

1000575c <vTaskSetTimeOutState>:
1000575c:	b510      	push	{r4, lr}
1000575e:	4604      	mov	r4, r0
10005760:	f000 fda0 	bl	100062a4 <vPortEnterCritical>
10005764:	4b05      	ldr	r3, [pc, #20]	@ (1000577c <vTaskSetTimeOutState+0x20>)
10005766:	f8d3 20a8 	ldr.w	r2, [r3, #168]	@ 0xa8
1000576a:	f8d3 3080 	ldr.w	r3, [r3, #128]	@ 0x80
1000576e:	e9c4 2300 	strd	r2, r3, [r4]
10005772:	e8bd 4010 	ldmia.w	sp!, {r4, lr}
10005776:	f000 bda1 	b.w	100062bc <vPortExitCritical>
1000577a:	bf00      	nop
1000577c:	200016ac 	.word	0x200016ac

10005780 <vTaskInternalSetTimeOutState>:
10005780:	4b03      	ldr	r3, [pc, #12]	@ (10005790 <vTaskInternalSetTimeOutState+0x10>)
10005782:	f8d3 20a8 	ldr.w	r2, [r3, #168]	@ 0xa8
10005786:	f8d3 3080 	ldr.w	r3, [r3, #128]	@ 0x80
1000578a:	e9c0 2300 	strd	r2, r3, [r0]
1000578e:	4770      	bx	lr
10005790:	200016ac 	.word	0x200016ac

10005794 <xTaskCheckForTimeOut>:
10005794:	b5f8      	push	{r3, r4, r5, r6, r7, lr}
10005796:	460d      	mov	r5, r1
10005798:	4604      	mov	r4, r0
1000579a:	f000 fd83 	bl	100062a4 <vPortEnterCritical>
1000579e:	682b      	ldr	r3, [r5, #0]
100057a0:	4a12      	ldr	r2, [pc, #72]	@ (100057ec <xTaskCheckForTimeOut+0x58>)
100057a2:	1c59      	adds	r1, r3, #1
100057a4:	f8d2 0080 	ldr.w	r0, [r2, #128]	@ 0x80
100057a8:	d01a      	beq.n	100057e0 <xTaskCheckForTimeOut+0x4c>
100057aa:	e9d4 7100 	ldrd	r7, r1, [r4]
100057ae:	f8d2 60a8 	ldr.w	r6, [r2, #168]	@ 0xa8
100057b2:	42b7      	cmp	r7, r6
100057b4:	d008      	beq.n	100057c8 <xTaskCheckForTimeOut+0x34>
100057b6:	4281      	cmp	r1, r0
100057b8:	d806      	bhi.n	100057c8 <xTaskCheckForTimeOut+0x34>
100057ba:	2300      	movs	r3, #0
100057bc:	2401      	movs	r4, #1
100057be:	602b      	str	r3, [r5, #0]
100057c0:	f000 fd7c 	bl	100062bc <vPortExitCritical>
100057c4:	4620      	mov	r0, r4
100057c6:	bdf8      	pop	{r3, r4, r5, r6, r7, pc}
100057c8:	1a46      	subs	r6, r0, r1
100057ca:	42b3      	cmp	r3, r6
100057cc:	d9f5      	bls.n	100057ba <xTaskCheckForTimeOut+0x26>
100057ce:	1a1b      	subs	r3, r3, r0
100057d0:	440b      	add	r3, r1
100057d2:	f8d2 10a8 	ldr.w	r1, [r2, #168]	@ 0xa8
100057d6:	f8d2 2080 	ldr.w	r2, [r2, #128]	@ 0x80
100057da:	602b      	str	r3, [r5, #0]
100057dc:	e9c4 1200 	strd	r1, r2, [r4]
100057e0:	2400      	movs	r4, #0
100057e2:	f000 fd6b 	bl	100062bc <vPortExitCritical>
100057e6:	4620      	mov	r0, r4
100057e8:	bdf8      	pop	{r3, r4, r5, r6, r7, pc}
100057ea:	bf00      	nop
100057ec:	200016ac 	.word	0x200016ac

100057f0 <vTaskMissedYield>:
100057f0:	2201      	movs	r2, #1
100057f2:	4b02      	ldr	r3, [pc, #8]	@ (100057fc <vTaskMissedYield+0xc>)
100057f4:	f8c3 20b0 	str.w	r2, [r3, #176]	@ 0xb0
100057f8:	4770      	bx	lr
100057fa:	bf00      	nop
100057fc:	200016ac 	.word	0x200016ac

10005800 <vTaskSetThreadLocalStoragePointer>:
10005800:	2904      	cmp	r1, #4
10005802:	d803      	bhi.n	1000580c <vTaskSetThreadLocalStoragePointer+0xc>
10005804:	b118      	cbz	r0, 1000580e <vTaskSetThreadLocalStoragePointer+0xe>
10005806:	eb00 0081 	add.w	r0, r0, r1, lsl #2
1000580a:	6442      	str	r2, [r0, #68]	@ 0x44
1000580c:	4770      	bx	lr
1000580e:	4b02      	ldr	r3, [pc, #8]	@ (10005818 <vTaskSetThreadLocalStoragePointer+0x18>)
10005810:	f8d3 0084 	ldr.w	r0, [r3, #132]	@ 0x84
10005814:	e7f7      	b.n	10005806 <vTaskSetThreadLocalStoragePointer+0x6>
10005816:	bf00      	nop
10005818:	200016ac 	.word	0x200016ac

1000581c <pvTaskGetThreadLocalStoragePointer>:
1000581c:	2904      	cmp	r1, #4
1000581e:	d80b      	bhi.n	10005838 <pvTaskGetThreadLocalStoragePointer+0x1c>
10005820:	b118      	cbz	r0, 1000582a <pvTaskGetThreadLocalStoragePointer+0xe>
10005822:	eb00 0081 	add.w	r0, r0, r1, lsl #2
10005826:	6c40      	ldr	r0, [r0, #68]	@ 0x44
10005828:	4770      	bx	lr
1000582a:	4b04      	ldr	r3, [pc, #16]	@ (1000583c <pvTaskGetThreadLocalStoragePointer+0x20>)
1000582c:	f8d3 0084 	ldr.w	r0, [r3, #132]	@ 0x84
10005830:	eb00 0081 	add.w	r0, r0, r1, lsl #2
10005834:	6c40      	ldr	r0, [r0, #68]	@ 0x44
10005836:	4770      	bx	lr
10005838:	2000      	movs	r0, #0
1000583a:	4770      	bx	lr
1000583c:	200016ac 	.word	0x200016ac

10005840 <xTaskGetCurrentTaskHandle>:
10005840:	4b01      	ldr	r3, [pc, #4]	@ (10005848 <xTaskGetCurrentTaskHandle+0x8>)
10005842:	f8d3 0084 	ldr.w	r0, [r3, #132]	@ 0x84
10005846:	4770      	bx	lr
10005848:	200016ac 	.word	0x200016ac

1000584c <xTaskGetSchedulerState>:
1000584c:	4b06      	ldr	r3, [pc, #24]	@ (10005868 <xTaskGetSchedulerState+0x1c>)
1000584e:	f8d3 20f0 	ldr.w	r2, [r3, #240]	@ 0xf0
10005852:	b132      	cbz	r2, 10005862 <xTaskGetSchedulerState+0x16>
10005854:	f8d3 00f8 	ldr.w	r0, [r3, #248]	@ 0xf8
10005858:	fab0 f080 	clz	r0, r0
1000585c:	0940      	lsrs	r0, r0, #5
1000585e:	0040      	lsls	r0, r0, #1
10005860:	4770      	bx	lr
10005862:	2001      	movs	r0, #1
10005864:	4770      	bx	lr
10005866:	bf00      	nop
10005868:	200016ac 	.word	0x200016ac

1000586c <uxTaskResetEventItemValue>:
1000586c:	4a06      	ldr	r2, [pc, #24]	@ (10005888 <uxTaskResetEventItemValue+0x1c>)
1000586e:	f8d2 1084 	ldr.w	r1, [r2, #132]	@ 0x84
10005872:	f8d2 3084 	ldr.w	r3, [r2, #132]	@ 0x84
10005876:	f8d2 2084 	ldr.w	r2, [r2, #132]	@ 0x84
1000587a:	6adb      	ldr	r3, [r3, #44]	@ 0x2c
1000587c:	6988      	ldr	r0, [r1, #24]
1000587e:	f1c3 0305 	rsb	r3, r3, #5
10005882:	6193      	str	r3, [r2, #24]
10005884:	4770      	bx	lr
10005886:	bf00      	nop
10005888:	200016ac 	.word	0x200016ac

1000588c <ulTaskGenericNotifyTake>:
1000588c:	e92d 41f0 	stmdb	sp!, {r4, r5, r6, r7, r8, lr}
10005890:	4604      	mov	r4, r0
10005892:	4d1c      	ldr	r5, [pc, #112]	@ (10005904 <ulTaskGenericNotifyTake+0x78>)
10005894:	4688      	mov	r8, r1
10005896:	4616      	mov	r6, r2
10005898:	f000 fd04 	bl	100062a4 <vPortEnterCritical>
1000589c:	f8d5 3084 	ldr.w	r3, [r5, #132]	@ 0x84
100058a0:	f104 0716 	add.w	r7, r4, #22
100058a4:	f853 3027 	ldr.w	r3, [r3, r7, lsl #2]
100058a8:	b933      	cbnz	r3, 100058b8 <ulTaskGenericNotifyTake+0x2c>
100058aa:	2101      	movs	r1, #1
100058ac:	f8d5 3084 	ldr.w	r3, [r5, #132]	@ 0x84
100058b0:	4423      	add	r3, r4
100058b2:	f883 1064 	strb.w	r1, [r3, #100]	@ 0x64
100058b6:	b9fe      	cbnz	r6, 100058f8 <ulTaskGenericNotifyTake+0x6c>
100058b8:	f000 fd00 	bl	100062bc <vPortExitCritical>
100058bc:	f000 fcf2 	bl	100062a4 <vPortEnterCritical>
100058c0:	f8d5 3084 	ldr.w	r3, [r5, #132]	@ 0x84
100058c4:	f853 6027 	ldr.w	r6, [r3, r7, lsl #2]
100058c8:	b13e      	cbz	r6, 100058da <ulTaskGenericNotifyTake+0x4e>
100058ca:	f8d5 3084 	ldr.w	r3, [r5, #132]	@ 0x84
100058ce:	f1b8 0f00 	cmp.w	r8, #0
100058d2:	d00d      	beq.n	100058f0 <ulTaskGenericNotifyTake+0x64>
100058d4:	2200      	movs	r2, #0
100058d6:	f843 2027 	str.w	r2, [r3, r7, lsl #2]
100058da:	2200      	movs	r2, #0
100058dc:	f8d5 3084 	ldr.w	r3, [r5, #132]	@ 0x84
100058e0:	4423      	add	r3, r4
100058e2:	f883 2064 	strb.w	r2, [r3, #100]	@ 0x64
100058e6:	f000 fce9 	bl	100062bc <vPortExitCritical>
100058ea:	4630      	mov	r0, r6
100058ec:	e8bd 81f0 	ldmia.w	sp!, {r4, r5, r6, r7, r8, pc}
100058f0:	1e72      	subs	r2, r6, #1
100058f2:	f843 2027 	str.w	r2, [r3, r7, lsl #2]
100058f6:	e7f0      	b.n	100058da <ulTaskGenericNotifyTake+0x4e>
100058f8:	4630      	mov	r0, r6
100058fa:	f7fe fe9b 	bl	10004634 <prvAddCurrentTaskToDelayedList>
100058fe:	f000 fcc5 	bl	1000628c <vPortYield>
10005902:	e7d9      	b.n	100058b8 <ulTaskGenericNotifyTake+0x2c>
10005904:	200016ac 	.word	0x200016ac

10005908 <xTaskGenericNotifyWait>:
10005908:	e92d 41f0 	stmdb	sp!, {r4, r5, r6, r7, r8, lr}
1000590c:	4604      	mov	r4, r0
1000590e:	4d26      	ldr	r5, [pc, #152]	@ (100059a8 <xTaskGenericNotifyWait+0xa0>)
10005910:	461e      	mov	r6, r3
10005912:	4688      	mov	r8, r1
10005914:	4617      	mov	r7, r2
10005916:	f000 fcc5 	bl	100062a4 <vPortEnterCritical>
1000591a:	f8d5 3084 	ldr.w	r3, [r5, #132]	@ 0x84
1000591e:	4423      	add	r3, r4
10005920:	f893 3064 	ldrb.w	r3, [r3, #100]	@ 0x64
10005924:	2b02      	cmp	r3, #2
10005926:	d00f      	beq.n	10005948 <xTaskGenericNotifyWait+0x40>
10005928:	2101      	movs	r1, #1
1000592a:	f8d5 3084 	ldr.w	r3, [r5, #132]	@ 0x84
1000592e:	eb03 0384 	add.w	r3, r3, r4, lsl #2
10005932:	6d9a      	ldr	r2, [r3, #88]	@ 0x58
10005934:	ea22 0208 	bic.w	r2, r2, r8
10005938:	659a      	str	r2, [r3, #88]	@ 0x58
1000593a:	f8d5 3084 	ldr.w	r3, [r5, #132]	@ 0x84
1000593e:	4423      	add	r3, r4
10005940:	f883 1064 	strb.w	r1, [r3, #100]	@ 0x64
10005944:	9b06      	ldr	r3, [sp, #24]
10005946:	b9f3      	cbnz	r3, 10005986 <xTaskGenericNotifyWait+0x7e>
10005948:	f000 fcb8 	bl	100062bc <vPortExitCritical>
1000594c:	f000 fcaa 	bl	100062a4 <vPortEnterCritical>
10005950:	b136      	cbz	r6, 10005960 <xTaskGenericNotifyWait+0x58>
10005952:	f8d5 3084 	ldr.w	r3, [r5, #132]	@ 0x84
10005956:	f104 0216 	add.w	r2, r4, #22
1000595a:	f853 3022 	ldr.w	r3, [r3, r2, lsl #2]
1000595e:	6033      	str	r3, [r6, #0]
10005960:	f8d5 3084 	ldr.w	r3, [r5, #132]	@ 0x84
10005964:	4423      	add	r3, r4
10005966:	f893 3064 	ldrb.w	r3, [r3, #100]	@ 0x64
1000596a:	2b02      	cmp	r3, #2
1000596c:	d011      	beq.n	10005992 <xTaskGenericNotifyWait+0x8a>
1000596e:	2600      	movs	r6, #0
10005970:	2200      	movs	r2, #0
10005972:	f8d5 3084 	ldr.w	r3, [r5, #132]	@ 0x84
10005976:	4423      	add	r3, r4
10005978:	f883 2064 	strb.w	r2, [r3, #100]	@ 0x64
1000597c:	f000 fc9e 	bl	100062bc <vPortExitCritical>
10005980:	4630      	mov	r0, r6
10005982:	e8bd 81f0 	ldmia.w	sp!, {r4, r5, r6, r7, r8, pc}
10005986:	4618      	mov	r0, r3
10005988:	f7fe fe54 	bl	10004634 <prvAddCurrentTaskToDelayedList>
1000598c:	f000 fc7e 	bl	1000628c <vPortYield>
10005990:	e7da      	b.n	10005948 <xTaskGenericNotifyWait+0x40>
10005992:	f8d5 3084 	ldr.w	r3, [r5, #132]	@ 0x84
10005996:	2601      	movs	r6, #1
10005998:	eb03 0384 	add.w	r3, r3, r4, lsl #2
1000599c:	6d9a      	ldr	r2, [r3, #88]	@ 0x58
1000599e:	ea22 0207 	bic.w	r2, r2, r7
100059a2:	659a      	str	r2, [r3, #88]	@ 0x58
100059a4:	e7e4      	b.n	10005970 <xTaskGenericNotifyWait+0x68>
100059a6:	bf00      	nop
100059a8:	200016ac 	.word	0x200016ac

100059ac <xTaskGenericNotify>:
100059ac:	e92d 41f0 	stmdb	sp!, {r4, r5, r6, r7, r8, lr}
100059b0:	f8dd 8018 	ldr.w	r8, [sp, #24]
100059b4:	4604      	mov	r4, r0
100059b6:	460d      	mov	r5, r1
100059b8:	4617      	mov	r7, r2
100059ba:	461e      	mov	r6, r3
100059bc:	f000 fc72 	bl	100062a4 <vPortEnterCritical>
100059c0:	f1b8 0f00 	cmp.w	r8, #0
100059c4:	d005      	beq.n	100059d2 <xTaskGenericNotify+0x26>
100059c6:	f105 0316 	add.w	r3, r5, #22
100059ca:	f854 3023 	ldr.w	r3, [r4, r3, lsl #2]
100059ce:	f8c8 3000 	str.w	r3, [r8]
100059d2:	2002      	movs	r0, #2
100059d4:	1961      	adds	r1, r4, r5
100059d6:	f891 2064 	ldrb.w	r2, [r1, #100]	@ 0x64
100059da:	1e73      	subs	r3, r6, #1
100059dc:	f881 0064 	strb.w	r0, [r1, #100]	@ 0x64
100059e0:	b2d2      	uxtb	r2, r2
100059e2:	2b03      	cmp	r3, #3
100059e4:	d808      	bhi.n	100059f8 <xTaskGenericNotify+0x4c>
100059e6:	e8df f003 	tbb	[pc, r3]
100059ea:	0f48      	.short	0x0f48
100059ec:	0204      	.short	0x0204
100059ee:	2a02      	cmp	r2, #2
100059f0:	d049      	beq.n	10005a86 <xTaskGenericNotify+0xda>
100059f2:	3516      	adds	r5, #22
100059f4:	f844 7025 	str.w	r7, [r4, r5, lsl #2]
100059f8:	2a01      	cmp	r2, #1
100059fa:	d00d      	beq.n	10005a18 <xTaskGenericNotify+0x6c>
100059fc:	2401      	movs	r4, #1
100059fe:	f000 fc5d 	bl	100062bc <vPortExitCritical>
10005a02:	4620      	mov	r0, r4
10005a04:	e8bd 81f0 	ldmia.w	sp!, {r4, r5, r6, r7, r8, pc}
10005a08:	eb04 0585 	add.w	r5, r4, r5, lsl #2
10005a0c:	6dab      	ldr	r3, [r5, #88]	@ 0x58
10005a0e:	2a01      	cmp	r2, #1
10005a10:	f103 0301 	add.w	r3, r3, #1
10005a14:	65ab      	str	r3, [r5, #88]	@ 0x58
10005a16:	d1f1      	bne.n	100059fc <xTaskGenericNotify+0x50>
10005a18:	e9d4 1202 	ldrd	r1, r2, [r4, #8]
10005a1c:	6963      	ldr	r3, [r4, #20]
10005a1e:	608a      	str	r2, [r1, #8]
10005a20:	6051      	str	r1, [r2, #4]
10005a22:	6859      	ldr	r1, [r3, #4]
10005a24:	1d27      	adds	r7, r4, #4
10005a26:	42b9      	cmp	r1, r7
10005a28:	6819      	ldr	r1, [r3, #0]
10005a2a:	bf08      	it	eq
10005a2c:	605a      	streq	r2, [r3, #4]
10005a2e:	3901      	subs	r1, #1
10005a30:	4a16      	ldr	r2, [pc, #88]	@ (10005a8c <xTaskGenericNotify+0xe0>)
10005a32:	6019      	str	r1, [r3, #0]
10005a34:	6ae3      	ldr	r3, [r4, #44]	@ 0x2c
10005a36:	f8d2 10ac 	ldr.w	r1, [r2, #172]	@ 0xac
10005a3a:	eb03 0c83 	add.w	ip, r3, r3, lsl #2
10005a3e:	428b      	cmp	r3, r1
10005a40:	eb02 018c 	add.w	r1, r2, ip, lsl #2
10005a44:	6a0e      	ldr	r6, [r1, #32]
10005a46:	bf88      	it	hi
10005a48:	f8c2 30ac 	strhi.w	r3, [r2, #172]	@ 0xac
10005a4c:	4d10      	ldr	r5, [pc, #64]	@ (10005a90 <xTaskGenericNotify+0xe4>)
10005a4e:	69c8      	ldr	r0, [r1, #28]
10005a50:	eb05 058c 	add.w	r5, r5, ip, lsl #2
10005a54:	f8d6 c008 	ldr.w	ip, [r6, #8]
10005a58:	3001      	adds	r0, #1
10005a5a:	60a6      	str	r6, [r4, #8]
10005a5c:	f8c4 c00c 	str.w	ip, [r4, #12]
10005a60:	f8cc 7004 	str.w	r7, [ip, #4]
10005a64:	60b7      	str	r7, [r6, #8]
10005a66:	6165      	str	r5, [r4, #20]
10005a68:	61c8      	str	r0, [r1, #28]
10005a6a:	f8d2 2084 	ldr.w	r2, [r2, #132]	@ 0x84
10005a6e:	6ad2      	ldr	r2, [r2, #44]	@ 0x2c
10005a70:	4293      	cmp	r3, r2
10005a72:	d9c3      	bls.n	100059fc <xTaskGenericNotify+0x50>
10005a74:	f000 fc0a 	bl	1000628c <vPortYield>
10005a78:	e7c0      	b.n	100059fc <xTaskGenericNotify+0x50>
10005a7a:	eb04 0585 	add.w	r5, r4, r5, lsl #2
10005a7e:	6dab      	ldr	r3, [r5, #88]	@ 0x58
10005a80:	433b      	orrs	r3, r7
10005a82:	65ab      	str	r3, [r5, #88]	@ 0x58
10005a84:	e7b8      	b.n	100059f8 <xTaskGenericNotify+0x4c>
10005a86:	2400      	movs	r4, #0
10005a88:	e7b9      	b.n	100059fe <xTaskGenericNotify+0x52>
10005a8a:	bf00      	nop
10005a8c:	200016ac 	.word	0x200016ac
10005a90:	200016c8 	.word	0x200016c8

10005a94 <xTaskGenericNotifyFromISR>:
10005a94:	e92d 41f0 	stmdb	sp!, {r4, r5, r6, r7, r8, lr}
10005a98:	f8dd 8018 	ldr.w	r8, [sp, #24]
10005a9c:	4604      	mov	r4, r0
10005a9e:	460d      	mov	r5, r1
10005aa0:	4617      	mov	r7, r2
10005aa2:	461e      	mov	r6, r3
10005aa4:	f000 fc14 	bl	100062d0 <ulSetInterruptMaskFromISR>
10005aa8:	f1b8 0f00 	cmp.w	r8, #0
10005aac:	d005      	beq.n	10005aba <xTaskGenericNotifyFromISR+0x26>
10005aae:	f105 0316 	add.w	r3, r5, #22
10005ab2:	f854 3023 	ldr.w	r3, [r4, r3, lsl #2]
10005ab6:	f8c8 3000 	str.w	r3, [r8]
10005aba:	1e73      	subs	r3, r6, #1
10005abc:	2602      	movs	r6, #2
10005abe:	1962      	adds	r2, r4, r5
10005ac0:	f892 1064 	ldrb.w	r1, [r2, #100]	@ 0x64
10005ac4:	f882 6064 	strb.w	r6, [r2, #100]	@ 0x64
10005ac8:	b2c9      	uxtb	r1, r1
10005aca:	2b03      	cmp	r3, #3
10005acc:	d808      	bhi.n	10005ae0 <xTaskGenericNotifyFromISR+0x4c>
10005ace:	e8df f003 	tbb	[pc, r3]
10005ad2:	0f3b      	.short	0x0f3b
10005ad4:	0204      	.short	0x0204
10005ad6:	2902      	cmp	r1, #2
10005ad8:	d066      	beq.n	10005ba8 <xTaskGenericNotifyFromISR+0x114>
10005ada:	3516      	adds	r5, #22
10005adc:	f844 7025 	str.w	r7, [r4, r5, lsl #2]
10005ae0:	2901      	cmp	r1, #1
10005ae2:	d00d      	beq.n	10005b00 <xTaskGenericNotifyFromISR+0x6c>
10005ae4:	2401      	movs	r4, #1
10005ae6:	f000 fbf7 	bl	100062d8 <vClearInterruptMaskFromISR>
10005aea:	4620      	mov	r0, r4
10005aec:	e8bd 81f0 	ldmia.w	sp!, {r4, r5, r6, r7, r8, pc}
10005af0:	eb04 0585 	add.w	r5, r4, r5, lsl #2
10005af4:	6dab      	ldr	r3, [r5, #88]	@ 0x58
10005af6:	2901      	cmp	r1, #1
10005af8:	f103 0301 	add.w	r3, r3, #1
10005afc:	65ab      	str	r3, [r5, #88]	@ 0x58
10005afe:	d1f1      	bne.n	10005ae4 <xTaskGenericNotifyFromISR+0x50>
10005b00:	4b2a      	ldr	r3, [pc, #168]	@ (10005bac <xTaskGenericNotifyFromISR+0x118>)
10005b02:	6ae2      	ldr	r2, [r4, #44]	@ 0x2c
10005b04:	f8d3 10f8 	ldr.w	r1, [r3, #248]	@ 0xf8
10005b08:	b321      	cbz	r1, 10005b54 <xTaskGenericNotifyFromISR+0xc0>
10005b0a:	f8d3 10e0 	ldr.w	r1, [r3, #224]	@ 0xe0
10005b0e:	f8d3 50dc 	ldr.w	r5, [r3, #220]	@ 0xdc
10005b12:	688e      	ldr	r6, [r1, #8]
10005b14:	3501      	adds	r5, #1
10005b16:	f8c3 50dc 	str.w	r5, [r3, #220]	@ 0xdc
10005b1a:	f104 0518 	add.w	r5, r4, #24
10005b1e:	61e1      	str	r1, [r4, #28]
10005b20:	6226      	str	r6, [r4, #32]
10005b22:	6075      	str	r5, [r6, #4]
10005b24:	608d      	str	r5, [r1, #8]
10005b26:	f103 01dc 	add.w	r1, r3, #220	@ 0xdc
10005b2a:	62a1      	str	r1, [r4, #40]	@ 0x28
10005b2c:	f8d3 1084 	ldr.w	r1, [r3, #132]	@ 0x84
10005b30:	6ac9      	ldr	r1, [r1, #44]	@ 0x2c
10005b32:	4291      	cmp	r1, r2
10005b34:	d2d6      	bcs.n	10005ae4 <xTaskGenericNotifyFromISR+0x50>
10005b36:	9a07      	ldr	r2, [sp, #28]
10005b38:	b112      	cbz	r2, 10005b40 <xTaskGenericNotifyFromISR+0xac>
10005b3a:	4611      	mov	r1, r2
10005b3c:	2201      	movs	r2, #1
10005b3e:	600a      	str	r2, [r1, #0]
10005b40:	2201      	movs	r2, #1
10005b42:	f8c3 20b0 	str.w	r2, [r3, #176]	@ 0xb0
10005b46:	e7cd      	b.n	10005ae4 <xTaskGenericNotifyFromISR+0x50>
10005b48:	eb04 0585 	add.w	r5, r4, r5, lsl #2
10005b4c:	6dab      	ldr	r3, [r5, #88]	@ 0x58
10005b4e:	433b      	orrs	r3, r7
10005b50:	65ab      	str	r3, [r5, #88]	@ 0x58
10005b52:	e7c5      	b.n	10005ae0 <xTaskGenericNotifyFromISR+0x4c>
10005b54:	6961      	ldr	r1, [r4, #20]
10005b56:	e9d4 6502 	ldrd	r6, r5, [r4, #8]
10005b5a:	60b5      	str	r5, [r6, #8]
10005b5c:	606e      	str	r6, [r5, #4]
10005b5e:	684e      	ldr	r6, [r1, #4]
10005b60:	f104 0c04 	add.w	ip, r4, #4
10005b64:	4566      	cmp	r6, ip
10005b66:	bf08      	it	eq
10005b68:	604d      	streq	r5, [r1, #4]
10005b6a:	680d      	ldr	r5, [r1, #0]
10005b6c:	eb02 0e82 	add.w	lr, r2, r2, lsl #2
10005b70:	3d01      	subs	r5, #1
10005b72:	600d      	str	r5, [r1, #0]
10005b74:	f8d3 10ac 	ldr.w	r1, [r3, #172]	@ 0xac
10005b78:	4e0d      	ldr	r6, [pc, #52]	@ (10005bb0 <xTaskGenericNotifyFromISR+0x11c>)
10005b7a:	4291      	cmp	r1, r2
10005b7c:	eb03 018e 	add.w	r1, r3, lr, lsl #2
10005b80:	6a0f      	ldr	r7, [r1, #32]
10005b82:	bf38      	it	cc
10005b84:	f8c3 20ac 	strcc.w	r2, [r3, #172]	@ 0xac
10005b88:	69cd      	ldr	r5, [r1, #28]
10005b8a:	eb06 068e 	add.w	r6, r6, lr, lsl #2
10005b8e:	f8d7 e008 	ldr.w	lr, [r7, #8]
10005b92:	3501      	adds	r5, #1
10005b94:	60a7      	str	r7, [r4, #8]
10005b96:	f8c4 e00c 	str.w	lr, [r4, #12]
10005b9a:	f8ce c004 	str.w	ip, [lr, #4]
10005b9e:	f8c7 c008 	str.w	ip, [r7, #8]
10005ba2:	6166      	str	r6, [r4, #20]
10005ba4:	61cd      	str	r5, [r1, #28]
10005ba6:	e7c1      	b.n	10005b2c <xTaskGenericNotifyFromISR+0x98>
10005ba8:	2400      	movs	r4, #0
10005baa:	e79c      	b.n	10005ae6 <xTaskGenericNotifyFromISR+0x52>
10005bac:	200016ac 	.word	0x200016ac
10005bb0:	200016c8 	.word	0x200016c8

10005bb4 <vTaskGenericNotifyGiveFromISR>:
10005bb4:	e92d 41f0 	stmdb	sp!, {r4, r5, r6, r7, r8, lr}
10005bb8:	460c      	mov	r4, r1
10005bba:	4605      	mov	r5, r0
10005bbc:	4616      	mov	r6, r2
10005bbe:	f000 fb87 	bl	100062d0 <ulSetInterruptMaskFromISR>
10005bc2:	2102      	movs	r1, #2
10005bc4:	192b      	adds	r3, r5, r4
10005bc6:	f893 2064 	ldrb.w	r2, [r3, #100]	@ 0x64
10005bca:	eb05 0484 	add.w	r4, r5, r4, lsl #2
10005bce:	f883 1064 	strb.w	r1, [r3, #100]	@ 0x64
10005bd2:	6da3      	ldr	r3, [r4, #88]	@ 0x58
10005bd4:	2a01      	cmp	r2, #1
10005bd6:	f103 0301 	add.w	r3, r3, #1
10005bda:	65a3      	str	r3, [r4, #88]	@ 0x58
10005bdc:	d003      	beq.n	10005be6 <vTaskGenericNotifyGiveFromISR+0x32>
10005bde:	e8bd 41f0 	ldmia.w	sp!, {r4, r5, r6, r7, r8, lr}
10005be2:	f000 bb79 	b.w	100062d8 <vClearInterruptMaskFromISR>
10005be6:	4b28      	ldr	r3, [pc, #160]	@ (10005c88 <vTaskGenericNotifyGiveFromISR+0xd4>)
10005be8:	6aea      	ldr	r2, [r5, #44]	@ 0x2c
10005bea:	f8d3 10f8 	ldr.w	r1, [r3, #248]	@ 0xf8
10005bee:	b1f9      	cbz	r1, 10005c30 <vTaskGenericNotifyGiveFromISR+0x7c>
10005bf0:	f8d3 10e0 	ldr.w	r1, [r3, #224]	@ 0xe0
10005bf4:	f8d3 40dc 	ldr.w	r4, [r3, #220]	@ 0xdc
10005bf8:	688f      	ldr	r7, [r1, #8]
10005bfa:	3401      	adds	r4, #1
10005bfc:	f8c3 40dc 	str.w	r4, [r3, #220]	@ 0xdc
10005c00:	f105 0418 	add.w	r4, r5, #24
10005c04:	61e9      	str	r1, [r5, #28]
10005c06:	622f      	str	r7, [r5, #32]
10005c08:	607c      	str	r4, [r7, #4]
10005c0a:	608c      	str	r4, [r1, #8]
10005c0c:	f103 01dc 	add.w	r1, r3, #220	@ 0xdc
10005c10:	62a9      	str	r1, [r5, #40]	@ 0x28
10005c12:	f8d3 1084 	ldr.w	r1, [r3, #132]	@ 0x84
10005c16:	6ac9      	ldr	r1, [r1, #44]	@ 0x2c
10005c18:	4291      	cmp	r1, r2
10005c1a:	d2e0      	bcs.n	10005bde <vTaskGenericNotifyGiveFromISR+0x2a>
10005c1c:	b10e      	cbz	r6, 10005c22 <vTaskGenericNotifyGiveFromISR+0x6e>
10005c1e:	2201      	movs	r2, #1
10005c20:	6032      	str	r2, [r6, #0]
10005c22:	2201      	movs	r2, #1
10005c24:	e8bd 41f0 	ldmia.w	sp!, {r4, r5, r6, r7, r8, lr}
10005c28:	f8c3 20b0 	str.w	r2, [r3, #176]	@ 0xb0
10005c2c:	f000 bb54 	b.w	100062d8 <vClearInterruptMaskFromISR>
10005c30:	6969      	ldr	r1, [r5, #20]
10005c32:	e9d5 4702 	ldrd	r4, r7, [r5, #8]
10005c36:	60a7      	str	r7, [r4, #8]
10005c38:	607c      	str	r4, [r7, #4]
10005c3a:	684c      	ldr	r4, [r1, #4]
10005c3c:	f105 0e04 	add.w	lr, r5, #4
10005c40:	4574      	cmp	r4, lr
10005c42:	680c      	ldr	r4, [r1, #0]
10005c44:	bf08      	it	eq
10005c46:	604f      	streq	r7, [r1, #4]
10005c48:	3c01      	subs	r4, #1
10005c4a:	600c      	str	r4, [r1, #0]
10005c4c:	f8d3 10ac 	ldr.w	r1, [r3, #172]	@ 0xac
10005c50:	eb02 0882 	add.w	r8, r2, r2, lsl #2
10005c54:	4291      	cmp	r1, r2
10005c56:	eb03 0188 	add.w	r1, r3, r8, lsl #2
10005c5a:	f8d1 c020 	ldr.w	ip, [r1, #32]
10005c5e:	bf38      	it	cc
10005c60:	f8c3 20ac 	strcc.w	r2, [r3, #172]	@ 0xac
10005c64:	4f09      	ldr	r7, [pc, #36]	@ (10005c8c <vTaskGenericNotifyGiveFromISR+0xd8>)
10005c66:	69cc      	ldr	r4, [r1, #28]
10005c68:	eb07 0788 	add.w	r7, r7, r8, lsl #2
10005c6c:	f8dc 8008 	ldr.w	r8, [ip, #8]
10005c70:	3401      	adds	r4, #1
10005c72:	f8c5 c008 	str.w	ip, [r5, #8]
10005c76:	f8c5 800c 	str.w	r8, [r5, #12]
10005c7a:	f8c8 e004 	str.w	lr, [r8, #4]
10005c7e:	f8cc e008 	str.w	lr, [ip, #8]
10005c82:	616f      	str	r7, [r5, #20]
10005c84:	61cc      	str	r4, [r1, #28]
10005c86:	e7c4      	b.n	10005c12 <vTaskGenericNotifyGiveFromISR+0x5e>
10005c88:	200016ac 	.word	0x200016ac
10005c8c:	200016c8 	.word	0x200016c8

10005c90 <xTaskGenericNotifyStateClear>:
10005c90:	b538      	push	{r3, r4, r5, lr}
10005c92:	460d      	mov	r5, r1
10005c94:	b180      	cbz	r0, 10005cb8 <xTaskGenericNotifyStateClear+0x28>
10005c96:	4604      	mov	r4, r0
10005c98:	442c      	add	r4, r5
10005c9a:	f000 fb03 	bl	100062a4 <vPortEnterCritical>
10005c9e:	f894 3064 	ldrb.w	r3, [r4, #100]	@ 0x64
10005ca2:	2b02      	cmp	r3, #2
10005ca4:	bf05      	ittet	eq
10005ca6:	2300      	moveq	r3, #0
10005ca8:	2501      	moveq	r5, #1
10005caa:	2500      	movne	r5, #0
10005cac:	f884 3064 	strbeq.w	r3, [r4, #100]	@ 0x64
10005cb0:	f000 fb04 	bl	100062bc <vPortExitCritical>
10005cb4:	4628      	mov	r0, r5
10005cb6:	bd38      	pop	{r3, r4, r5, pc}
10005cb8:	4b01      	ldr	r3, [pc, #4]	@ (10005cc0 <xTaskGenericNotifyStateClear+0x30>)
10005cba:	f8d3 4084 	ldr.w	r4, [r3, #132]	@ 0x84
10005cbe:	e7eb      	b.n	10005c98 <xTaskGenericNotifyStateClear+0x8>
10005cc0:	200016ac 	.word	0x200016ac

10005cc4 <ulTaskGenericNotifyValueClear>:
10005cc4:	b570      	push	{r4, r5, r6, lr}
10005cc6:	460e      	mov	r6, r1
10005cc8:	4615      	mov	r5, r2
10005cca:	b168      	cbz	r0, 10005ce8 <ulTaskGenericNotifyValueClear+0x24>
10005ccc:	4604      	mov	r4, r0
10005cce:	f000 fae9 	bl	100062a4 <vPortEnterCritical>
10005cd2:	eb04 0186 	add.w	r1, r4, r6, lsl #2
10005cd6:	6d8c      	ldr	r4, [r1, #88]	@ 0x58
10005cd8:	6d8b      	ldr	r3, [r1, #88]	@ 0x58
10005cda:	ea23 0305 	bic.w	r3, r3, r5
10005cde:	658b      	str	r3, [r1, #88]	@ 0x58
10005ce0:	f000 faec 	bl	100062bc <vPortExitCritical>
10005ce4:	4620      	mov	r0, r4
10005ce6:	bd70      	pop	{r4, r5, r6, pc}
10005ce8:	4b01      	ldr	r3, [pc, #4]	@ (10005cf0 <ulTaskGenericNotifyValueClear+0x2c>)
10005cea:	f8d3 4084 	ldr.w	r4, [r3, #132]	@ 0x84
10005cee:	e7ee      	b.n	10005cce <ulTaskGenericNotifyValueClear+0xa>
10005cf0:	200016ac 	.word	0x200016ac

10005cf4 <prvTimerTask>:
10005cf4:	e92d 43f0 	stmdb	sp!, {r4, r5, r6, r7, r8, r9, lr}
10005cf8:	4e9e      	ldr	r6, [pc, #632]	@ (10005f74 <prvTimerTask+0x280>)
10005cfa:	b085      	sub	sp, #20
10005cfc:	6833      	ldr	r3, [r6, #0]
10005cfe:	681c      	ldr	r4, [r3, #0]
10005d00:	2c00      	cmp	r4, #0
10005d02:	f000 80f7 	beq.w	10005ef4 <prvTimerTask+0x200>
10005d06:	68db      	ldr	r3, [r3, #12]
10005d08:	681c      	ldr	r4, [r3, #0]
10005d0a:	f7ff f991 	bl	10005030 <vTaskSuspendAll>
10005d0e:	f7ff fabb 	bl	10005288 <xTaskGetTickCount>
10005d12:	6873      	ldr	r3, [r6, #4]
10005d14:	4680      	mov	r8, r0
10005d16:	4298      	cmp	r0, r3
10005d18:	d33b      	bcc.n	10005d92 <prvTimerTask+0x9e>
10005d1a:	4284      	cmp	r4, r0
10005d1c:	6070      	str	r0, [r6, #4]
10005d1e:	f240 8112 	bls.w	10005f46 <prvTimerTask+0x252>
10005d22:	2200      	movs	r2, #0
10005d24:	68f0      	ldr	r0, [r6, #12]
10005d26:	eba4 0108 	sub.w	r1, r4, r8
10005d2a:	f001 fbed 	bl	10007508 <vQueueWaitForMessageRestricted>
10005d2e:	f7ff f989 	bl	10005044 <xTaskResumeAll>
10005d32:	2800      	cmp	r0, #0
10005d34:	f000 80fa 	beq.w	10005f2c <prvTimerTask+0x238>
10005d38:	2200      	movs	r2, #0
10005d3a:	68f0      	ldr	r0, [r6, #12]
10005d3c:	a901      	add	r1, sp, #4
10005d3e:	f000 fe1f 	bl	10006980 <xQueueReceive>
10005d42:	2800      	cmp	r0, #0
10005d44:	d0da      	beq.n	10005cfc <prvTimerTask+0x8>
10005d46:	9b01      	ldr	r3, [sp, #4]
10005d48:	2b00      	cmp	r3, #0
10005d4a:	dbf5      	blt.n	10005d38 <prvTimerTask+0x44>
10005d4c:	f8dd 800c 	ldr.w	r8, [sp, #12]
10005d50:	f8d8 3014 	ldr.w	r3, [r8, #20]
10005d54:	b11b      	cbz	r3, 10005d5e <prvTimerTask+0x6a>
10005d56:	f108 0004 	add.w	r0, r8, #4
10005d5a:	f000 fb5b 	bl	10006414 <uxListRemove>
10005d5e:	f7ff fa93 	bl	10005288 <xTaskGetTickCount>
10005d62:	6873      	ldr	r3, [r6, #4]
10005d64:	4681      	mov	r9, r0
10005d66:	4298      	cmp	r0, r3
10005d68:	d339      	bcc.n	10005dde <prvTimerTask+0xea>
10005d6a:	9b01      	ldr	r3, [sp, #4]
10005d6c:	f8c6 9004 	str.w	r9, [r6, #4]
10005d70:	3b01      	subs	r3, #1
10005d72:	2b08      	cmp	r3, #8
10005d74:	d8e0      	bhi.n	10005d38 <prvTimerTask+0x44>
10005d76:	e8df f003 	tbb	[pc, r3]
10005d7a:	5151      	.short	0x5151
10005d7c:	51b493ad 	.word	0x51b493ad
10005d80:	ad51      	.short	0xad51
10005d82:	93          	.byte	0x93
10005d83:	00          	.byte	0x00
10005d84:	f023 0301 	bic.w	r3, r3, #1
10005d88:	f884 3024 	strb.w	r3, [r4, #36]	@ 0x24
10005d8c:	4620      	mov	r0, r4
10005d8e:	6a23      	ldr	r3, [r4, #32]
10005d90:	4798      	blx	r3
10005d92:	6833      	ldr	r3, [r6, #0]
10005d94:	681a      	ldr	r2, [r3, #0]
10005d96:	2a00      	cmp	r2, #0
10005d98:	f000 80bd 	beq.w	10005f16 <prvTimerTask+0x222>
10005d9c:	68db      	ldr	r3, [r3, #12]
10005d9e:	68dc      	ldr	r4, [r3, #12]
10005da0:	681d      	ldr	r5, [r3, #0]
10005da2:	1d27      	adds	r7, r4, #4
10005da4:	4638      	mov	r0, r7
10005da6:	f000 fb35 	bl	10006414 <uxListRemove>
10005daa:	f894 3024 	ldrb.w	r3, [r4, #36]	@ 0x24
10005dae:	075a      	lsls	r2, r3, #29
10005db0:	d5e8      	bpl.n	10005d84 <prvTimerTask+0x90>
10005db2:	e002      	b.n	10005dba <prvTimerTask+0xc6>
10005db4:	4620      	mov	r0, r4
10005db6:	6a23      	ldr	r3, [r4, #32]
10005db8:	4798      	blx	r3
10005dba:	69a3      	ldr	r3, [r4, #24]
10005dbc:	6124      	str	r4, [r4, #16]
10005dbe:	18ea      	adds	r2, r5, r3
10005dc0:	18ed      	adds	r5, r5, r3
10005dc2:	6062      	str	r2, [r4, #4]
10005dc4:	d3f6      	bcc.n	10005db4 <prvTimerTask+0xc0>
10005dc6:	4639      	mov	r1, r7
10005dc8:	68b0      	ldr	r0, [r6, #8]
10005dca:	f000 fb0b 	bl	100063e4 <vListInsert>
10005dce:	e7dd      	b.n	10005d8c <prvTimerTask+0x98>
10005dd0:	f023 0301 	bic.w	r3, r3, #1
10005dd4:	f884 3024 	strb.w	r3, [r4, #36]	@ 0x24
10005dd8:	4620      	mov	r0, r4
10005dda:	6a23      	ldr	r3, [r4, #32]
10005ddc:	4798      	blx	r3
10005dde:	6833      	ldr	r3, [r6, #0]
10005de0:	681a      	ldr	r2, [r3, #0]
10005de2:	2a00      	cmp	r2, #0
10005de4:	f000 809e 	beq.w	10005f24 <prvTimerTask+0x230>
10005de8:	68db      	ldr	r3, [r3, #12]
10005dea:	68dc      	ldr	r4, [r3, #12]
10005dec:	681d      	ldr	r5, [r3, #0]
10005dee:	1d27      	adds	r7, r4, #4
10005df0:	4638      	mov	r0, r7
10005df2:	f000 fb0f 	bl	10006414 <uxListRemove>
10005df6:	f894 3024 	ldrb.w	r3, [r4, #36]	@ 0x24
10005dfa:	0758      	lsls	r0, r3, #29
10005dfc:	d5e8      	bpl.n	10005dd0 <prvTimerTask+0xdc>
10005dfe:	e002      	b.n	10005e06 <prvTimerTask+0x112>
10005e00:	4620      	mov	r0, r4
10005e02:	6a23      	ldr	r3, [r4, #32]
10005e04:	4798      	blx	r3
10005e06:	69a3      	ldr	r3, [r4, #24]
10005e08:	6124      	str	r4, [r4, #16]
10005e0a:	18ea      	adds	r2, r5, r3
10005e0c:	18ed      	adds	r5, r5, r3
10005e0e:	6062      	str	r2, [r4, #4]
10005e10:	d3f6      	bcc.n	10005e00 <prvTimerTask+0x10c>
10005e12:	4639      	mov	r1, r7
10005e14:	68b0      	ldr	r0, [r6, #8]
10005e16:	f000 fae5 	bl	100063e4 <vListInsert>
10005e1a:	e7dd      	b.n	10005dd8 <prvTimerTask+0xe4>
10005e1c:	f898 0024 	ldrb.w	r0, [r8, #36]	@ 0x24
10005e20:	9902      	ldr	r1, [sp, #8]
10005e22:	f8d8 2018 	ldr.w	r2, [r8, #24]
10005e26:	f040 0401 	orr.w	r4, r0, #1
10005e2a:	188b      	adds	r3, r1, r2
10005e2c:	f888 4024 	strb.w	r4, [r8, #36]	@ 0x24
10005e30:	bf2c      	ite	cs
10005e32:	2401      	movcs	r4, #1
10005e34:	2400      	movcc	r4, #0
10005e36:	454b      	cmp	r3, r9
10005e38:	f8c8 3004 	str.w	r3, [r8, #4]
10005e3c:	f8c8 8010 	str.w	r8, [r8, #16]
10005e40:	d877      	bhi.n	10005f32 <prvTimerTask+0x23e>
10005e42:	eba9 0101 	sub.w	r1, r9, r1
10005e46:	428a      	cmp	r2, r1
10005e48:	d83e      	bhi.n	10005ec8 <prvTimerTask+0x1d4>
10005e4a:	0741      	lsls	r1, r0, #29
10005e4c:	d412      	bmi.n	10005e74 <prvTimerTask+0x180>
10005e4e:	f020 0001 	bic.w	r0, r0, #1
10005e52:	f888 0024 	strb.w	r0, [r8, #36]	@ 0x24
10005e56:	4640      	mov	r0, r8
10005e58:	f8d8 3020 	ldr.w	r3, [r8, #32]
10005e5c:	4798      	blx	r3
10005e5e:	e76b      	b.n	10005d38 <prvTimerTask+0x44>
10005e60:	428a      	cmp	r2, r1
10005e62:	f200 80ac 	bhi.w	10005fbe <prvTimerTask+0x2ca>
10005e66:	f8d8 3020 	ldr.w	r3, [r8, #32]
10005e6a:	4640      	mov	r0, r8
10005e6c:	4798      	blx	r3
10005e6e:	4623      	mov	r3, r4
10005e70:	f8d8 2018 	ldr.w	r2, [r8, #24]
10005e74:	18d4      	adds	r4, r2, r3
10005e76:	bf2c      	ite	cs
10005e78:	2001      	movcs	r0, #1
10005e7a:	2000      	movcc	r0, #0
10005e7c:	45a1      	cmp	r9, r4
10005e7e:	eba9 0103 	sub.w	r1, r9, r3
10005e82:	f8c8 4004 	str.w	r4, [r8, #4]
10005e86:	f8c8 8010 	str.w	r8, [r8, #16]
10005e8a:	d2e9      	bcs.n	10005e60 <prvTimerTask+0x16c>
10005e8c:	4599      	cmp	r9, r3
10005e8e:	d201      	bcs.n	10005e94 <prvTimerTask+0x1a0>
10005e90:	2800      	cmp	r0, #0
10005e92:	d0e8      	beq.n	10005e66 <prvTimerTask+0x172>
10005e94:	6830      	ldr	r0, [r6, #0]
10005e96:	f108 0104 	add.w	r1, r8, #4
10005e9a:	f000 faa3 	bl	100063e4 <vListInsert>
10005e9e:	e7da      	b.n	10005e56 <prvTimerTask+0x162>
10005ea0:	9a02      	ldr	r2, [sp, #8]
10005ea2:	f898 3024 	ldrb.w	r3, [r8, #36]	@ 0x24
10005ea6:	eb02 0109 	add.w	r1, r2, r9
10005eaa:	f043 0301 	orr.w	r3, r3, #1
10005eae:	4549      	cmp	r1, r9
10005eb0:	f888 3024 	strb.w	r3, [r8, #36]	@ 0x24
10005eb4:	f8c8 2018 	str.w	r2, [r8, #24]
10005eb8:	f8c8 1004 	str.w	r1, [r8, #4]
10005ebc:	f8c8 8010 	str.w	r8, [r8, #16]
10005ec0:	d83b      	bhi.n	10005f3a <prvTimerTask+0x246>
10005ec2:	2a00      	cmp	r2, #0
10005ec4:	f43f af38 	beq.w	10005d38 <prvTimerTask+0x44>
10005ec8:	68b0      	ldr	r0, [r6, #8]
10005eca:	f108 0104 	add.w	r1, r8, #4
10005ece:	f000 fa89 	bl	100063e4 <vListInsert>
10005ed2:	e731      	b.n	10005d38 <prvTimerTask+0x44>
10005ed4:	f898 3024 	ldrb.w	r3, [r8, #36]	@ 0x24
10005ed8:	f023 0301 	bic.w	r3, r3, #1
10005edc:	f888 3024 	strb.w	r3, [r8, #36]	@ 0x24
10005ee0:	e72a      	b.n	10005d38 <prvTimerTask+0x44>
10005ee2:	f898 3024 	ldrb.w	r3, [r8, #36]	@ 0x24
10005ee6:	079a      	lsls	r2, r3, #30
10005ee8:	d560      	bpl.n	10005fac <prvTimerTask+0x2b8>
10005eea:	f023 0301 	bic.w	r3, r3, #1
10005eee:	f888 3024 	strb.w	r3, [r8, #36]	@ 0x24
10005ef2:	e721      	b.n	10005d38 <prvTimerTask+0x44>
10005ef4:	f7ff f89c 	bl	10005030 <vTaskSuspendAll>
10005ef8:	f7ff f9c6 	bl	10005288 <xTaskGetTickCount>
10005efc:	6873      	ldr	r3, [r6, #4]
10005efe:	4680      	mov	r8, r0
10005f00:	4298      	cmp	r0, r3
10005f02:	f4ff af46 	bcc.w	10005d92 <prvTimerTask+0x9e>
10005f06:	68b3      	ldr	r3, [r6, #8]
10005f08:	f8c6 8004 	str.w	r8, [r6, #4]
10005f0c:	681a      	ldr	r2, [r3, #0]
10005f0e:	fab2 f282 	clz	r2, r2
10005f12:	0952      	lsrs	r2, r2, #5
10005f14:	e706      	b.n	10005d24 <prvTimerTask+0x30>
10005f16:	68b2      	ldr	r2, [r6, #8]
10005f18:	60b3      	str	r3, [r6, #8]
10005f1a:	e9c6 2800 	strd	r2, r8, [r6]
10005f1e:	f7ff f891 	bl	10005044 <xTaskResumeAll>
10005f22:	e709      	b.n	10005d38 <prvTimerTask+0x44>
10005f24:	68b2      	ldr	r2, [r6, #8]
10005f26:	60b3      	str	r3, [r6, #8]
10005f28:	6032      	str	r2, [r6, #0]
10005f2a:	e71e      	b.n	10005d6a <prvTimerTask+0x76>
10005f2c:	f000 f9ae 	bl	1000628c <vPortYield>
10005f30:	e702      	b.n	10005d38 <prvTimerTask+0x44>
10005f32:	4549      	cmp	r1, r9
10005f34:	d901      	bls.n	10005f3a <prvTimerTask+0x246>
10005f36:	2c00      	cmp	r4, #0
10005f38:	d087      	beq.n	10005e4a <prvTimerTask+0x156>
10005f3a:	6830      	ldr	r0, [r6, #0]
10005f3c:	f108 0104 	add.w	r1, r8, #4
10005f40:	f000 fa50 	bl	100063e4 <vListInsert>
10005f44:	e6f8      	b.n	10005d38 <prvTimerTask+0x44>
10005f46:	f7ff f87d 	bl	10005044 <xTaskResumeAll>
10005f4a:	6833      	ldr	r3, [r6, #0]
10005f4c:	68db      	ldr	r3, [r3, #12]
10005f4e:	68dd      	ldr	r5, [r3, #12]
10005f50:	f105 0904 	add.w	r9, r5, #4
10005f54:	4648      	mov	r0, r9
10005f56:	f000 fa5d 	bl	10006414 <uxListRemove>
10005f5a:	f895 3024 	ldrb.w	r3, [r5, #36]	@ 0x24
10005f5e:	075f      	lsls	r7, r3, #29
10005f60:	d410      	bmi.n	10005f84 <prvTimerTask+0x290>
10005f62:	f023 0301 	bic.w	r3, r3, #1
10005f66:	f885 3024 	strb.w	r3, [r5, #36]	@ 0x24
10005f6a:	4628      	mov	r0, r5
10005f6c:	6a2b      	ldr	r3, [r5, #32]
10005f6e:	4798      	blx	r3
10005f70:	e6e2      	b.n	10005d38 <prvTimerTask+0x44>
10005f72:	bf00      	nop
10005f74:	200017b0 	.word	0x200017b0
10005f78:	4293      	cmp	r3, r2
10005f7a:	d81b      	bhi.n	10005fb4 <prvTimerTask+0x2c0>
10005f7c:	4628      	mov	r0, r5
10005f7e:	6a2b      	ldr	r3, [r5, #32]
10005f80:	4798      	blx	r3
10005f82:	463c      	mov	r4, r7
10005f84:	69ab      	ldr	r3, [r5, #24]
10005f86:	eba8 0204 	sub.w	r2, r8, r4
10005f8a:	18e7      	adds	r7, r4, r3
10005f8c:	bf2c      	ite	cs
10005f8e:	2101      	movcs	r1, #1
10005f90:	2100      	movcc	r1, #0
10005f92:	45b8      	cmp	r8, r7
10005f94:	606f      	str	r7, [r5, #4]
10005f96:	612d      	str	r5, [r5, #16]
10005f98:	d2ee      	bcs.n	10005f78 <prvTimerTask+0x284>
10005f9a:	45a0      	cmp	r8, r4
10005f9c:	d201      	bcs.n	10005fa2 <prvTimerTask+0x2ae>
10005f9e:	2900      	cmp	r1, #0
10005fa0:	d0ec      	beq.n	10005f7c <prvTimerTask+0x288>
10005fa2:	4649      	mov	r1, r9
10005fa4:	6830      	ldr	r0, [r6, #0]
10005fa6:	f000 fa1d 	bl	100063e4 <vListInsert>
10005faa:	e7de      	b.n	10005f6a <prvTimerTask+0x276>
10005fac:	4640      	mov	r0, r8
10005fae:	f000 f927 	bl	10006200 <vPortFree>
10005fb2:	e6c1      	b.n	10005d38 <prvTimerTask+0x44>
10005fb4:	4649      	mov	r1, r9
10005fb6:	68b0      	ldr	r0, [r6, #8]
10005fb8:	f000 fa14 	bl	100063e4 <vListInsert>
10005fbc:	e7d5      	b.n	10005f6a <prvTimerTask+0x276>
10005fbe:	68b0      	ldr	r0, [r6, #8]
10005fc0:	f108 0104 	add.w	r1, r8, #4
10005fc4:	f000 fa0e 	bl	100063e4 <vListInsert>
10005fc8:	e745      	b.n	10005e56 <prvTimerTask+0x162>
10005fca:	bf00      	nop

10005fcc <xTimerCreateTimerTask>:
10005fcc:	b5f0      	push	{r4, r5, r6, r7, lr}
10005fce:	4c17      	ldr	r4, [pc, #92]	@ (1000602c <xTimerCreateTimerTask+0x60>)
10005fd0:	b083      	sub	sp, #12
10005fd2:	f000 f967 	bl	100062a4 <vPortEnterCritical>
10005fd6:	68e5      	ldr	r5, [r4, #12]
10005fd8:	b17d      	cbz	r5, 10005ffa <xTimerCreateTimerTask+0x2e>
10005fda:	f000 f96f 	bl	100062bc <vPortExitCritical>
10005fde:	68e0      	ldr	r0, [r4, #12]
10005fe0:	b148      	cbz	r0, 10005ff6 <xTimerCreateTimerTask+0x2a>
10005fe2:	2403      	movs	r4, #3
10005fe4:	4812      	ldr	r0, [pc, #72]	@ (10006030 <xTimerCreateTimerTask+0x64>)
10005fe6:	2300      	movs	r3, #0
10005fe8:	9001      	str	r0, [sp, #4]
10005fea:	2280      	movs	r2, #128	@ 0x80
10005fec:	4911      	ldr	r1, [pc, #68]	@ (10006034 <xTimerCreateTimerTask+0x68>)
10005fee:	4812      	ldr	r0, [pc, #72]	@ (10006038 <xTimerCreateTimerTask+0x6c>)
10005ff0:	9400      	str	r4, [sp, #0]
10005ff2:	f7fe fc1f 	bl	10004834 <xTaskCreate>
10005ff6:	b003      	add	sp, #12
10005ff8:	bdf0      	pop	{r4, r5, r6, r7, pc}
10005ffa:	f104 0710 	add.w	r7, r4, #16
10005ffe:	4638      	mov	r0, r7
10006000:	f104 0624 	add.w	r6, r4, #36	@ 0x24
10006004:	f000 f9d0 	bl	100063a8 <vListInitialise>
10006008:	4630      	mov	r0, r6
1000600a:	f000 f9cd 	bl	100063a8 <vListInitialise>
1000600e:	210c      	movs	r1, #12
10006010:	200a      	movs	r0, #10
10006012:	462a      	mov	r2, r5
10006014:	6027      	str	r7, [r4, #0]
10006016:	60a6      	str	r6, [r4, #8]
10006018:	f000 fa4c 	bl	100064b4 <xQueueGenericCreate>
1000601c:	60e0      	str	r0, [r4, #12]
1000601e:	2800      	cmp	r0, #0
10006020:	d0db      	beq.n	10005fda <xTimerCreateTimerTask+0xe>
10006022:	4906      	ldr	r1, [pc, #24]	@ (1000603c <xTimerCreateTimerTask+0x70>)
10006024:	f001 f93a 	bl	1000729c <vQueueAddToRegistry>
10006028:	e7d7      	b.n	10005fda <xTimerCreateTimerTask+0xe>
1000602a:	bf00      	nop
1000602c:	200017b0 	.word	0x200017b0
10006030:	200017e8 	.word	0x200017e8
10006034:	10008348 	.word	0x10008348
10006038:	10005cf5 	.word	0x10005cf5
1000603c:	10008340 	.word	0x10008340

10006040 <xTimerCreate>:
10006040:	e92d 4ff0 	stmdb	sp!, {r4, r5, r6, r7, r8, r9, sl, fp, lr}
10006044:	4607      	mov	r7, r0
10006046:	b083      	sub	sp, #12
10006048:	2028      	movs	r0, #40	@ 0x28
1000604a:	4688      	mov	r8, r1
1000604c:	4616      	mov	r6, r2
1000604e:	461d      	mov	r5, r3
10006050:	f000 f8ca 	bl	100061e8 <pvPortMalloc>
10006054:	4604      	mov	r4, r0
10006056:	b1d0      	cbz	r0, 1000608e <xTimerCreate+0x4e>
10006058:	2300      	movs	r3, #0
1000605a:	f8df 9078 	ldr.w	r9, [pc, #120]	@ 100060d4 <xTimerCreate+0x94>
1000605e:	f880 3024 	strb.w	r3, [r0, #36]	@ 0x24
10006062:	f000 f91f 	bl	100062a4 <vPortEnterCritical>
10006066:	f8d9 200c 	ldr.w	r2, [r9, #12]
1000606a:	b1a2      	cbz	r2, 10006096 <xTimerCreate+0x56>
1000606c:	f000 f926 	bl	100062bc <vPortExitCritical>
10006070:	9b0c      	ldr	r3, [sp, #48]	@ 0x30
10006072:	e9c4 8506 	strd	r8, r5, [r4, #24]
10006076:	6027      	str	r7, [r4, #0]
10006078:	6223      	str	r3, [r4, #32]
1000607a:	1d20      	adds	r0, r4, #4
1000607c:	f000 f9a0 	bl	100063c0 <vListInitialiseItem>
10006080:	b12e      	cbz	r6, 1000608e <xTimerCreate+0x4e>
10006082:	f894 3024 	ldrb.w	r3, [r4, #36]	@ 0x24
10006086:	f043 0304 	orr.w	r3, r3, #4
1000608a:	f884 3024 	strb.w	r3, [r4, #36]	@ 0x24
1000608e:	4620      	mov	r0, r4
10006090:	b003      	add	sp, #12
10006092:	e8bd 8ff0 	ldmia.w	sp!, {r4, r5, r6, r7, r8, r9, sl, fp, pc}
10006096:	f109 0b10 	add.w	fp, r9, #16
1000609a:	4658      	mov	r0, fp
1000609c:	f109 0a24 	add.w	sl, r9, #36	@ 0x24
100060a0:	9201      	str	r2, [sp, #4]
100060a2:	f000 f981 	bl	100063a8 <vListInitialise>
100060a6:	4650      	mov	r0, sl
100060a8:	f000 f97e 	bl	100063a8 <vListInitialise>
100060ac:	210c      	movs	r1, #12
100060ae:	200a      	movs	r0, #10
100060b0:	9a01      	ldr	r2, [sp, #4]
100060b2:	f8c9 b000 	str.w	fp, [r9]
100060b6:	f8c9 a008 	str.w	sl, [r9, #8]
100060ba:	f000 f9fb 	bl	100064b4 <xQueueGenericCreate>
100060be:	f8c9 000c 	str.w	r0, [r9, #12]
100060c2:	2800      	cmp	r0, #0
100060c4:	d0d2      	beq.n	1000606c <xTimerCreate+0x2c>
100060c6:	4902      	ldr	r1, [pc, #8]	@ (100060d0 <xTimerCreate+0x90>)
100060c8:	f001 f8e8 	bl	1000729c <vQueueAddToRegistry>
100060cc:	e7ce      	b.n	1000606c <xTimerCreate+0x2c>
100060ce:	bf00      	nop
100060d0:	10008340 	.word	0x10008340
100060d4:	200017b0 	.word	0x200017b0

100060d8 <xTimerGenericCommand>:
100060d8:	b530      	push	{r4, r5, lr}
100060da:	4d14      	ldr	r5, [pc, #80]	@ (1000612c <xTimerGenericCommand+0x54>)
100060dc:	b085      	sub	sp, #20
100060de:	68ec      	ldr	r4, [r5, #12]
100060e0:	b1d4      	cbz	r4, 10006118 <xTimerGenericCommand+0x40>
100060e2:	2905      	cmp	r1, #5
100060e4:	e9cd 1201 	strd	r1, r2, [sp, #4]
100060e8:	9003      	str	r0, [sp, #12]
100060ea:	dc0c      	bgt.n	10006106 <xTimerGenericCommand+0x2e>
100060ec:	f7ff fbae 	bl	1000584c <xTaskGetSchedulerState>
100060f0:	2802      	cmp	r0, #2
100060f2:	f04f 0300 	mov.w	r3, #0
100060f6:	d012      	beq.n	1000611e <xTimerGenericCommand+0x46>
100060f8:	461a      	mov	r2, r3
100060fa:	68e8      	ldr	r0, [r5, #12]
100060fc:	a901      	add	r1, sp, #4
100060fe:	f000 fa15 	bl	1000652c <xQueueGenericSend>
10006102:	b005      	add	sp, #20
10006104:	bd30      	pop	{r4, r5, pc}
10006106:	469c      	mov	ip, r3
10006108:	4620      	mov	r0, r4
1000610a:	2300      	movs	r3, #0
1000610c:	4662      	mov	r2, ip
1000610e:	a901      	add	r1, sp, #4
10006110:	f000 fb86 	bl	10006820 <xQueueGenericSendFromISR>
10006114:	b005      	add	sp, #20
10006116:	bd30      	pop	{r4, r5, pc}
10006118:	4620      	mov	r0, r4
1000611a:	b005      	add	sp, #20
1000611c:	bd30      	pop	{r4, r5, pc}
1000611e:	9a08      	ldr	r2, [sp, #32]
10006120:	68e8      	ldr	r0, [r5, #12]
10006122:	a901      	add	r1, sp, #4
10006124:	f000 fa02 	bl	1000652c <xQueueGenericSend>
10006128:	b005      	add	sp, #20
1000612a:	bd30      	pop	{r4, r5, pc}
1000612c:	200017b0 	.word	0x200017b0

10006130 <xTimerGetTimerDaemonTaskHandle>:
10006130:	4b01      	ldr	r3, [pc, #4]	@ (10006138 <xTimerGetTimerDaemonTaskHandle+0x8>)
10006132:	6b98      	ldr	r0, [r3, #56]	@ 0x38
10006134:	4770      	bx	lr
10006136:	bf00      	nop
10006138:	200017b0 	.word	0x200017b0

1000613c <xTimerGetPeriod>:
1000613c:	6980      	ldr	r0, [r0, #24]
1000613e:	4770      	bx	lr

10006140 <vTimerSetReloadMode>:
10006140:	b538      	push	{r3, r4, r5, lr}
10006142:	4604      	mov	r4, r0
10006144:	460d      	mov	r5, r1
10006146:	f000 f8ad 	bl	100062a4 <vPortEnterCritical>
1000614a:	f894 3024 	ldrb.w	r3, [r4, #36]	@ 0x24
1000614e:	b13d      	cbz	r5, 10006160 <vTimerSetReloadMode+0x20>
10006150:	f043 0304 	orr.w	r3, r3, #4
10006154:	f884 3024 	strb.w	r3, [r4, #36]	@ 0x24
10006158:	e8bd 4038 	ldmia.w	sp!, {r3, r4, r5, lr}
1000615c:	f000 b8ae 	b.w	100062bc <vPortExitCritical>
10006160:	f003 03fb 	and.w	r3, r3, #251	@ 0xfb
10006164:	f884 3024 	strb.w	r3, [r4, #36]	@ 0x24
10006168:	e8bd 4038 	ldmia.w	sp!, {r3, r4, r5, lr}
1000616c:	f000 b8a6 	b.w	100062bc <vPortExitCritical>

10006170 <xTimerGetReloadMode>:
10006170:	b510      	push	{r4, lr}
10006172:	4604      	mov	r4, r0
10006174:	f000 f896 	bl	100062a4 <vPortEnterCritical>
10006178:	f894 4024 	ldrb.w	r4, [r4, #36]	@ 0x24
1000617c:	f000 f89e 	bl	100062bc <vPortExitCritical>
10006180:	f3c4 0480 	ubfx	r4, r4, #2, #1
10006184:	4620      	mov	r0, r4
10006186:	bd10      	pop	{r4, pc}

10006188 <uxTimerGetReloadMode>:
10006188:	b510      	push	{r4, lr}
1000618a:	4604      	mov	r4, r0
1000618c:	f000 f88a 	bl	100062a4 <vPortEnterCritical>
10006190:	f894 4024 	ldrb.w	r4, [r4, #36]	@ 0x24
10006194:	f000 f892 	bl	100062bc <vPortExitCritical>
10006198:	f3c4 0480 	ubfx	r4, r4, #2, #1
1000619c:	4620      	mov	r0, r4
1000619e:	bd10      	pop	{r4, pc}

100061a0 <xTimerGetExpiryTime>:
100061a0:	6840      	ldr	r0, [r0, #4]
100061a2:	4770      	bx	lr

100061a4 <pcTimerGetName>:
100061a4:	6800      	ldr	r0, [r0, #0]
100061a6:	4770      	bx	lr

100061a8 <xTimerIsTimerActive>:
100061a8:	b510      	push	{r4, lr}
100061aa:	4604      	mov	r4, r0
100061ac:	f000 f87a 	bl	100062a4 <vPortEnterCritical>
100061b0:	f894 4024 	ldrb.w	r4, [r4, #36]	@ 0x24
100061b4:	f000 f882 	bl	100062bc <vPortExitCritical>
100061b8:	f004 0401 	and.w	r4, r4, #1
100061bc:	4620      	mov	r0, r4
100061be:	bd10      	pop	{r4, pc}

100061c0 <pvTimerGetTimerID>:
100061c0:	b510      	push	{r4, lr}
100061c2:	4604      	mov	r4, r0
100061c4:	f000 f86e 	bl	100062a4 <vPortEnterCritical>
100061c8:	69e4      	ldr	r4, [r4, #28]
100061ca:	f000 f877 	bl	100062bc <vPortExitCritical>
100061ce:	4620      	mov	r0, r4
100061d0:	bd10      	pop	{r4, pc}
100061d2:	bf00      	nop

100061d4 <vTimerSetTimerID>:
100061d4:	b538      	push	{r3, r4, r5, lr}
100061d6:	4604      	mov	r4, r0
100061d8:	460d      	mov	r5, r1
100061da:	f000 f863 	bl	100062a4 <vPortEnterCritical>
100061de:	61e5      	str	r5, [r4, #28]
100061e0:	e8bd 4038 	ldmia.w	sp!, {r3, r4, r5, lr}
100061e4:	f000 b86a 	b.w	100062bc <vPortExitCritical>

100061e8 <pvPortMalloc>:
100061e8:	b510      	push	{r4, lr}
100061ea:	4604      	mov	r4, r0
100061ec:	f7fe ff20 	bl	10005030 <vTaskSuspendAll>
100061f0:	4620      	mov	r0, r4
100061f2:	f7fb fba5 	bl	10001940 <__wrap_malloc>
100061f6:	4604      	mov	r4, r0
100061f8:	f7fe ff24 	bl	10005044 <xTaskResumeAll>
100061fc:	4620      	mov	r0, r4
100061fe:	bd10      	pop	{r4, pc}

10006200 <vPortFree>:
10006200:	b150      	cbz	r0, 10006218 <vPortFree+0x18>
10006202:	b510      	push	{r4, lr}
10006204:	4604      	mov	r4, r0
10006206:	f7fe ff13 	bl	10005030 <vTaskSuspendAll>
1000620a:	4620      	mov	r0, r4
1000620c:	f7fb fbaa 	bl	10001964 <__wrap_free>
10006210:	e8bd 4010 	ldmia.w	sp!, {r4, lr}
10006214:	f7fe bf16 	b.w	10005044 <xTaskResumeAll>
10006218:	4770      	bx	lr
1000621a:	bf00      	nop
1000621c:	0000      	movs	r0, r0
	...

10006220 <prvTaskExitError>:
10006220:	2300      	movs	r3, #0
10006222:	b082      	sub	sp, #8
10006224:	9301      	str	r3, [sp, #4]
10006226:	b672      	cpsid	i
10006228:	9b01      	ldr	r3, [sp, #4]
1000622a:	2b00      	cmp	r3, #0
1000622c:	d0fc      	beq.n	10006228 <prvTaskExitError+0x8>
1000622e:	b002      	add	sp, #8
10006230:	4770      	bx	lr
10006232:	bf00      	nop

10006234 <vPortStartFirstTask>:
10006234:	4a0a      	ldr	r2, [pc, #40]	@ (10006260 <pxCurrentTCBConst2>)
10006236:	6813      	ldr	r3, [r2, #0]
10006238:	6818      	ldr	r0, [r3, #0]
1000623a:	3020      	adds	r0, #32
1000623c:	f380 8809 	msr	PSP, r0
10006240:	2002      	movs	r0, #2
10006242:	f380 8814 	msr	CONTROL, r0
10006246:	f3bf 8f6f 	isb	sy
1000624a:	bc3f      	pop	{r0, r1, r2, r3, r4, r5}
1000624c:	46ae      	mov	lr, r5
1000624e:	bc08      	pop	{r3}
10006250:	bc04      	pop	{r2}
10006252:	b662      	cpsie	i
10006254:	4718      	bx	r3
10006256:	bf00      	nop
10006258:	f3af 8000 	nop.w
1000625c:	f3af 8000 	nop.w

10006260 <pxCurrentTCBConst2>:
10006260:	20001730 	.word	0x20001730

10006264 <pxPortInitialiseStack>:
10006264:	b410      	push	{r4}
10006266:	f04f 7480 	mov.w	r4, #16777216	@ 0x1000000
1000626a:	4b05      	ldr	r3, [pc, #20]	@ (10006280 <pxPortInitialiseStack+0x1c>)
1000626c:	e940 1402 	strd	r1, r4, [r0, #-8]
10006270:	f840 3c0c 	str.w	r3, [r0, #-12]
10006274:	f840 2c20 	str.w	r2, [r0, #-32]
10006278:	f85d 4b04 	ldr.w	r4, [sp], #4
1000627c:	3840      	subs	r0, #64	@ 0x40
1000627e:	4770      	bx	lr
10006280:	10006221 	.word	0x10006221

10006284 <isr_svcall>:
10006284:	4770      	bx	lr
10006286:	bf00      	nop

10006288 <vPortEndScheduler>:
10006288:	4770      	bx	lr
1000628a:	bf00      	nop

1000628c <vPortYield>:
1000628c:	f04f 23e0 	mov.w	r3, #3758153728	@ 0xe000e000
10006290:	f04f 5280 	mov.w	r2, #268435456	@ 0x10000000
10006294:	f8c3 2d04 	str.w	r2, [r3, #3332]	@ 0xd04
10006298:	f3bf 8f4f 	dsb	sy
1000629c:	f3bf 8f6f 	isb	sy
100062a0:	4770      	bx	lr
100062a2:	bf00      	nop

100062a4 <vPortEnterCritical>:
100062a4:	b672      	cpsid	i
100062a6:	4a04      	ldr	r2, [pc, #16]	@ (100062b8 <vPortEnterCritical+0x14>)
100062a8:	6813      	ldr	r3, [r2, #0]
100062aa:	3301      	adds	r3, #1
100062ac:	6013      	str	r3, [r2, #0]
100062ae:	f3bf 8f4f 	dsb	sy
100062b2:	f3bf 8f6f 	isb	sy
100062b6:	4770      	bx	lr
100062b8:	20000ea8 	.word	0x20000ea8

100062bc <vPortExitCritical>:
100062bc:	4a03      	ldr	r2, [pc, #12]	@ (100062cc <vPortExitCritical+0x10>)
100062be:	6813      	ldr	r3, [r2, #0]
100062c0:	3b01      	subs	r3, #1
100062c2:	6013      	str	r3, [r2, #0]
100062c4:	b903      	cbnz	r3, 100062c8 <vPortExitCritical+0xc>
100062c6:	b662      	cpsie	i
100062c8:	4770      	bx	lr
100062ca:	bf00      	nop
100062cc:	20000ea8 	.word	0x20000ea8

100062d0 <ulSetInterruptMaskFromISR>:
100062d0:	f3ef 8010 	mrs	r0, PRIMASK
100062d4:	b672      	cpsid	i
100062d6:	4770      	bx	lr

100062d8 <vClearInterruptMaskFromISR>:
100062d8:	f380 8810 	msr	PRIMASK, r0
100062dc:	4770      	bx	lr
100062de:	bf00      	nop

100062e0 <isr_pendsv>:
100062e0:	f3ef 8009 	mrs	r0, PSP
100062e4:	4b0e      	ldr	r3, [pc, #56]	@ (10006320 <pxCurrentTCBConst>)
100062e6:	681a      	ldr	r2, [r3, #0]
100062e8:	3820      	subs	r0, #32
100062ea:	6010      	str	r0, [r2, #0]
100062ec:	c0f0      	stmia	r0!, {r4, r5, r6, r7}
100062ee:	4644      	mov	r4, r8
100062f0:	464d      	mov	r5, r9
100062f2:	4656      	mov	r6, sl
100062f4:	465f      	mov	r7, fp
100062f6:	c0f0      	stmia	r0!, {r4, r5, r6, r7}
100062f8:	b508      	push	{r3, lr}
100062fa:	b672      	cpsid	i
100062fc:	f7ff f808 	bl	10005310 <vTaskSwitchContext>
10006300:	b662      	cpsie	i
10006302:	bc0c      	pop	{r2, r3}
10006304:	6811      	ldr	r1, [r2, #0]
10006306:	6808      	ldr	r0, [r1, #0]
10006308:	3010      	adds	r0, #16
1000630a:	c8f0      	ldmia	r0!, {r4, r5, r6, r7}
1000630c:	46a0      	mov	r8, r4
1000630e:	46a9      	mov	r9, r5
10006310:	46b2      	mov	sl, r6
10006312:	46bb      	mov	fp, r7
10006314:	f380 8809 	msr	PSP, r0
10006318:	3820      	subs	r0, #32
1000631a:	c8f0      	ldmia	r0!, {r4, r5, r6, r7}
1000631c:	4718      	bx	r3
1000631e:	bf00      	nop

10006320 <pxCurrentTCBConst>:
10006320:	20001730 	.word	0x20001730

10006324 <isr_systick>:
10006324:	b510      	push	{r4, lr}
10006326:	f7ff ffd3 	bl	100062d0 <ulSetInterruptMaskFromISR>
1000632a:	4604      	mov	r4, r0
1000632c:	f7fe ffe0 	bl	100052f0 <xTaskIncrementTick>
10006330:	b128      	cbz	r0, 1000633e <isr_systick+0x1a>
10006332:	f04f 23e0 	mov.w	r3, #3758153728	@ 0xe000e000
10006336:	f04f 5280 	mov.w	r2, #268435456	@ 0x10000000
1000633a:	f8c3 2d04 	str.w	r2, [r3, #3332]	@ 0xd04
1000633e:	4620      	mov	r0, r4
10006340:	e8bd 4010 	ldmia.w	sp!, {r4, lr}
10006344:	f7ff bfc8 	b.w	100062d8 <vClearInterruptMaskFromISR>

10006348 <vPortSetupTimerInterrupt>:
10006348:	f04f 23e0 	mov.w	r3, #3758153728	@ 0xe000e000
1000634c:	2200      	movs	r2, #0
1000634e:	2107      	movs	r1, #7
10006350:	4802      	ldr	r0, [pc, #8]	@ (1000635c <vPortSetupTimerInterrupt+0x14>)
10006352:	611a      	str	r2, [r3, #16]
10006354:	619a      	str	r2, [r3, #24]
10006356:	6158      	str	r0, [r3, #20]
10006358:	6119      	str	r1, [r3, #16]
1000635a:	4770      	bx	lr
1000635c:	00144b4f 	.word	0x00144b4f

10006360 <xPortStartScheduler>:
10006360:	f04f 23e0 	mov.w	r3, #3758153728	@ 0xe000e000
10006364:	b510      	push	{r4, lr}
10006366:	2400      	movs	r4, #0
10006368:	f8d3 2d20 	ldr.w	r2, [r3, #3360]	@ 0xd20
1000636c:	b082      	sub	sp, #8
1000636e:	f442 027f 	orr.w	r2, r2, #16711680	@ 0xff0000
10006372:	f8c3 2d20 	str.w	r2, [r3, #3360]	@ 0xd20
10006376:	f8d3 2d20 	ldr.w	r2, [r3, #3360]	@ 0xd20
1000637a:	f042 427f 	orr.w	r2, r2, #4278190080	@ 0xff000000
1000637e:	f8c3 2d20 	str.w	r2, [r3, #3360]	@ 0xd20
10006382:	f7ff ffe1 	bl	10006348 <vPortSetupTimerInterrupt>
10006386:	4b07      	ldr	r3, [pc, #28]	@ (100063a4 <xPortStartScheduler+0x44>)
10006388:	601c      	str	r4, [r3, #0]
1000638a:	f7ff ff53 	bl	10006234 <vPortStartFirstTask>
1000638e:	f7fe ffbf 	bl	10005310 <vTaskSwitchContext>
10006392:	9401      	str	r4, [sp, #4]
10006394:	b672      	cpsid	i
10006396:	9b01      	ldr	r3, [sp, #4]
10006398:	2b00      	cmp	r3, #0
1000639a:	d0fc      	beq.n	10006396 <xPortStartScheduler+0x36>
1000639c:	2000      	movs	r0, #0
1000639e:	b002      	add	sp, #8
100063a0:	bd10      	pop	{r4, pc}
100063a2:	bf00      	nop
100063a4:	20000ea8 	.word	0x20000ea8

100063a8 <vListInitialise>:
100063a8:	f04f 31ff 	mov.w	r1, #4294967295	@ 0xffffffff
100063ac:	2200      	movs	r2, #0
100063ae:	f100 0308 	add.w	r3, r0, #8
100063b2:	e9c0 3101 	strd	r3, r1, [r0, #4]
100063b6:	e9c0 3303 	strd	r3, r3, [r0, #12]
100063ba:	6002      	str	r2, [r0, #0]
100063bc:	4770      	bx	lr
100063be:	bf00      	nop

100063c0 <vListInitialiseItem>:
100063c0:	2300      	movs	r3, #0
100063c2:	6103      	str	r3, [r0, #16]
100063c4:	4770      	bx	lr
100063c6:	bf00      	nop

100063c8 <vListInsertEnd>:
100063c8:	6842      	ldr	r2, [r0, #4]
100063ca:	6803      	ldr	r3, [r0, #0]
100063cc:	b410      	push	{r4}
100063ce:	6894      	ldr	r4, [r2, #8]
100063d0:	3301      	adds	r3, #1
100063d2:	e9c1 2401 	strd	r2, r4, [r1, #4]
100063d6:	6061      	str	r1, [r4, #4]
100063d8:	6091      	str	r1, [r2, #8]
100063da:	f85d 4b04 	ldr.w	r4, [sp], #4
100063de:	6108      	str	r0, [r1, #16]
100063e0:	6003      	str	r3, [r0, #0]
100063e2:	4770      	bx	lr

100063e4 <vListInsert>:
100063e4:	b430      	push	{r4, r5}
100063e6:	680d      	ldr	r5, [r1, #0]
100063e8:	1c6b      	adds	r3, r5, #1
100063ea:	d010      	beq.n	1000640e <vListInsert+0x2a>
100063ec:	f100 0308 	add.w	r3, r0, #8
100063f0:	461c      	mov	r4, r3
100063f2:	685b      	ldr	r3, [r3, #4]
100063f4:	681a      	ldr	r2, [r3, #0]
100063f6:	42aa      	cmp	r2, r5
100063f8:	d9fa      	bls.n	100063f0 <vListInsert+0xc>
100063fa:	6802      	ldr	r2, [r0, #0]
100063fc:	604b      	str	r3, [r1, #4]
100063fe:	3201      	adds	r2, #1
10006400:	6099      	str	r1, [r3, #8]
10006402:	608c      	str	r4, [r1, #8]
10006404:	6061      	str	r1, [r4, #4]
10006406:	6108      	str	r0, [r1, #16]
10006408:	bc30      	pop	{r4, r5}
1000640a:	6002      	str	r2, [r0, #0]
1000640c:	4770      	bx	lr
1000640e:	6904      	ldr	r4, [r0, #16]
10006410:	6863      	ldr	r3, [r4, #4]
10006412:	e7f2      	b.n	100063fa <vListInsert+0x16>

10006414 <uxListRemove>:
10006414:	6903      	ldr	r3, [r0, #16]
10006416:	b410      	push	{r4}
10006418:	e9d0 1201 	ldrd	r1, r2, [r0, #4]
1000641c:	685c      	ldr	r4, [r3, #4]
1000641e:	608a      	str	r2, [r1, #8]
10006420:	6051      	str	r1, [r2, #4]
10006422:	2100      	movs	r1, #0
10006424:	4284      	cmp	r4, r0
10006426:	bf08      	it	eq
10006428:	605a      	streq	r2, [r3, #4]
1000642a:	681a      	ldr	r2, [r3, #0]
1000642c:	6101      	str	r1, [r0, #16]
1000642e:	3a01      	subs	r2, #1
10006430:	601a      	str	r2, [r3, #0]
10006432:	6818      	ldr	r0, [r3, #0]
10006434:	f85d 4b04 	ldr.w	r4, [sp], #4
10006438:	4770      	bx	lr
1000643a:	bf00      	nop
1000643c:	0000      	movs	r0, r0
	...

10006440 <xQueueGenericReset>:
10006440:	b570      	push	{r4, r5, r6, lr}
10006442:	4604      	mov	r4, r0
10006444:	b300      	cbz	r0, 10006488 <xQueueGenericReset+0x48>
10006446:	6bc0      	ldr	r0, [r0, #60]	@ 0x3c
10006448:	b1f0      	cbz	r0, 10006488 <xQueueGenericReset+0x48>
1000644a:	6c23      	ldr	r3, [r4, #64]	@ 0x40
1000644c:	2200      	movs	r2, #0
1000644e:	fba3 3500 	umull	r3, r5, r3, r0
10006452:	bb65      	cbnz	r5, 100064ae <xQueueGenericReset+0x6e>
10006454:	460e      	mov	r6, r1
10006456:	f7ff ff25 	bl	100062a4 <vPortEnterCritical>
1000645a:	e9d4 310f 	ldrd	r3, r1, [r4, #60]	@ 0x3c
1000645e:	20ff      	movs	r0, #255	@ 0xff
10006460:	fb01 f303 	mul.w	r3, r1, r3
10006464:	6822      	ldr	r2, [r4, #0]
10006466:	1a59      	subs	r1, r3, r1
10006468:	6062      	str	r2, [r4, #4]
1000646a:	4413      	add	r3, r2
1000646c:	440a      	add	r2, r1
1000646e:	63a5      	str	r5, [r4, #56]	@ 0x38
10006470:	e9c4 3202 	strd	r3, r2, [r4, #8]
10006474:	f884 0044 	strb.w	r0, [r4, #68]	@ 0x44
10006478:	f884 0045 	strb.w	r0, [r4, #69]	@ 0x45
1000647c:	b976      	cbnz	r6, 1000649c <xQueueGenericReset+0x5c>
1000647e:	6923      	ldr	r3, [r4, #16]
10006480:	b91b      	cbnz	r3, 1000648a <xQueueGenericReset+0x4a>
10006482:	f7ff ff1b 	bl	100062bc <vPortExitCritical>
10006486:	2001      	movs	r0, #1
10006488:	bd70      	pop	{r4, r5, r6, pc}
1000648a:	f104 0010 	add.w	r0, r4, #16
1000648e:	f7ff f8b7 	bl	10005600 <xTaskRemoveFromEventList>
10006492:	2800      	cmp	r0, #0
10006494:	d0f5      	beq.n	10006482 <xQueueGenericReset+0x42>
10006496:	f7ff fef9 	bl	1000628c <vPortYield>
1000649a:	e7f2      	b.n	10006482 <xQueueGenericReset+0x42>
1000649c:	f104 0010 	add.w	r0, r4, #16
100064a0:	f7ff ff82 	bl	100063a8 <vListInitialise>
100064a4:	f104 0024 	add.w	r0, r4, #36	@ 0x24
100064a8:	f7ff ff7e 	bl	100063a8 <vListInitialise>
100064ac:	e7e9      	b.n	10006482 <xQueueGenericReset+0x42>
100064ae:	4610      	mov	r0, r2
100064b0:	bd70      	pop	{r4, r5, r6, pc}
100064b2:	bf00      	nop

100064b4 <xQueueGenericCreate>:
100064b4:	b570      	push	{r4, r5, r6, lr}
100064b6:	b3a0      	cbz	r0, 10006522 <xQueueGenericCreate+0x6e>
100064b8:	fba1 2300 	umull	r2, r3, r1, r0
100064bc:	4605      	mov	r5, r0
100064be:	460e      	mov	r6, r1
100064c0:	bb7b      	cbnz	r3, 10006522 <xQueueGenericCreate+0x6e>
100064c2:	fb01 f000 	mul.w	r0, r1, r0
100064c6:	f110 0f49 	cmn.w	r0, #73	@ 0x49
100064ca:	d82a      	bhi.n	10006522 <xQueueGenericCreate+0x6e>
100064cc:	3048      	adds	r0, #72	@ 0x48
100064ce:	f7ff fe8b 	bl	100061e8 <pvPortMalloc>
100064d2:	4604      	mov	r4, r0
100064d4:	b328      	cbz	r0, 10006522 <xQueueGenericCreate+0x6e>
100064d6:	b33e      	cbz	r6, 10006528 <xQueueGenericCreate+0x74>
100064d8:	f100 0348 	add.w	r3, r0, #72	@ 0x48
100064dc:	6023      	str	r3, [r4, #0]
100064de:	e9c4 560f 	strd	r5, r6, [r4, #60]	@ 0x3c
100064e2:	f7ff fedf 	bl	100062a4 <vPortEnterCritical>
100064e6:	2300      	movs	r3, #0
100064e8:	20ff      	movs	r0, #255	@ 0xff
100064ea:	63a3      	str	r3, [r4, #56]	@ 0x38
100064ec:	6c21      	ldr	r1, [r4, #64]	@ 0x40
100064ee:	6be3      	ldr	r3, [r4, #60]	@ 0x3c
100064f0:	6822      	ldr	r2, [r4, #0]
100064f2:	fb01 f303 	mul.w	r3, r1, r3
100064f6:	1a59      	subs	r1, r3, r1
100064f8:	6062      	str	r2, [r4, #4]
100064fa:	4413      	add	r3, r2
100064fc:	440a      	add	r2, r1
100064fe:	e9c4 3202 	strd	r3, r2, [r4, #8]
10006502:	f884 0044 	strb.w	r0, [r4, #68]	@ 0x44
10006506:	f884 0045 	strb.w	r0, [r4, #69]	@ 0x45
1000650a:	f104 0010 	add.w	r0, r4, #16
1000650e:	f7ff ff4b 	bl	100063a8 <vListInitialise>
10006512:	f104 0024 	add.w	r0, r4, #36	@ 0x24
10006516:	f7ff ff47 	bl	100063a8 <vListInitialise>
1000651a:	f7ff fecf 	bl	100062bc <vPortExitCritical>
1000651e:	4620      	mov	r0, r4
10006520:	bd70      	pop	{r4, r5, r6, pc}
10006522:	2400      	movs	r4, #0
10006524:	4620      	mov	r0, r4
10006526:	bd70      	pop	{r4, r5, r6, pc}
10006528:	4603      	mov	r3, r0
1000652a:	e7d7      	b.n	100064dc <xQueueGenericCreate+0x28>

1000652c <xQueueGenericSend>:
1000652c:	e92d 43f0 	stmdb	sp!, {r4, r5, r6, r7, r8, r9, lr}
10006530:	4604      	mov	r4, r0
10006532:	b085      	sub	sp, #20
10006534:	461f      	mov	r7, r3
10006536:	9201      	str	r2, [sp, #4]
10006538:	4688      	mov	r8, r1
1000653a:	f7ff feb3 	bl	100062a4 <vPortEnterCritical>
1000653e:	6ba2      	ldr	r2, [r4, #56]	@ 0x38
10006540:	6be3      	ldr	r3, [r4, #60]	@ 0x3c
10006542:	429a      	cmp	r2, r3
10006544:	d37a      	bcc.n	1000663c <xQueueGenericSend+0x110>
10006546:	2f02      	cmp	r7, #2
10006548:	f000 80da 	beq.w	10006700 <xQueueGenericSend+0x1d4>
1000654c:	2300      	movs	r3, #0
1000654e:	f104 0624 	add.w	r6, r4, #36	@ 0x24
10006552:	9a01      	ldr	r2, [sp, #4]
10006554:	2a00      	cmp	r2, #0
10006556:	f000 80eb 	beq.w	10006730 <xQueueGenericSend+0x204>
1000655a:	2b00      	cmp	r3, #0
1000655c:	f000 80cc 	beq.w	100066f8 <xQueueGenericSend+0x1cc>
10006560:	f7ff feac 	bl	100062bc <vPortExitCritical>
10006564:	f7fe fd64 	bl	10005030 <vTaskSuspendAll>
10006568:	f7ff fe9c 	bl	100062a4 <vPortEnterCritical>
1000656c:	f894 3044 	ldrb.w	r3, [r4, #68]	@ 0x44
10006570:	2bff      	cmp	r3, #255	@ 0xff
10006572:	bf04      	itt	eq
10006574:	2300      	moveq	r3, #0
10006576:	f884 3044 	strbeq.w	r3, [r4, #68]	@ 0x44
1000657a:	f894 3045 	ldrb.w	r3, [r4, #69]	@ 0x45
1000657e:	2bff      	cmp	r3, #255	@ 0xff
10006580:	bf04      	itt	eq
10006582:	2300      	moveq	r3, #0
10006584:	f884 3045 	strbeq.w	r3, [r4, #69]	@ 0x45
10006588:	f7ff fe98 	bl	100062bc <vPortExitCritical>
1000658c:	a802      	add	r0, sp, #8
1000658e:	a901      	add	r1, sp, #4
10006590:	f7ff f900 	bl	10005794 <xTaskCheckForTimeOut>
10006594:	2800      	cmp	r0, #0
10006596:	f040 80d1 	bne.w	1000673c <xQueueGenericSend+0x210>
1000659a:	f7ff fe83 	bl	100062a4 <vPortEnterCritical>
1000659e:	6ba2      	ldr	r2, [r4, #56]	@ 0x38
100065a0:	6be3      	ldr	r3, [r4, #60]	@ 0x3c
100065a2:	429a      	cmp	r2, r3
100065a4:	d05b      	beq.n	1000665e <xQueueGenericSend+0x132>
100065a6:	f7ff fe89 	bl	100062bc <vPortExitCritical>
100065aa:	f7ff fe7b 	bl	100062a4 <vPortEnterCritical>
100065ae:	f894 2045 	ldrb.w	r2, [r4, #69]	@ 0x45
100065b2:	b255      	sxtb	r5, r2
100065b4:	2d00      	cmp	r5, #0
100065b6:	dc04      	bgt.n	100065c2 <xQueueGenericSend+0x96>
100065b8:	e011      	b.n	100065de <xQueueGenericSend+0xb2>
100065ba:	1e6a      	subs	r2, r5, #1
100065bc:	b2d3      	uxtb	r3, r2
100065be:	b255      	sxtb	r5, r2
100065c0:	b16b      	cbz	r3, 100065de <xQueueGenericSend+0xb2>
100065c2:	6a63      	ldr	r3, [r4, #36]	@ 0x24
100065c4:	b15b      	cbz	r3, 100065de <xQueueGenericSend+0xb2>
100065c6:	4630      	mov	r0, r6
100065c8:	f7ff f81a 	bl	10005600 <xTaskRemoveFromEventList>
100065cc:	2800      	cmp	r0, #0
100065ce:	d0f4      	beq.n	100065ba <xQueueGenericSend+0x8e>
100065d0:	f7ff f90e 	bl	100057f0 <vTaskMissedYield>
100065d4:	1e6a      	subs	r2, r5, #1
100065d6:	b2d3      	uxtb	r3, r2
100065d8:	b255      	sxtb	r5, r2
100065da:	2b00      	cmp	r3, #0
100065dc:	d1f1      	bne.n	100065c2 <xQueueGenericSend+0x96>
100065de:	23ff      	movs	r3, #255	@ 0xff
100065e0:	f884 3045 	strb.w	r3, [r4, #69]	@ 0x45
100065e4:	f7ff fe6a 	bl	100062bc <vPortExitCritical>
100065e8:	f7ff fe5c 	bl	100062a4 <vPortEnterCritical>
100065ec:	f894 2044 	ldrb.w	r2, [r4, #68]	@ 0x44
100065f0:	b255      	sxtb	r5, r2
100065f2:	2d00      	cmp	r5, #0
100065f4:	dd14      	ble.n	10006620 <xQueueGenericSend+0xf4>
100065f6:	f104 0910 	add.w	r9, r4, #16
100065fa:	e003      	b.n	10006604 <xQueueGenericSend+0xd8>
100065fc:	1e6a      	subs	r2, r5, #1
100065fe:	b2d3      	uxtb	r3, r2
10006600:	b255      	sxtb	r5, r2
10006602:	b16b      	cbz	r3, 10006620 <xQueueGenericSend+0xf4>
10006604:	6923      	ldr	r3, [r4, #16]
10006606:	b15b      	cbz	r3, 10006620 <xQueueGenericSend+0xf4>
10006608:	4648      	mov	r0, r9
1000660a:	f7fe fff9 	bl	10005600 <xTaskRemoveFromEventList>
1000660e:	2800      	cmp	r0, #0
10006610:	d0f4      	beq.n	100065fc <xQueueGenericSend+0xd0>
10006612:	f7ff f8ed 	bl	100057f0 <vTaskMissedYield>
10006616:	1e6a      	subs	r2, r5, #1
10006618:	b2d3      	uxtb	r3, r2
1000661a:	b255      	sxtb	r5, r2
1000661c:	2b00      	cmp	r3, #0
1000661e:	d1f1      	bne.n	10006604 <xQueueGenericSend+0xd8>
10006620:	23ff      	movs	r3, #255	@ 0xff
10006622:	f884 3044 	strb.w	r3, [r4, #68]	@ 0x44
10006626:	f7ff fe49 	bl	100062bc <vPortExitCritical>
1000662a:	f7fe fd0b 	bl	10005044 <xTaskResumeAll>
1000662e:	f7ff fe39 	bl	100062a4 <vPortEnterCritical>
10006632:	6ba2      	ldr	r2, [r4, #56]	@ 0x38
10006634:	6be1      	ldr	r1, [r4, #60]	@ 0x3c
10006636:	2301      	movs	r3, #1
10006638:	4291      	cmp	r1, r2
1000663a:	d98a      	bls.n	10006552 <xQueueGenericSend+0x26>
1000663c:	6c22      	ldr	r2, [r4, #64]	@ 0x40
1000663e:	6ba5      	ldr	r5, [r4, #56]	@ 0x38
10006640:	2a00      	cmp	r2, #0
10006642:	f040 80c0 	bne.w	100067c6 <xQueueGenericSend+0x29a>
10006646:	3501      	adds	r5, #1
10006648:	63a5      	str	r5, [r4, #56]	@ 0x38
1000664a:	6a63      	ldr	r3, [r4, #36]	@ 0x24
1000664c:	2b00      	cmp	r3, #0
1000664e:	f040 80c9 	bne.w	100067e4 <xQueueGenericSend+0x2b8>
10006652:	f7ff fe33 	bl	100062bc <vPortExitCritical>
10006656:	2001      	movs	r0, #1
10006658:	b005      	add	sp, #20
1000665a:	e8bd 83f0 	ldmia.w	sp!, {r4, r5, r6, r7, r8, r9, pc}
1000665e:	f104 0910 	add.w	r9, r4, #16
10006662:	f7ff fe2b 	bl	100062bc <vPortExitCritical>
10006666:	4648      	mov	r0, r9
10006668:	9901      	ldr	r1, [sp, #4]
1000666a:	f7fe feaf 	bl	100053cc <vTaskPlaceOnEventList>
1000666e:	f7ff fe19 	bl	100062a4 <vPortEnterCritical>
10006672:	f894 3045 	ldrb.w	r3, [r4, #69]	@ 0x45
10006676:	b25d      	sxtb	r5, r3
10006678:	2d00      	cmp	r5, #0
1000667a:	dc04      	bgt.n	10006686 <xQueueGenericSend+0x15a>
1000667c:	e011      	b.n	100066a2 <xQueueGenericSend+0x176>
1000667e:	1e6b      	subs	r3, r5, #1
10006680:	b2da      	uxtb	r2, r3
10006682:	b25d      	sxtb	r5, r3
10006684:	b16a      	cbz	r2, 100066a2 <xQueueGenericSend+0x176>
10006686:	6a63      	ldr	r3, [r4, #36]	@ 0x24
10006688:	b15b      	cbz	r3, 100066a2 <xQueueGenericSend+0x176>
1000668a:	4630      	mov	r0, r6
1000668c:	f7fe ffb8 	bl	10005600 <xTaskRemoveFromEventList>
10006690:	2800      	cmp	r0, #0
10006692:	d0f4      	beq.n	1000667e <xQueueGenericSend+0x152>
10006694:	f7ff f8ac 	bl	100057f0 <vTaskMissedYield>
10006698:	1e6b      	subs	r3, r5, #1
1000669a:	b2da      	uxtb	r2, r3
1000669c:	b25d      	sxtb	r5, r3
1000669e:	2a00      	cmp	r2, #0
100066a0:	d1f1      	bne.n	10006686 <xQueueGenericSend+0x15a>
100066a2:	23ff      	movs	r3, #255	@ 0xff
100066a4:	f884 3045 	strb.w	r3, [r4, #69]	@ 0x45
100066a8:	f7ff fe08 	bl	100062bc <vPortExitCritical>
100066ac:	f7ff fdfa 	bl	100062a4 <vPortEnterCritical>
100066b0:	f894 3044 	ldrb.w	r3, [r4, #68]	@ 0x44
100066b4:	b25d      	sxtb	r5, r3
100066b6:	2d00      	cmp	r5, #0
100066b8:	dc04      	bgt.n	100066c4 <xQueueGenericSend+0x198>
100066ba:	e011      	b.n	100066e0 <xQueueGenericSend+0x1b4>
100066bc:	1e6b      	subs	r3, r5, #1
100066be:	b2da      	uxtb	r2, r3
100066c0:	b25d      	sxtb	r5, r3
100066c2:	b16a      	cbz	r2, 100066e0 <xQueueGenericSend+0x1b4>
100066c4:	6923      	ldr	r3, [r4, #16]
100066c6:	b15b      	cbz	r3, 100066e0 <xQueueGenericSend+0x1b4>
100066c8:	4648      	mov	r0, r9
100066ca:	f7fe ff99 	bl	10005600 <xTaskRemoveFromEventList>
100066ce:	2800      	cmp	r0, #0
100066d0:	d0f4      	beq.n	100066bc <xQueueGenericSend+0x190>
100066d2:	f7ff f88d 	bl	100057f0 <vTaskMissedYield>
100066d6:	1e6b      	subs	r3, r5, #1
100066d8:	b2da      	uxtb	r2, r3
100066da:	b25d      	sxtb	r5, r3
100066dc:	2a00      	cmp	r2, #0
100066de:	d1f1      	bne.n	100066c4 <xQueueGenericSend+0x198>
100066e0:	23ff      	movs	r3, #255	@ 0xff
100066e2:	f884 3044 	strb.w	r3, [r4, #68]	@ 0x44
100066e6:	f7ff fde9 	bl	100062bc <vPortExitCritical>
100066ea:	f7fe fcab 	bl	10005044 <xTaskResumeAll>
100066ee:	2800      	cmp	r0, #0
100066f0:	d19d      	bne.n	1000662e <xQueueGenericSend+0x102>
100066f2:	f7ff fdcb 	bl	1000628c <vPortYield>
100066f6:	e79a      	b.n	1000662e <xQueueGenericSend+0x102>
100066f8:	a802      	add	r0, sp, #8
100066fa:	f7ff f841 	bl	10005780 <vTaskInternalSetTimeOutState>
100066fe:	e72f      	b.n	10006560 <xQueueGenericSend+0x34>
10006700:	6c22      	ldr	r2, [r4, #64]	@ 0x40
10006702:	6ba5      	ldr	r5, [r4, #56]	@ 0x38
10006704:	2a00      	cmp	r2, #0
10006706:	d09e      	beq.n	10006646 <xQueueGenericSend+0x11a>
10006708:	4641      	mov	r1, r8
1000670a:	68e0      	ldr	r0, [r4, #12]
1000670c:	f001 fbc4 	bl	10007e98 <memcpy>
10006710:	6c22      	ldr	r2, [r4, #64]	@ 0x40
10006712:	68e3      	ldr	r3, [r4, #12]
10006714:	6821      	ldr	r1, [r4, #0]
10006716:	1a9b      	subs	r3, r3, r2
10006718:	428b      	cmp	r3, r1
1000671a:	60e3      	str	r3, [r4, #12]
1000671c:	f1c2 0200 	rsb	r2, r2, #0
10006720:	d202      	bcs.n	10006728 <xQueueGenericSend+0x1fc>
10006722:	68a3      	ldr	r3, [r4, #8]
10006724:	4413      	add	r3, r2
10006726:	60e3      	str	r3, [r4, #12]
10006728:	2d01      	cmp	r5, #1
1000672a:	bf38      	it	cc
1000672c:	2501      	movcc	r5, #1
1000672e:	e78b      	b.n	10006648 <xQueueGenericSend+0x11c>
10006730:	f7ff fdc4 	bl	100062bc <vPortExitCritical>
10006734:	2000      	movs	r0, #0
10006736:	b005      	add	sp, #20
10006738:	e8bd 83f0 	ldmia.w	sp!, {r4, r5, r6, r7, r8, r9, pc}
1000673c:	f7ff fdb2 	bl	100062a4 <vPortEnterCritical>
10006740:	f894 3045 	ldrb.w	r3, [r4, #69]	@ 0x45
10006744:	b25d      	sxtb	r5, r3
10006746:	2d00      	cmp	r5, #0
10006748:	dd14      	ble.n	10006774 <xQueueGenericSend+0x248>
1000674a:	f104 0624 	add.w	r6, r4, #36	@ 0x24
1000674e:	e003      	b.n	10006758 <xQueueGenericSend+0x22c>
10006750:	1e6b      	subs	r3, r5, #1
10006752:	b2da      	uxtb	r2, r3
10006754:	b25d      	sxtb	r5, r3
10006756:	b16a      	cbz	r2, 10006774 <xQueueGenericSend+0x248>
10006758:	6a63      	ldr	r3, [r4, #36]	@ 0x24
1000675a:	b15b      	cbz	r3, 10006774 <xQueueGenericSend+0x248>
1000675c:	4630      	mov	r0, r6
1000675e:	f7fe ff4f 	bl	10005600 <xTaskRemoveFromEventList>
10006762:	2800      	cmp	r0, #0
10006764:	d0f4      	beq.n	10006750 <xQueueGenericSend+0x224>
10006766:	f7ff f843 	bl	100057f0 <vTaskMissedYield>
1000676a:	1e6b      	subs	r3, r5, #1
1000676c:	b2da      	uxtb	r2, r3
1000676e:	b25d      	sxtb	r5, r3
10006770:	2a00      	cmp	r2, #0
10006772:	d1f1      	bne.n	10006758 <xQueueGenericSend+0x22c>
10006774:	23ff      	movs	r3, #255	@ 0xff
10006776:	f884 3045 	strb.w	r3, [r4, #69]	@ 0x45
1000677a:	f7ff fd9f 	bl	100062bc <vPortExitCritical>
1000677e:	f7ff fd91 	bl	100062a4 <vPortEnterCritical>
10006782:	f894 3044 	ldrb.w	r3, [r4, #68]	@ 0x44
10006786:	b25d      	sxtb	r5, r3
10006788:	2d00      	cmp	r5, #0
1000678a:	dd14      	ble.n	100067b6 <xQueueGenericSend+0x28a>
1000678c:	f104 0610 	add.w	r6, r4, #16
10006790:	e003      	b.n	1000679a <xQueueGenericSend+0x26e>
10006792:	1e6b      	subs	r3, r5, #1
10006794:	b2da      	uxtb	r2, r3
10006796:	b25d      	sxtb	r5, r3
10006798:	b16a      	cbz	r2, 100067b6 <xQueueGenericSend+0x28a>
1000679a:	6923      	ldr	r3, [r4, #16]
1000679c:	b15b      	cbz	r3, 100067b6 <xQueueGenericSend+0x28a>
1000679e:	4630      	mov	r0, r6
100067a0:	f7fe ff2e 	bl	10005600 <xTaskRemoveFromEventList>
100067a4:	2800      	cmp	r0, #0
100067a6:	d0f4      	beq.n	10006792 <xQueueGenericSend+0x266>
100067a8:	f7ff f822 	bl	100057f0 <vTaskMissedYield>
100067ac:	1e6b      	subs	r3, r5, #1
100067ae:	b2da      	uxtb	r2, r3
100067b0:	b25d      	sxtb	r5, r3
100067b2:	2a00      	cmp	r2, #0
100067b4:	d1f1      	bne.n	1000679a <xQueueGenericSend+0x26e>
100067b6:	23ff      	movs	r3, #255	@ 0xff
100067b8:	f884 3044 	strb.w	r3, [r4, #68]	@ 0x44
100067bc:	f7ff fd7e 	bl	100062bc <vPortExitCritical>
100067c0:	f7fe fc40 	bl	10005044 <xTaskResumeAll>
100067c4:	e7b6      	b.n	10006734 <xQueueGenericSend+0x208>
100067c6:	4641      	mov	r1, r8
100067c8:	b9b7      	cbnz	r7, 100067f8 <xQueueGenericSend+0x2cc>
100067ca:	6860      	ldr	r0, [r4, #4]
100067cc:	f001 fb64 	bl	10007e98 <memcpy>
100067d0:	6863      	ldr	r3, [r4, #4]
100067d2:	6c21      	ldr	r1, [r4, #64]	@ 0x40
100067d4:	68a2      	ldr	r2, [r4, #8]
100067d6:	440b      	add	r3, r1
100067d8:	4293      	cmp	r3, r2
100067da:	6063      	str	r3, [r4, #4]
100067dc:	bf24      	itt	cs
100067de:	6823      	ldrcs	r3, [r4, #0]
100067e0:	6063      	strcs	r3, [r4, #4]
100067e2:	e730      	b.n	10006646 <xQueueGenericSend+0x11a>
100067e4:	f104 0024 	add.w	r0, r4, #36	@ 0x24
100067e8:	f7fe ff0a 	bl	10005600 <xTaskRemoveFromEventList>
100067ec:	2800      	cmp	r0, #0
100067ee:	f43f af30 	beq.w	10006652 <xQueueGenericSend+0x126>
100067f2:	f7ff fd4b 	bl	1000628c <vPortYield>
100067f6:	e72c      	b.n	10006652 <xQueueGenericSend+0x126>
100067f8:	68e0      	ldr	r0, [r4, #12]
100067fa:	f001 fb4d 	bl	10007e98 <memcpy>
100067fe:	6c22      	ldr	r2, [r4, #64]	@ 0x40
10006800:	68e3      	ldr	r3, [r4, #12]
10006802:	4251      	negs	r1, r2
10006804:	1a9b      	subs	r3, r3, r2
10006806:	6822      	ldr	r2, [r4, #0]
10006808:	60e3      	str	r3, [r4, #12]
1000680a:	4293      	cmp	r3, r2
1000680c:	d303      	bcc.n	10006816 <xQueueGenericSend+0x2ea>
1000680e:	2f02      	cmp	r7, #2
10006810:	f47f af19 	bne.w	10006646 <xQueueGenericSend+0x11a>
10006814:	e788      	b.n	10006728 <xQueueGenericSend+0x1fc>
10006816:	68a3      	ldr	r3, [r4, #8]
10006818:	440b      	add	r3, r1
1000681a:	60e3      	str	r3, [r4, #12]
1000681c:	e7f7      	b.n	1000680e <xQueueGenericSend+0x2e2>
1000681e:	bf00      	nop

10006820 <xQueueGenericSendFromISR>:
10006820:	e92d 47f0 	stmdb	sp!, {r4, r5, r6, r7, r8, r9, sl, lr}
10006824:	4604      	mov	r4, r0
10006826:	4691      	mov	r9, r2
10006828:	461e      	mov	r6, r3
1000682a:	460f      	mov	r7, r1
1000682c:	f7ff fd50 	bl	100062d0 <ulSetInterruptMaskFromISR>
10006830:	6ba2      	ldr	r2, [r4, #56]	@ 0x38
10006832:	6be3      	ldr	r3, [r4, #60]	@ 0x3c
10006834:	4605      	mov	r5, r0
10006836:	429a      	cmp	r2, r3
10006838:	d326      	bcc.n	10006888 <xQueueGenericSendFromISR+0x68>
1000683a:	2e02      	cmp	r6, #2
1000683c:	d006      	beq.n	1000684c <xQueueGenericSendFromISR+0x2c>
1000683e:	2400      	movs	r4, #0
10006840:	4628      	mov	r0, r5
10006842:	f7ff fd49 	bl	100062d8 <vClearInterruptMaskFromISR>
10006846:	4620      	mov	r0, r4
10006848:	e8bd 87f0 	ldmia.w	sp!, {r4, r5, r6, r7, r8, r9, sl, pc}
1000684c:	f894 8045 	ldrb.w	r8, [r4, #69]	@ 0x45
10006850:	6c22      	ldr	r2, [r4, #64]	@ 0x40
10006852:	6ba3      	ldr	r3, [r4, #56]	@ 0x38
10006854:	fa4f f888 	sxtb.w	r8, r8
10006858:	f8d4 a038 	ldr.w	sl, [r4, #56]	@ 0x38
1000685c:	2a00      	cmp	r2, #0
1000685e:	d13a      	bne.n	100068d6 <xQueueGenericSendFromISR+0xb6>
10006860:	f10a 0301 	add.w	r3, sl, #1
10006864:	f1b8 3fff 	cmp.w	r8, #4294967295	@ 0xffffffff
10006868:	63a3      	str	r3, [r4, #56]	@ 0x38
1000686a:	d128      	bne.n	100068be <xQueueGenericSendFromISR+0x9e>
1000686c:	6a63      	ldr	r3, [r4, #36]	@ 0x24
1000686e:	b383      	cbz	r3, 100068d2 <xQueueGenericSendFromISR+0xb2>
10006870:	f104 0024 	add.w	r0, r4, #36	@ 0x24
10006874:	f7fe fec4 	bl	10005600 <xTaskRemoveFromEventList>
10006878:	b358      	cbz	r0, 100068d2 <xQueueGenericSendFromISR+0xb2>
1000687a:	f1b9 0f00 	cmp.w	r9, #0
1000687e:	d028      	beq.n	100068d2 <xQueueGenericSendFromISR+0xb2>
10006880:	2301      	movs	r3, #1
10006882:	f8c9 3000 	str.w	r3, [r9]
10006886:	e024      	b.n	100068d2 <xQueueGenericSendFromISR+0xb2>
10006888:	f894 8045 	ldrb.w	r8, [r4, #69]	@ 0x45
1000688c:	6c22      	ldr	r2, [r4, #64]	@ 0x40
1000688e:	6ba3      	ldr	r3, [r4, #56]	@ 0x38
10006890:	fa4f f888 	sxtb.w	r8, r8
10006894:	f8d4 a038 	ldr.w	sl, [r4, #56]	@ 0x38
10006898:	2a00      	cmp	r2, #0
1000689a:	d0e1      	beq.n	10006860 <xQueueGenericSendFromISR+0x40>
1000689c:	4639      	mov	r1, r7
1000689e:	bb7e      	cbnz	r6, 10006900 <xQueueGenericSendFromISR+0xe0>
100068a0:	6860      	ldr	r0, [r4, #4]
100068a2:	f001 faf9 	bl	10007e98 <memcpy>
100068a6:	6862      	ldr	r2, [r4, #4]
100068a8:	6c21      	ldr	r1, [r4, #64]	@ 0x40
100068aa:	f10a 0301 	add.w	r3, sl, #1
100068ae:	440a      	add	r2, r1
100068b0:	68a1      	ldr	r1, [r4, #8]
100068b2:	6062      	str	r2, [r4, #4]
100068b4:	428a      	cmp	r2, r1
100068b6:	d3d5      	bcc.n	10006864 <xQueueGenericSendFromISR+0x44>
100068b8:	6822      	ldr	r2, [r4, #0]
100068ba:	6062      	str	r2, [r4, #4]
100068bc:	e7d2      	b.n	10006864 <xQueueGenericSendFromISR+0x44>
100068be:	f7fe fcef 	bl	100052a0 <uxTaskGetNumberOfTasks>
100068c2:	4580      	cmp	r8, r0
100068c4:	d205      	bcs.n	100068d2 <xQueueGenericSendFromISR+0xb2>
100068c6:	f108 0801 	add.w	r8, r8, #1
100068ca:	fa4f f888 	sxtb.w	r8, r8
100068ce:	f884 8045 	strb.w	r8, [r4, #69]	@ 0x45
100068d2:	2401      	movs	r4, #1
100068d4:	e7b4      	b.n	10006840 <xQueueGenericSendFromISR+0x20>
100068d6:	4639      	mov	r1, r7
100068d8:	68e0      	ldr	r0, [r4, #12]
100068da:	f001 fadd 	bl	10007e98 <memcpy>
100068de:	6c22      	ldr	r2, [r4, #64]	@ 0x40
100068e0:	68e3      	ldr	r3, [r4, #12]
100068e2:	6821      	ldr	r1, [r4, #0]
100068e4:	1a9b      	subs	r3, r3, r2
100068e6:	428b      	cmp	r3, r1
100068e8:	60e3      	str	r3, [r4, #12]
100068ea:	f1c2 0200 	rsb	r2, r2, #0
100068ee:	d202      	bcs.n	100068f6 <xQueueGenericSendFromISR+0xd6>
100068f0:	68a3      	ldr	r3, [r4, #8]
100068f2:	4413      	add	r3, r2
100068f4:	60e3      	str	r3, [r4, #12]
100068f6:	4653      	mov	r3, sl
100068f8:	2b01      	cmp	r3, #1
100068fa:	bf38      	it	cc
100068fc:	2301      	movcc	r3, #1
100068fe:	e7b1      	b.n	10006864 <xQueueGenericSendFromISR+0x44>
10006900:	68e0      	ldr	r0, [r4, #12]
10006902:	f001 fac9 	bl	10007e98 <memcpy>
10006906:	6c22      	ldr	r2, [r4, #64]	@ 0x40
10006908:	68e3      	ldr	r3, [r4, #12]
1000690a:	6821      	ldr	r1, [r4, #0]
1000690c:	1a9b      	subs	r3, r3, r2
1000690e:	428b      	cmp	r3, r1
10006910:	60e3      	str	r3, [r4, #12]
10006912:	f1c2 0200 	rsb	r2, r2, #0
10006916:	d302      	bcc.n	1000691e <xQueueGenericSendFromISR+0xfe>
10006918:	2e02      	cmp	r6, #2
1000691a:	d1a1      	bne.n	10006860 <xQueueGenericSendFromISR+0x40>
1000691c:	e7eb      	b.n	100068f6 <xQueueGenericSendFromISR+0xd6>
1000691e:	68a3      	ldr	r3, [r4, #8]
10006920:	4413      	add	r3, r2
10006922:	60e3      	str	r3, [r4, #12]
10006924:	e7f8      	b.n	10006918 <xQueueGenericSendFromISR+0xf8>
10006926:	bf00      	nop

10006928 <xQueueGiveFromISR>:
10006928:	b5f8      	push	{r3, r4, r5, r6, r7, lr}
1000692a:	4604      	mov	r4, r0
1000692c:	460e      	mov	r6, r1
1000692e:	f7ff fccf 	bl	100062d0 <ulSetInterruptMaskFromISR>
10006932:	6ba3      	ldr	r3, [r4, #56]	@ 0x38
10006934:	6be2      	ldr	r2, [r4, #60]	@ 0x3c
10006936:	4605      	mov	r5, r0
10006938:	429a      	cmp	r2, r3
1000693a:	d911      	bls.n	10006960 <xQueueGiveFromISR+0x38>
1000693c:	f894 2045 	ldrb.w	r2, [r4, #69]	@ 0x45
10006940:	3301      	adds	r3, #1
10006942:	2aff      	cmp	r2, #255	@ 0xff
10006944:	63a3      	str	r3, [r4, #56]	@ 0x38
10006946:	b257      	sxtb	r7, r2
10006948:	d110      	bne.n	1000696c <xQueueGiveFromISR+0x44>
1000694a:	6a63      	ldr	r3, [r4, #36]	@ 0x24
1000694c:	b1b3      	cbz	r3, 1000697c <xQueueGiveFromISR+0x54>
1000694e:	f104 0024 	add.w	r0, r4, #36	@ 0x24
10006952:	f7fe fe55 	bl	10005600 <xTaskRemoveFromEventList>
10006956:	b188      	cbz	r0, 1000697c <xQueueGiveFromISR+0x54>
10006958:	b186      	cbz	r6, 1000697c <xQueueGiveFromISR+0x54>
1000695a:	2301      	movs	r3, #1
1000695c:	6033      	str	r3, [r6, #0]
1000695e:	e00d      	b.n	1000697c <xQueueGiveFromISR+0x54>
10006960:	2400      	movs	r4, #0
10006962:	4628      	mov	r0, r5
10006964:	f7ff fcb8 	bl	100062d8 <vClearInterruptMaskFromISR>
10006968:	4620      	mov	r0, r4
1000696a:	bdf8      	pop	{r3, r4, r5, r6, r7, pc}
1000696c:	f7fe fc98 	bl	100052a0 <uxTaskGetNumberOfTasks>
10006970:	4287      	cmp	r7, r0
10006972:	d203      	bcs.n	1000697c <xQueueGiveFromISR+0x54>
10006974:	3701      	adds	r7, #1
10006976:	b27f      	sxtb	r7, r7
10006978:	f884 7045 	strb.w	r7, [r4, #69]	@ 0x45
1000697c:	2401      	movs	r4, #1
1000697e:	e7f0      	b.n	10006962 <xQueueGiveFromISR+0x3a>

10006980 <xQueueReceive>:
10006980:	e92d 43f0 	stmdb	sp!, {r4, r5, r6, r7, r8, r9, lr}
10006984:	4604      	mov	r4, r0
10006986:	b085      	sub	sp, #20
10006988:	4688      	mov	r8, r1
1000698a:	9201      	str	r2, [sp, #4]
1000698c:	f7ff fc8a 	bl	100062a4 <vPortEnterCritical>
10006990:	6ba5      	ldr	r5, [r4, #56]	@ 0x38
10006992:	2d00      	cmp	r5, #0
10006994:	f040 8117 	bne.w	10006bc6 <xQueueReceive+0x246>
10006998:	9b01      	ldr	r3, [sp, #4]
1000699a:	2b00      	cmp	r3, #0
1000699c:	f000 80c6 	beq.w	10006b2c <xQueueReceive+0x1ac>
100069a0:	a802      	add	r0, sp, #8
100069a2:	f7fe feed 	bl	10005780 <vTaskInternalSetTimeOutState>
100069a6:	462f      	mov	r7, r5
100069a8:	f104 0624 	add.w	r6, r4, #36	@ 0x24
100069ac:	f7ff fc86 	bl	100062bc <vPortExitCritical>
100069b0:	f7fe fb3e 	bl	10005030 <vTaskSuspendAll>
100069b4:	f7ff fc76 	bl	100062a4 <vPortEnterCritical>
100069b8:	f894 3044 	ldrb.w	r3, [r4, #68]	@ 0x44
100069bc:	2bff      	cmp	r3, #255	@ 0xff
100069be:	bf08      	it	eq
100069c0:	f884 7044 	strbeq.w	r7, [r4, #68]	@ 0x44
100069c4:	f894 3045 	ldrb.w	r3, [r4, #69]	@ 0x45
100069c8:	2bff      	cmp	r3, #255	@ 0xff
100069ca:	bf08      	it	eq
100069cc:	f884 7045 	strbeq.w	r7, [r4, #69]	@ 0x45
100069d0:	f7ff fc74 	bl	100062bc <vPortExitCritical>
100069d4:	a901      	add	r1, sp, #4
100069d6:	a802      	add	r0, sp, #8
100069d8:	f7fe fedc 	bl	10005794 <xTaskCheckForTimeOut>
100069dc:	2800      	cmp	r0, #0
100069de:	d154      	bne.n	10006a8a <xQueueReceive+0x10a>
100069e0:	f7ff fc60 	bl	100062a4 <vPortEnterCritical>
100069e4:	6ba3      	ldr	r3, [r4, #56]	@ 0x38
100069e6:	2b00      	cmp	r3, #0
100069e8:	f040 80a6 	bne.w	10006b38 <xQueueReceive+0x1b8>
100069ec:	f104 0924 	add.w	r9, r4, #36	@ 0x24
100069f0:	f7ff fc64 	bl	100062bc <vPortExitCritical>
100069f4:	4648      	mov	r0, r9
100069f6:	9901      	ldr	r1, [sp, #4]
100069f8:	f7fe fce8 	bl	100053cc <vTaskPlaceOnEventList>
100069fc:	f7ff fc52 	bl	100062a4 <vPortEnterCritical>
10006a00:	f894 3045 	ldrb.w	r3, [r4, #69]	@ 0x45
10006a04:	b25d      	sxtb	r5, r3
10006a06:	2d00      	cmp	r5, #0
10006a08:	dc04      	bgt.n	10006a14 <xQueueReceive+0x94>
10006a0a:	e011      	b.n	10006a30 <xQueueReceive+0xb0>
10006a0c:	1e6b      	subs	r3, r5, #1
10006a0e:	b2da      	uxtb	r2, r3
10006a10:	b25d      	sxtb	r5, r3
10006a12:	b16a      	cbz	r2, 10006a30 <xQueueReceive+0xb0>
10006a14:	6a63      	ldr	r3, [r4, #36]	@ 0x24
10006a16:	b15b      	cbz	r3, 10006a30 <xQueueReceive+0xb0>
10006a18:	4648      	mov	r0, r9
10006a1a:	f7fe fdf1 	bl	10005600 <xTaskRemoveFromEventList>
10006a1e:	2800      	cmp	r0, #0
10006a20:	d0f4      	beq.n	10006a0c <xQueueReceive+0x8c>
10006a22:	f7fe fee5 	bl	100057f0 <vTaskMissedYield>
10006a26:	1e6b      	subs	r3, r5, #1
10006a28:	b2da      	uxtb	r2, r3
10006a2a:	b25d      	sxtb	r5, r3
10006a2c:	2a00      	cmp	r2, #0
10006a2e:	d1f1      	bne.n	10006a14 <xQueueReceive+0x94>
10006a30:	23ff      	movs	r3, #255	@ 0xff
10006a32:	f884 3045 	strb.w	r3, [r4, #69]	@ 0x45
10006a36:	f7ff fc41 	bl	100062bc <vPortExitCritical>
10006a3a:	f7ff fc33 	bl	100062a4 <vPortEnterCritical>
10006a3e:	f894 3044 	ldrb.w	r3, [r4, #68]	@ 0x44
10006a42:	b25d      	sxtb	r5, r3
10006a44:	2d00      	cmp	r5, #0
10006a46:	dd14      	ble.n	10006a72 <xQueueReceive+0xf2>
10006a48:	f104 0910 	add.w	r9, r4, #16
10006a4c:	e003      	b.n	10006a56 <xQueueReceive+0xd6>
10006a4e:	1e6b      	subs	r3, r5, #1
10006a50:	b2da      	uxtb	r2, r3
10006a52:	b25d      	sxtb	r5, r3
10006a54:	b16a      	cbz	r2, 10006a72 <xQueueReceive+0xf2>
10006a56:	6923      	ldr	r3, [r4, #16]
10006a58:	b15b      	cbz	r3, 10006a72 <xQueueReceive+0xf2>
10006a5a:	4648      	mov	r0, r9
10006a5c:	f7fe fdd0 	bl	10005600 <xTaskRemoveFromEventList>
10006a60:	2800      	cmp	r0, #0
10006a62:	d0f4      	beq.n	10006a4e <xQueueReceive+0xce>
10006a64:	f7fe fec4 	bl	100057f0 <vTaskMissedYield>
10006a68:	1e6b      	subs	r3, r5, #1
10006a6a:	b2da      	uxtb	r2, r3
10006a6c:	b25d      	sxtb	r5, r3
10006a6e:	2a00      	cmp	r2, #0
10006a70:	d1f1      	bne.n	10006a56 <xQueueReceive+0xd6>
10006a72:	23ff      	movs	r3, #255	@ 0xff
10006a74:	f884 3044 	strb.w	r3, [r4, #68]	@ 0x44
10006a78:	f7ff fc20 	bl	100062bc <vPortExitCritical>
10006a7c:	f7fe fae2 	bl	10005044 <xTaskResumeAll>
10006a80:	2800      	cmp	r0, #0
10006a82:	d14a      	bne.n	10006b1a <xQueueReceive+0x19a>
10006a84:	f7ff fc02 	bl	1000628c <vPortYield>
10006a88:	e047      	b.n	10006b1a <xQueueReceive+0x19a>
10006a8a:	f7ff fc0b 	bl	100062a4 <vPortEnterCritical>
10006a8e:	f894 3045 	ldrb.w	r3, [r4, #69]	@ 0x45
10006a92:	b25d      	sxtb	r5, r3
10006a94:	2d00      	cmp	r5, #0
10006a96:	dc04      	bgt.n	10006aa2 <xQueueReceive+0x122>
10006a98:	e011      	b.n	10006abe <xQueueReceive+0x13e>
10006a9a:	1e6b      	subs	r3, r5, #1
10006a9c:	b2da      	uxtb	r2, r3
10006a9e:	b25d      	sxtb	r5, r3
10006aa0:	b16a      	cbz	r2, 10006abe <xQueueReceive+0x13e>
10006aa2:	6a63      	ldr	r3, [r4, #36]	@ 0x24
10006aa4:	b15b      	cbz	r3, 10006abe <xQueueReceive+0x13e>
10006aa6:	4630      	mov	r0, r6
10006aa8:	f7fe fdaa 	bl	10005600 <xTaskRemoveFromEventList>
10006aac:	2800      	cmp	r0, #0
10006aae:	d0f4      	beq.n	10006a9a <xQueueReceive+0x11a>
10006ab0:	f7fe fe9e 	bl	100057f0 <vTaskMissedYield>
10006ab4:	1e6b      	subs	r3, r5, #1
10006ab6:	b2da      	uxtb	r2, r3
10006ab8:	b25d      	sxtb	r5, r3
10006aba:	2a00      	cmp	r2, #0
10006abc:	d1f1      	bne.n	10006aa2 <xQueueReceive+0x122>
10006abe:	23ff      	movs	r3, #255	@ 0xff
10006ac0:	f884 3045 	strb.w	r3, [r4, #69]	@ 0x45
10006ac4:	f7ff fbfa 	bl	100062bc <vPortExitCritical>
10006ac8:	f7ff fbec 	bl	100062a4 <vPortEnterCritical>
10006acc:	f894 3044 	ldrb.w	r3, [r4, #68]	@ 0x44
10006ad0:	b25d      	sxtb	r5, r3
10006ad2:	2d00      	cmp	r5, #0
10006ad4:	dd14      	ble.n	10006b00 <xQueueReceive+0x180>
10006ad6:	f104 0910 	add.w	r9, r4, #16
10006ada:	e003      	b.n	10006ae4 <xQueueReceive+0x164>
10006adc:	1e6b      	subs	r3, r5, #1
10006ade:	b2da      	uxtb	r2, r3
10006ae0:	b25d      	sxtb	r5, r3
10006ae2:	b16a      	cbz	r2, 10006b00 <xQueueReceive+0x180>
10006ae4:	6923      	ldr	r3, [r4, #16]
10006ae6:	b15b      	cbz	r3, 10006b00 <xQueueReceive+0x180>
10006ae8:	4648      	mov	r0, r9
10006aea:	f7fe fd89 	bl	10005600 <xTaskRemoveFromEventList>
10006aee:	2800      	cmp	r0, #0
10006af0:	d0f4      	beq.n	10006adc <xQueueReceive+0x15c>
10006af2:	f7fe fe7d 	bl	100057f0 <vTaskMissedYield>
10006af6:	1e6b      	subs	r3, r5, #1
10006af8:	b2da      	uxtb	r2, r3
10006afa:	b25d      	sxtb	r5, r3
10006afc:	2a00      	cmp	r2, #0
10006afe:	d1f1      	bne.n	10006ae4 <xQueueReceive+0x164>
10006b00:	23ff      	movs	r3, #255	@ 0xff
10006b02:	f884 3044 	strb.w	r3, [r4, #68]	@ 0x44
10006b06:	f7ff fbd9 	bl	100062bc <vPortExitCritical>
10006b0a:	f7fe fa9b 	bl	10005044 <xTaskResumeAll>
10006b0e:	f7ff fbc9 	bl	100062a4 <vPortEnterCritical>
10006b12:	6ba3      	ldr	r3, [r4, #56]	@ 0x38
10006b14:	b153      	cbz	r3, 10006b2c <xQueueReceive+0x1ac>
10006b16:	f7ff fbd1 	bl	100062bc <vPortExitCritical>
10006b1a:	f7ff fbc3 	bl	100062a4 <vPortEnterCritical>
10006b1e:	6ba5      	ldr	r5, [r4, #56]	@ 0x38
10006b20:	2d00      	cmp	r5, #0
10006b22:	d150      	bne.n	10006bc6 <xQueueReceive+0x246>
10006b24:	9b01      	ldr	r3, [sp, #4]
10006b26:	2b00      	cmp	r3, #0
10006b28:	f47f af40 	bne.w	100069ac <xQueueReceive+0x2c>
10006b2c:	f7ff fbc6 	bl	100062bc <vPortExitCritical>
10006b30:	2000      	movs	r0, #0
10006b32:	b005      	add	sp, #20
10006b34:	e8bd 83f0 	ldmia.w	sp!, {r4, r5, r6, r7, r8, r9, pc}
10006b38:	f7ff fbc0 	bl	100062bc <vPortExitCritical>
10006b3c:	f7ff fbb2 	bl	100062a4 <vPortEnterCritical>
10006b40:	f894 3045 	ldrb.w	r3, [r4, #69]	@ 0x45
10006b44:	b25d      	sxtb	r5, r3
10006b46:	2d00      	cmp	r5, #0
10006b48:	dd14      	ble.n	10006b74 <xQueueReceive+0x1f4>
10006b4a:	f104 0924 	add.w	r9, r4, #36	@ 0x24
10006b4e:	e003      	b.n	10006b58 <xQueueReceive+0x1d8>
10006b50:	1e6b      	subs	r3, r5, #1
10006b52:	b2da      	uxtb	r2, r3
10006b54:	b25d      	sxtb	r5, r3
10006b56:	b16a      	cbz	r2, 10006b74 <xQueueReceive+0x1f4>
10006b58:	6a63      	ldr	r3, [r4, #36]	@ 0x24
10006b5a:	b15b      	cbz	r3, 10006b74 <xQueueReceive+0x1f4>
10006b5c:	4648      	mov	r0, r9
10006b5e:	f7fe fd4f 	bl	10005600 <xTaskRemoveFromEventList>
10006b62:	2800      	cmp	r0, #0
10006b64:	d0f4      	beq.n	10006b50 <xQueueReceive+0x1d0>
10006b66:	f7fe fe43 	bl	100057f0 <vTaskMissedYield>
10006b6a:	1e6b      	subs	r3, r5, #1
10006b6c:	b2da      	uxtb	r2, r3
10006b6e:	b25d      	sxtb	r5, r3
10006b70:	2a00      	cmp	r2, #0
10006b72:	d1f1      	bne.n	10006b58 <xQueueReceive+0x1d8>
10006b74:	23ff      	movs	r3, #255	@ 0xff
10006b76:	f884 3045 	strb.w	r3, [r4, #69]	@ 0x45
10006b7a:	f7ff fb9f 	bl	100062bc <vPortExitCritical>
10006b7e:	f7ff fb91 	bl	100062a4 <vPortEnterCritical>
10006b82:	f894 3044 	ldrb.w	r3, [r4, #68]	@ 0x44
10006b86:	b25d      	sxtb	r5, r3
10006b88:	2d00      	cmp	r5, #0
10006b8a:	dd14      	ble.n	10006bb6 <xQueueReceive+0x236>
10006b8c:	f104 0910 	add.w	r9, r4, #16
10006b90:	e003      	b.n	10006b9a <xQueueReceive+0x21a>
10006b92:	1e6b      	subs	r3, r5, #1
10006b94:	b2da      	uxtb	r2, r3
10006b96:	b25d      	sxtb	r5, r3
10006b98:	b16a      	cbz	r2, 10006bb6 <xQueueReceive+0x236>
10006b9a:	6923      	ldr	r3, [r4, #16]
10006b9c:	b15b      	cbz	r3, 10006bb6 <xQueueReceive+0x236>
10006b9e:	4648      	mov	r0, r9
10006ba0:	f7fe fd2e 	bl	10005600 <xTaskRemoveFromEventList>
10006ba4:	2800      	cmp	r0, #0
10006ba6:	d0f4      	beq.n	10006b92 <xQueueReceive+0x212>
10006ba8:	f7fe fe22 	bl	100057f0 <vTaskMissedYield>
10006bac:	1e6b      	subs	r3, r5, #1
10006bae:	b2da      	uxtb	r2, r3
10006bb0:	b25d      	sxtb	r5, r3
10006bb2:	2a00      	cmp	r2, #0
10006bb4:	d1f1      	bne.n	10006b9a <xQueueReceive+0x21a>
10006bb6:	23ff      	movs	r3, #255	@ 0xff
10006bb8:	f884 3044 	strb.w	r3, [r4, #68]	@ 0x44
10006bbc:	f7ff fb7e 	bl	100062bc <vPortExitCritical>
10006bc0:	f7fe fa40 	bl	10005044 <xTaskResumeAll>
10006bc4:	e7a9      	b.n	10006b1a <xQueueReceive+0x19a>
10006bc6:	6c22      	ldr	r2, [r4, #64]	@ 0x40
10006bc8:	b15a      	cbz	r2, 10006be2 <xQueueReceive+0x262>
10006bca:	68e1      	ldr	r1, [r4, #12]
10006bcc:	68a3      	ldr	r3, [r4, #8]
10006bce:	4411      	add	r1, r2
10006bd0:	4299      	cmp	r1, r3
10006bd2:	60e1      	str	r1, [r4, #12]
10006bd4:	bf28      	it	cs
10006bd6:	6821      	ldrcs	r1, [r4, #0]
10006bd8:	4640      	mov	r0, r8
10006bda:	bf28      	it	cs
10006bdc:	60e1      	strcs	r1, [r4, #12]
10006bde:	f001 f95b 	bl	10007e98 <memcpy>
10006be2:	3d01      	subs	r5, #1
10006be4:	63a5      	str	r5, [r4, #56]	@ 0x38
10006be6:	6923      	ldr	r3, [r4, #16]
10006be8:	b92b      	cbnz	r3, 10006bf6 <xQueueReceive+0x276>
10006bea:	f7ff fb67 	bl	100062bc <vPortExitCritical>
10006bee:	2001      	movs	r0, #1
10006bf0:	b005      	add	sp, #20
10006bf2:	e8bd 83f0 	ldmia.w	sp!, {r4, r5, r6, r7, r8, r9, pc}
10006bf6:	f104 0010 	add.w	r0, r4, #16
10006bfa:	f7fe fd01 	bl	10005600 <xTaskRemoveFromEventList>
10006bfe:	2800      	cmp	r0, #0
10006c00:	d0f3      	beq.n	10006bea <xQueueReceive+0x26a>
10006c02:	f7ff fb43 	bl	1000628c <vPortYield>
10006c06:	e7f0      	b.n	10006bea <xQueueReceive+0x26a>

10006c08 <xQueueSemaphoreTake>:
10006c08:	e92d 41f0 	stmdb	sp!, {r4, r5, r6, r7, r8, lr}
10006c0c:	4604      	mov	r4, r0
10006c0e:	b084      	sub	sp, #16
10006c10:	9101      	str	r1, [sp, #4]
10006c12:	f7ff fb47 	bl	100062a4 <vPortEnterCritical>
10006c16:	6ba5      	ldr	r5, [r4, #56]	@ 0x38
10006c18:	2d00      	cmp	r5, #0
10006c1a:	f040 8117 	bne.w	10006e4c <xQueueSemaphoreTake+0x244>
10006c1e:	9b01      	ldr	r3, [sp, #4]
10006c20:	2b00      	cmp	r3, #0
10006c22:	f000 80c6 	beq.w	10006db2 <xQueueSemaphoreTake+0x1aa>
10006c26:	a802      	add	r0, sp, #8
10006c28:	f7fe fdaa 	bl	10005780 <vTaskInternalSetTimeOutState>
10006c2c:	462f      	mov	r7, r5
10006c2e:	f104 0624 	add.w	r6, r4, #36	@ 0x24
10006c32:	f7ff fb43 	bl	100062bc <vPortExitCritical>
10006c36:	f7fe f9fb 	bl	10005030 <vTaskSuspendAll>
10006c3a:	f7ff fb33 	bl	100062a4 <vPortEnterCritical>
10006c3e:	f894 3044 	ldrb.w	r3, [r4, #68]	@ 0x44
10006c42:	2bff      	cmp	r3, #255	@ 0xff
10006c44:	bf08      	it	eq
10006c46:	f884 7044 	strbeq.w	r7, [r4, #68]	@ 0x44
10006c4a:	f894 3045 	ldrb.w	r3, [r4, #69]	@ 0x45
10006c4e:	2bff      	cmp	r3, #255	@ 0xff
10006c50:	bf08      	it	eq
10006c52:	f884 7045 	strbeq.w	r7, [r4, #69]	@ 0x45
10006c56:	f7ff fb31 	bl	100062bc <vPortExitCritical>
10006c5a:	a901      	add	r1, sp, #4
10006c5c:	a802      	add	r0, sp, #8
10006c5e:	f7fe fd99 	bl	10005794 <xTaskCheckForTimeOut>
10006c62:	2800      	cmp	r0, #0
10006c64:	d154      	bne.n	10006d10 <xQueueSemaphoreTake+0x108>
10006c66:	f7ff fb1d 	bl	100062a4 <vPortEnterCritical>
10006c6a:	6ba3      	ldr	r3, [r4, #56]	@ 0x38
10006c6c:	2b00      	cmp	r3, #0
10006c6e:	f040 80a6 	bne.w	10006dbe <xQueueSemaphoreTake+0x1b6>
10006c72:	f104 0824 	add.w	r8, r4, #36	@ 0x24
10006c76:	f7ff fb21 	bl	100062bc <vPortExitCritical>
10006c7a:	4640      	mov	r0, r8
10006c7c:	9901      	ldr	r1, [sp, #4]
10006c7e:	f7fe fba5 	bl	100053cc <vTaskPlaceOnEventList>
10006c82:	f7ff fb0f 	bl	100062a4 <vPortEnterCritical>
10006c86:	f894 3045 	ldrb.w	r3, [r4, #69]	@ 0x45
10006c8a:	b25d      	sxtb	r5, r3
10006c8c:	2d00      	cmp	r5, #0
10006c8e:	dc04      	bgt.n	10006c9a <xQueueSemaphoreTake+0x92>
10006c90:	e011      	b.n	10006cb6 <xQueueSemaphoreTake+0xae>
10006c92:	1e6b      	subs	r3, r5, #1
10006c94:	b2da      	uxtb	r2, r3
10006c96:	b25d      	sxtb	r5, r3
10006c98:	b16a      	cbz	r2, 10006cb6 <xQueueSemaphoreTake+0xae>
10006c9a:	6a63      	ldr	r3, [r4, #36]	@ 0x24
10006c9c:	b15b      	cbz	r3, 10006cb6 <xQueueSemaphoreTake+0xae>
10006c9e:	4640      	mov	r0, r8
10006ca0:	f7fe fcae 	bl	10005600 <xTaskRemoveFromEventList>
10006ca4:	2800      	cmp	r0, #0
10006ca6:	d0f4      	beq.n	10006c92 <xQueueSemaphoreTake+0x8a>
10006ca8:	f7fe fda2 	bl	100057f0 <vTaskMissedYield>
10006cac:	1e6b      	subs	r3, r5, #1
10006cae:	b2da      	uxtb	r2, r3
10006cb0:	b25d      	sxtb	r5, r3
10006cb2:	2a00      	cmp	r2, #0
10006cb4:	d1f1      	bne.n	10006c9a <xQueueSemaphoreTake+0x92>
10006cb6:	23ff      	movs	r3, #255	@ 0xff
10006cb8:	f884 3045 	strb.w	r3, [r4, #69]	@ 0x45
10006cbc:	f7ff fafe 	bl	100062bc <vPortExitCritical>
10006cc0:	f7ff faf0 	bl	100062a4 <vPortEnterCritical>
10006cc4:	f894 3044 	ldrb.w	r3, [r4, #68]	@ 0x44
10006cc8:	b25d      	sxtb	r5, r3
10006cca:	2d00      	cmp	r5, #0
10006ccc:	dd14      	ble.n	10006cf8 <xQueueSemaphoreTake+0xf0>
10006cce:	f104 0810 	add.w	r8, r4, #16
10006cd2:	e003      	b.n	10006cdc <xQueueSemaphoreTake+0xd4>
10006cd4:	1e6b      	subs	r3, r5, #1
10006cd6:	b2da      	uxtb	r2, r3
10006cd8:	b25d      	sxtb	r5, r3
10006cda:	b16a      	cbz	r2, 10006cf8 <xQueueSemaphoreTake+0xf0>
10006cdc:	6923      	ldr	r3, [r4, #16]
10006cde:	b15b      	cbz	r3, 10006cf8 <xQueueSemaphoreTake+0xf0>
10006ce0:	4640      	mov	r0, r8
10006ce2:	f7fe fc8d 	bl	10005600 <xTaskRemoveFromEventList>
10006ce6:	2800      	cmp	r0, #0
10006ce8:	d0f4      	beq.n	10006cd4 <xQueueSemaphoreTake+0xcc>
10006cea:	f7fe fd81 	bl	100057f0 <vTaskMissedYield>
10006cee:	1e6b      	subs	r3, r5, #1
10006cf0:	b2da      	uxtb	r2, r3
10006cf2:	b25d      	sxtb	r5, r3
10006cf4:	2a00      	cmp	r2, #0
10006cf6:	d1f1      	bne.n	10006cdc <xQueueSemaphoreTake+0xd4>
10006cf8:	23ff      	movs	r3, #255	@ 0xff
10006cfa:	f884 3044 	strb.w	r3, [r4, #68]	@ 0x44
10006cfe:	f7ff fadd 	bl	100062bc <vPortExitCritical>
10006d02:	f7fe f99f 	bl	10005044 <xTaskResumeAll>
10006d06:	2800      	cmp	r0, #0
10006d08:	d14a      	bne.n	10006da0 <xQueueSemaphoreTake+0x198>
10006d0a:	f7ff fabf 	bl	1000628c <vPortYield>
10006d0e:	e047      	b.n	10006da0 <xQueueSemaphoreTake+0x198>
10006d10:	f7ff fac8 	bl	100062a4 <vPortEnterCritical>
10006d14:	f894 3045 	ldrb.w	r3, [r4, #69]	@ 0x45
10006d18:	b25d      	sxtb	r5, r3
10006d1a:	2d00      	cmp	r5, #0
10006d1c:	dc04      	bgt.n	10006d28 <xQueueSemaphoreTake+0x120>
10006d1e:	e011      	b.n	10006d44 <xQueueSemaphoreTake+0x13c>
10006d20:	1e6b      	subs	r3, r5, #1
10006d22:	b2da      	uxtb	r2, r3
10006d24:	b25d      	sxtb	r5, r3
10006d26:	b16a      	cbz	r2, 10006d44 <xQueueSemaphoreTake+0x13c>
10006d28:	6a63      	ldr	r3, [r4, #36]	@ 0x24
10006d2a:	b15b      	cbz	r3, 10006d44 <xQueueSemaphoreTake+0x13c>
10006d2c:	4630      	mov	r0, r6
10006d2e:	f7fe fc67 	bl	10005600 <xTaskRemoveFromEventList>
10006d32:	2800      	cmp	r0, #0
10006d34:	d0f4      	beq.n	10006d20 <xQueueSemaphoreTake+0x118>
10006d36:	f7fe fd5b 	bl	100057f0 <vTaskMissedYield>
10006d3a:	1e6b      	subs	r3, r5, #1
10006d3c:	b2da      	uxtb	r2, r3
10006d3e:	b25d      	sxtb	r5, r3
10006d40:	2a00      	cmp	r2, #0
10006d42:	d1f1      	bne.n	10006d28 <xQueueSemaphoreTake+0x120>
10006d44:	23ff      	movs	r3, #255	@ 0xff
10006d46:	f884 3045 	strb.w	r3, [r4, #69]	@ 0x45
10006d4a:	f7ff fab7 	bl	100062bc <vPortExitCritical>
10006d4e:	f7ff faa9 	bl	100062a4 <vPortEnterCritical>
10006d52:	f894 3044 	ldrb.w	r3, [r4, #68]	@ 0x44
10006d56:	b25d      	sxtb	r5, r3
10006d58:	2d00      	cmp	r5, #0
10006d5a:	dd14      	ble.n	10006d86 <xQueueSemaphoreTake+0x17e>
10006d5c:	f104 0810 	add.w	r8, r4, #16
10006d60:	e003      	b.n	10006d6a <xQueueSemaphoreTake+0x162>
10006d62:	1e6b      	subs	r3, r5, #1
10006d64:	b2da      	uxtb	r2, r3
10006d66:	b25d      	sxtb	r5, r3
10006d68:	b16a      	cbz	r2, 10006d86 <xQueueSemaphoreTake+0x17e>
10006d6a:	6923      	ldr	r3, [r4, #16]
10006d6c:	b15b      	cbz	r3, 10006d86 <xQueueSemaphoreTake+0x17e>
10006d6e:	4640      	mov	r0, r8
10006d70:	f7fe fc46 	bl	10005600 <xTaskRemoveFromEventList>
10006d74:	2800      	cmp	r0, #0
10006d76:	d0f4      	beq.n	10006d62 <xQueueSemaphoreTake+0x15a>
10006d78:	f7fe fd3a 	bl	100057f0 <vTaskMissedYield>
10006d7c:	1e6b      	subs	r3, r5, #1
10006d7e:	b2da      	uxtb	r2, r3
10006d80:	b25d      	sxtb	r5, r3
10006d82:	2a00      	cmp	r2, #0
10006d84:	d1f1      	bne.n	10006d6a <xQueueSemaphoreTake+0x162>
10006d86:	23ff      	movs	r3, #255	@ 0xff
10006d88:	f884 3044 	strb.w	r3, [r4, #68]	@ 0x44
10006d8c:	f7ff fa96 	bl	100062bc <vPortExitCritical>
10006d90:	f7fe f958 	bl	10005044 <xTaskResumeAll>
10006d94:	f7ff fa86 	bl	100062a4 <vPortEnterCritical>
10006d98:	6ba3      	ldr	r3, [r4, #56]	@ 0x38
10006d9a:	b153      	cbz	r3, 10006db2 <xQueueSemaphoreTake+0x1aa>
10006d9c:	f7ff fa8e 	bl	100062bc <vPortExitCritical>
10006da0:	f7ff fa80 	bl	100062a4 <vPortEnterCritical>
10006da4:	6ba5      	ldr	r5, [r4, #56]	@ 0x38
10006da6:	2d00      	cmp	r5, #0
10006da8:	d150      	bne.n	10006e4c <xQueueSemaphoreTake+0x244>
10006daa:	9b01      	ldr	r3, [sp, #4]
10006dac:	2b00      	cmp	r3, #0
10006dae:	f47f af40 	bne.w	10006c32 <xQueueSemaphoreTake+0x2a>
10006db2:	f7ff fa83 	bl	100062bc <vPortExitCritical>
10006db6:	2000      	movs	r0, #0
10006db8:	b004      	add	sp, #16
10006dba:	e8bd 81f0 	ldmia.w	sp!, {r4, r5, r6, r7, r8, pc}
10006dbe:	f7ff fa7d 	bl	100062bc <vPortExitCritical>
10006dc2:	f7ff fa6f 	bl	100062a4 <vPortEnterCritical>
10006dc6:	f894 3045 	ldrb.w	r3, [r4, #69]	@ 0x45
10006dca:	b25d      	sxtb	r5, r3
10006dcc:	2d00      	cmp	r5, #0
10006dce:	dd14      	ble.n	10006dfa <xQueueSemaphoreTake+0x1f2>
10006dd0:	f104 0824 	add.w	r8, r4, #36	@ 0x24
10006dd4:	e003      	b.n	10006dde <xQueueSemaphoreTake+0x1d6>
10006dd6:	1e6b      	subs	r3, r5, #1
10006dd8:	b2da      	uxtb	r2, r3
10006dda:	b25d      	sxtb	r5, r3
10006ddc:	b16a      	cbz	r2, 10006dfa <xQueueSemaphoreTake+0x1f2>
10006dde:	6a63      	ldr	r3, [r4, #36]	@ 0x24
10006de0:	b15b      	cbz	r3, 10006dfa <xQueueSemaphoreTake+0x1f2>
10006de2:	4640      	mov	r0, r8
10006de4:	f7fe fc0c 	bl	10005600 <xTaskRemoveFromEventList>
10006de8:	2800      	cmp	r0, #0
10006dea:	d0f4      	beq.n	10006dd6 <xQueueSemaphoreTake+0x1ce>
10006dec:	f7fe fd00 	bl	100057f0 <vTaskMissedYield>
10006df0:	1e6b      	subs	r3, r5, #1
10006df2:	b2da      	uxtb	r2, r3
10006df4:	b25d      	sxtb	r5, r3
10006df6:	2a00      	cmp	r2, #0
10006df8:	d1f1      	bne.n	10006dde <xQueueSemaphoreTake+0x1d6>
10006dfa:	23ff      	movs	r3, #255	@ 0xff
10006dfc:	f884 3045 	strb.w	r3, [r4, #69]	@ 0x45
10006e00:	f7ff fa5c 	bl	100062bc <vPortExitCritical>
10006e04:	f7ff fa4e 	bl	100062a4 <vPortEnterCritical>
10006e08:	f894 3044 	ldrb.w	r3, [r4, #68]	@ 0x44
10006e0c:	b25d      	sxtb	r5, r3
10006e0e:	2d00      	cmp	r5, #0
10006e10:	dd14      	ble.n	10006e3c <xQueueSemaphoreTake+0x234>
10006e12:	f104 0810 	add.w	r8, r4, #16
10006e16:	e003      	b.n	10006e20 <xQueueSemaphoreTake+0x218>
10006e18:	1e6b      	subs	r3, r5, #1
10006e1a:	b2da      	uxtb	r2, r3
10006e1c:	b25d      	sxtb	r5, r3
10006e1e:	b16a      	cbz	r2, 10006e3c <xQueueSemaphoreTake+0x234>
10006e20:	6923      	ldr	r3, [r4, #16]
10006e22:	b15b      	cbz	r3, 10006e3c <xQueueSemaphoreTake+0x234>
10006e24:	4640      	mov	r0, r8
10006e26:	f7fe fbeb 	bl	10005600 <xTaskRemoveFromEventList>
10006e2a:	2800      	cmp	r0, #0
10006e2c:	d0f4      	beq.n	10006e18 <xQueueSemaphoreTake+0x210>
10006e2e:	f7fe fcdf 	bl	100057f0 <vTaskMissedYield>
10006e32:	1e6b      	subs	r3, r5, #1
10006e34:	b2da      	uxtb	r2, r3
10006e36:	b25d      	sxtb	r5, r3
10006e38:	2a00      	cmp	r2, #0
10006e3a:	d1f1      	bne.n	10006e20 <xQueueSemaphoreTake+0x218>
10006e3c:	23ff      	movs	r3, #255	@ 0xff
10006e3e:	f884 3044 	strb.w	r3, [r4, #68]	@ 0x44
10006e42:	f7ff fa3b 	bl	100062bc <vPortExitCritical>
10006e46:	f7fe f8fd 	bl	10005044 <xTaskResumeAll>
10006e4a:	e7a9      	b.n	10006da0 <xQueueSemaphoreTake+0x198>
10006e4c:	3d01      	subs	r5, #1
10006e4e:	63a5      	str	r5, [r4, #56]	@ 0x38
10006e50:	6923      	ldr	r3, [r4, #16]
10006e52:	b92b      	cbnz	r3, 10006e60 <xQueueSemaphoreTake+0x258>
10006e54:	f7ff fa32 	bl	100062bc <vPortExitCritical>
10006e58:	2001      	movs	r0, #1
10006e5a:	b004      	add	sp, #16
10006e5c:	e8bd 81f0 	ldmia.w	sp!, {r4, r5, r6, r7, r8, pc}
10006e60:	f104 0010 	add.w	r0, r4, #16
10006e64:	f7fe fbcc 	bl	10005600 <xTaskRemoveFromEventList>
10006e68:	2800      	cmp	r0, #0
10006e6a:	d0f3      	beq.n	10006e54 <xQueueSemaphoreTake+0x24c>
10006e6c:	f7ff fa0e 	bl	1000628c <vPortYield>
10006e70:	e7f0      	b.n	10006e54 <xQueueSemaphoreTake+0x24c>
10006e72:	bf00      	nop

10006e74 <xQueuePeek>:
10006e74:	e92d 43f0 	stmdb	sp!, {r4, r5, r6, r7, r8, r9, lr}
10006e78:	4604      	mov	r4, r0
10006e7a:	b085      	sub	sp, #20
10006e7c:	4688      	mov	r8, r1
10006e7e:	9201      	str	r2, [sp, #4]
10006e80:	f7ff fa10 	bl	100062a4 <vPortEnterCritical>
10006e84:	6ba7      	ldr	r7, [r4, #56]	@ 0x38
10006e86:	2f00      	cmp	r7, #0
10006e88:	f040 8116 	bne.w	100070b8 <xQueuePeek+0x244>
10006e8c:	9b01      	ldr	r3, [sp, #4]
10006e8e:	2b00      	cmp	r3, #0
10006e90:	f000 80c5 	beq.w	1000701e <xQueuePeek+0x1aa>
10006e94:	a802      	add	r0, sp, #8
10006e96:	f7fe fc73 	bl	10005780 <vTaskInternalSetTimeOutState>
10006e9a:	f104 0624 	add.w	r6, r4, #36	@ 0x24
10006e9e:	f7ff fa0d 	bl	100062bc <vPortExitCritical>
10006ea2:	f7fe f8c5 	bl	10005030 <vTaskSuspendAll>
10006ea6:	f7ff f9fd 	bl	100062a4 <vPortEnterCritical>
10006eaa:	f894 3044 	ldrb.w	r3, [r4, #68]	@ 0x44
10006eae:	2bff      	cmp	r3, #255	@ 0xff
10006eb0:	bf08      	it	eq
10006eb2:	f884 7044 	strbeq.w	r7, [r4, #68]	@ 0x44
10006eb6:	f894 3045 	ldrb.w	r3, [r4, #69]	@ 0x45
10006eba:	2bff      	cmp	r3, #255	@ 0xff
10006ebc:	bf08      	it	eq
10006ebe:	f884 7045 	strbeq.w	r7, [r4, #69]	@ 0x45
10006ec2:	f7ff f9fb 	bl	100062bc <vPortExitCritical>
10006ec6:	a901      	add	r1, sp, #4
10006ec8:	a802      	add	r0, sp, #8
10006eca:	f7fe fc63 	bl	10005794 <xTaskCheckForTimeOut>
10006ece:	2800      	cmp	r0, #0
10006ed0:	d154      	bne.n	10006f7c <xQueuePeek+0x108>
10006ed2:	f7ff f9e7 	bl	100062a4 <vPortEnterCritical>
10006ed6:	6ba3      	ldr	r3, [r4, #56]	@ 0x38
10006ed8:	2b00      	cmp	r3, #0
10006eda:	f040 80a6 	bne.w	1000702a <xQueuePeek+0x1b6>
10006ede:	f104 0924 	add.w	r9, r4, #36	@ 0x24
10006ee2:	f7ff f9eb 	bl	100062bc <vPortExitCritical>
10006ee6:	4648      	mov	r0, r9
10006ee8:	9901      	ldr	r1, [sp, #4]
10006eea:	f7fe fa6f 	bl	100053cc <vTaskPlaceOnEventList>
10006eee:	f7ff f9d9 	bl	100062a4 <vPortEnterCritical>
10006ef2:	f894 3045 	ldrb.w	r3, [r4, #69]	@ 0x45
10006ef6:	b25d      	sxtb	r5, r3
10006ef8:	2d00      	cmp	r5, #0
10006efa:	dc04      	bgt.n	10006f06 <xQueuePeek+0x92>
10006efc:	e011      	b.n	10006f22 <xQueuePeek+0xae>
10006efe:	1e6b      	subs	r3, r5, #1
10006f00:	b2da      	uxtb	r2, r3
10006f02:	b25d      	sxtb	r5, r3
10006f04:	b16a      	cbz	r2, 10006f22 <xQueuePeek+0xae>
10006f06:	6a63      	ldr	r3, [r4, #36]	@ 0x24
10006f08:	b15b      	cbz	r3, 10006f22 <xQueuePeek+0xae>
10006f0a:	4648      	mov	r0, r9
10006f0c:	f7fe fb78 	bl	10005600 <xTaskRemoveFromEventList>
10006f10:	2800      	cmp	r0, #0
10006f12:	d0f4      	beq.n	10006efe <xQueuePeek+0x8a>
10006f14:	f7fe fc6c 	bl	100057f0 <vTaskMissedYield>
10006f18:	1e6b      	subs	r3, r5, #1
10006f1a:	b2da      	uxtb	r2, r3
10006f1c:	b25d      	sxtb	r5, r3
10006f1e:	2a00      	cmp	r2, #0
10006f20:	d1f1      	bne.n	10006f06 <xQueuePeek+0x92>
10006f22:	23ff      	movs	r3, #255	@ 0xff
10006f24:	f884 3045 	strb.w	r3, [r4, #69]	@ 0x45
10006f28:	f7ff f9c8 	bl	100062bc <vPortExitCritical>
10006f2c:	f7ff f9ba 	bl	100062a4 <vPortEnterCritical>
10006f30:	f894 3044 	ldrb.w	r3, [r4, #68]	@ 0x44
10006f34:	b25d      	sxtb	r5, r3
10006f36:	2d00      	cmp	r5, #0
10006f38:	dd14      	ble.n	10006f64 <xQueuePeek+0xf0>
10006f3a:	f104 0910 	add.w	r9, r4, #16
10006f3e:	e003      	b.n	10006f48 <xQueuePeek+0xd4>
10006f40:	1e6b      	subs	r3, r5, #1
10006f42:	b2da      	uxtb	r2, r3
10006f44:	b25d      	sxtb	r5, r3
10006f46:	b16a      	cbz	r2, 10006f64 <xQueuePeek+0xf0>
10006f48:	6923      	ldr	r3, [r4, #16]
10006f4a:	b15b      	cbz	r3, 10006f64 <xQueuePeek+0xf0>
10006f4c:	4648      	mov	r0, r9
10006f4e:	f7fe fb57 	bl	10005600 <xTaskRemoveFromEventList>
10006f52:	2800      	cmp	r0, #0
10006f54:	d0f4      	beq.n	10006f40 <xQueuePeek+0xcc>
10006f56:	f7fe fc4b 	bl	100057f0 <vTaskMissedYield>
10006f5a:	1e6b      	subs	r3, r5, #1
10006f5c:	b2da      	uxtb	r2, r3
10006f5e:	b25d      	sxtb	r5, r3
10006f60:	2a00      	cmp	r2, #0
10006f62:	d1f1      	bne.n	10006f48 <xQueuePeek+0xd4>
10006f64:	23ff      	movs	r3, #255	@ 0xff
10006f66:	f884 3044 	strb.w	r3, [r4, #68]	@ 0x44
10006f6a:	f7ff f9a7 	bl	100062bc <vPortExitCritical>
10006f6e:	f7fe f869 	bl	10005044 <xTaskResumeAll>
10006f72:	2800      	cmp	r0, #0
10006f74:	d14a      	bne.n	1000700c <xQueuePeek+0x198>
10006f76:	f7ff f989 	bl	1000628c <vPortYield>
10006f7a:	e047      	b.n	1000700c <xQueuePeek+0x198>
10006f7c:	f7ff f992 	bl	100062a4 <vPortEnterCritical>
10006f80:	f894 3045 	ldrb.w	r3, [r4, #69]	@ 0x45
10006f84:	b25d      	sxtb	r5, r3
10006f86:	2d00      	cmp	r5, #0
10006f88:	dc04      	bgt.n	10006f94 <xQueuePeek+0x120>
10006f8a:	e011      	b.n	10006fb0 <xQueuePeek+0x13c>
10006f8c:	1e6b      	subs	r3, r5, #1
10006f8e:	b2da      	uxtb	r2, r3
10006f90:	b25d      	sxtb	r5, r3
10006f92:	b16a      	cbz	r2, 10006fb0 <xQueuePeek+0x13c>
10006f94:	6a63      	ldr	r3, [r4, #36]	@ 0x24
10006f96:	b15b      	cbz	r3, 10006fb0 <xQueuePeek+0x13c>
10006f98:	4630      	mov	r0, r6
10006f9a:	f7fe fb31 	bl	10005600 <xTaskRemoveFromEventList>
10006f9e:	2800      	cmp	r0, #0
10006fa0:	d0f4      	beq.n	10006f8c <xQueuePeek+0x118>
10006fa2:	f7fe fc25 	bl	100057f0 <vTaskMissedYield>
10006fa6:	1e6b      	subs	r3, r5, #1
10006fa8:	b2da      	uxtb	r2, r3
10006faa:	b25d      	sxtb	r5, r3
10006fac:	2a00      	cmp	r2, #0
10006fae:	d1f1      	bne.n	10006f94 <xQueuePeek+0x120>
10006fb0:	23ff      	movs	r3, #255	@ 0xff
10006fb2:	f884 3045 	strb.w	r3, [r4, #69]	@ 0x45
10006fb6:	f7ff f981 	bl	100062bc <vPortExitCritical>
10006fba:	f7ff f973 	bl	100062a4 <vPortEnterCritical>
10006fbe:	f894 3044 	ldrb.w	r3, [r4, #68]	@ 0x44
10006fc2:	b25d      	sxtb	r5, r3
10006fc4:	2d00      	cmp	r5, #0
10006fc6:	dd14      	ble.n	10006ff2 <xQueuePeek+0x17e>
10006fc8:	f104 0910 	add.w	r9, r4, #16
10006fcc:	e003      	b.n	10006fd6 <xQueuePeek+0x162>
10006fce:	1e6b      	subs	r3, r5, #1
10006fd0:	b2da      	uxtb	r2, r3
10006fd2:	b25d      	sxtb	r5, r3
10006fd4:	b16a      	cbz	r2, 10006ff2 <xQueuePeek+0x17e>
10006fd6:	6923      	ldr	r3, [r4, #16]
10006fd8:	b15b      	cbz	r3, 10006ff2 <xQueuePeek+0x17e>
10006fda:	4648      	mov	r0, r9
10006fdc:	f7fe fb10 	bl	10005600 <xTaskRemoveFromEventList>
10006fe0:	2800      	cmp	r0, #0
10006fe2:	d0f4      	beq.n	10006fce <xQueuePeek+0x15a>
10006fe4:	f7fe fc04 	bl	100057f0 <vTaskMissedYield>
10006fe8:	1e6b      	subs	r3, r5, #1
10006fea:	b2da      	uxtb	r2, r3
10006fec:	b25d      	sxtb	r5, r3
10006fee:	2a00      	cmp	r2, #0
10006ff0:	d1f1      	bne.n	10006fd6 <xQueuePeek+0x162>
10006ff2:	23ff      	movs	r3, #255	@ 0xff
10006ff4:	f884 3044 	strb.w	r3, [r4, #68]	@ 0x44
10006ff8:	f7ff f960 	bl	100062bc <vPortExitCritical>
10006ffc:	f7fe f822 	bl	10005044 <xTaskResumeAll>
10007000:	f7ff f950 	bl	100062a4 <vPortEnterCritical>
10007004:	6ba3      	ldr	r3, [r4, #56]	@ 0x38
10007006:	b153      	cbz	r3, 1000701e <xQueuePeek+0x1aa>
10007008:	f7ff f958 	bl	100062bc <vPortExitCritical>
1000700c:	f7ff f94a 	bl	100062a4 <vPortEnterCritical>
10007010:	6ba3      	ldr	r3, [r4, #56]	@ 0x38
10007012:	2b00      	cmp	r3, #0
10007014:	d150      	bne.n	100070b8 <xQueuePeek+0x244>
10007016:	9b01      	ldr	r3, [sp, #4]
10007018:	2b00      	cmp	r3, #0
1000701a:	f47f af40 	bne.w	10006e9e <xQueuePeek+0x2a>
1000701e:	f7ff f94d 	bl	100062bc <vPortExitCritical>
10007022:	2000      	movs	r0, #0
10007024:	b005      	add	sp, #20
10007026:	e8bd 83f0 	ldmia.w	sp!, {r4, r5, r6, r7, r8, r9, pc}
1000702a:	f7ff f947 	bl	100062bc <vPortExitCritical>
1000702e:	f7ff f939 	bl	100062a4 <vPortEnterCritical>
10007032:	f894 3045 	ldrb.w	r3, [r4, #69]	@ 0x45
10007036:	b25d      	sxtb	r5, r3
10007038:	2d00      	cmp	r5, #0
1000703a:	dd14      	ble.n	10007066 <xQueuePeek+0x1f2>
1000703c:	f104 0924 	add.w	r9, r4, #36	@ 0x24
10007040:	e003      	b.n	1000704a <xQueuePeek+0x1d6>
10007042:	1e6b      	subs	r3, r5, #1
10007044:	b2da      	uxtb	r2, r3
10007046:	b25d      	sxtb	r5, r3
10007048:	b16a      	cbz	r2, 10007066 <xQueuePeek+0x1f2>
1000704a:	6a63      	ldr	r3, [r4, #36]	@ 0x24
1000704c:	b15b      	cbz	r3, 10007066 <xQueuePeek+0x1f2>
1000704e:	4648      	mov	r0, r9
10007050:	f7fe fad6 	bl	10005600 <xTaskRemoveFromEventList>
10007054:	2800      	cmp	r0, #0
10007056:	d0f4      	beq.n	10007042 <xQueuePeek+0x1ce>
10007058:	f7fe fbca 	bl	100057f0 <vTaskMissedYield>
1000705c:	1e6b      	subs	r3, r5, #1
1000705e:	b2da      	uxtb	r2, r3
10007060:	b25d      	sxtb	r5, r3
10007062:	2a00      	cmp	r2, #0
10007064:	d1f1      	bne.n	1000704a <xQueuePeek+0x1d6>
10007066:	23ff      	movs	r3, #255	@ 0xff
10007068:	f884 3045 	strb.w	r3, [r4, #69]	@ 0x45
1000706c:	f7ff f926 	bl	100062bc <vPortExitCritical>
10007070:	f7ff f918 	bl	100062a4 <vPortEnterCritical>
10007074:	f894 3044 	ldrb.w	r3, [r4, #68]	@ 0x44
10007078:	b25d      	sxtb	r5, r3
1000707a:	2d00      	cmp	r5, #0
1000707c:	dd14      	ble.n	100070a8 <xQueuePeek+0x234>
1000707e:	f104 0910 	add.w	r9, r4, #16
10007082:	e003      	b.n	1000708c <xQueuePeek+0x218>
10007084:	1e6b      	subs	r3, r5, #1
10007086:	b2da      	uxtb	r2, r3
10007088:	b25d      	sxtb	r5, r3
1000708a:	b16a      	cbz	r2, 100070a8 <xQueuePeek+0x234>
1000708c:	6923      	ldr	r3, [r4, #16]
1000708e:	b15b      	cbz	r3, 100070a8 <xQueuePeek+0x234>
10007090:	4648      	mov	r0, r9
10007092:	f7fe fab5 	bl	10005600 <xTaskRemoveFromEventList>
10007096:	2800      	cmp	r0, #0
10007098:	d0f4      	beq.n	10007084 <xQueuePeek+0x210>
1000709a:	f7fe fba9 	bl	100057f0 <vTaskMissedYield>
1000709e:	1e6b      	subs	r3, r5, #1
100070a0:	b2da      	uxtb	r2, r3
100070a2:	b25d      	sxtb	r5, r3
100070a4:	2a00      	cmp	r2, #0
100070a6:	d1f1      	bne.n	1000708c <xQueuePeek+0x218>
100070a8:	23ff      	movs	r3, #255	@ 0xff
100070aa:	f884 3044 	strb.w	r3, [r4, #68]	@ 0x44
100070ae:	f7ff f905 	bl	100062bc <vPortExitCritical>
100070b2:	f7fd ffc7 	bl	10005044 <xTaskResumeAll>
100070b6:	e7a9      	b.n	1000700c <xQueuePeek+0x198>
100070b8:	6c22      	ldr	r2, [r4, #64]	@ 0x40
100070ba:	68e5      	ldr	r5, [r4, #12]
100070bc:	b152      	cbz	r2, 100070d4 <xQueuePeek+0x260>
100070be:	68a3      	ldr	r3, [r4, #8]
100070c0:	18a9      	adds	r1, r5, r2
100070c2:	4299      	cmp	r1, r3
100070c4:	60e1      	str	r1, [r4, #12]
100070c6:	bf28      	it	cs
100070c8:	6821      	ldrcs	r1, [r4, #0]
100070ca:	4640      	mov	r0, r8
100070cc:	bf28      	it	cs
100070ce:	60e1      	strcs	r1, [r4, #12]
100070d0:	f000 fee2 	bl	10007e98 <memcpy>
100070d4:	6a63      	ldr	r3, [r4, #36]	@ 0x24
100070d6:	60e5      	str	r5, [r4, #12]
100070d8:	b92b      	cbnz	r3, 100070e6 <xQueuePeek+0x272>
100070da:	f7ff f8ef 	bl	100062bc <vPortExitCritical>
100070de:	2001      	movs	r0, #1
100070e0:	b005      	add	sp, #20
100070e2:	e8bd 83f0 	ldmia.w	sp!, {r4, r5, r6, r7, r8, r9, pc}
100070e6:	f104 0024 	add.w	r0, r4, #36	@ 0x24
100070ea:	f7fe fa89 	bl	10005600 <xTaskRemoveFromEventList>
100070ee:	2800      	cmp	r0, #0
100070f0:	d0f3      	beq.n	100070da <xQueuePeek+0x266>
100070f2:	f7ff f8cb 	bl	1000628c <vPortYield>
100070f6:	e7f0      	b.n	100070da <xQueuePeek+0x266>

100070f8 <xQueueReceiveFromISR>:
100070f8:	e92d 43f8 	stmdb	sp!, {r3, r4, r5, r6, r7, r8, r9, lr}
100070fc:	4604      	mov	r4, r0
100070fe:	4688      	mov	r8, r1
10007100:	4617      	mov	r7, r2
10007102:	f7ff f8e5 	bl	100062d0 <ulSetInterruptMaskFromISR>
10007106:	6ba5      	ldr	r5, [r4, #56]	@ 0x38
10007108:	4606      	mov	r6, r0
1000710a:	b92d      	cbnz	r5, 10007118 <xQueueReceiveFromISR+0x20>
1000710c:	4630      	mov	r0, r6
1000710e:	f7ff f8e3 	bl	100062d8 <vClearInterruptMaskFromISR>
10007112:	4628      	mov	r0, r5
10007114:	e8bd 83f8 	ldmia.w	sp!, {r3, r4, r5, r6, r7, r8, r9, pc}
10007118:	f894 9044 	ldrb.w	r9, [r4, #68]	@ 0x44
1000711c:	6c22      	ldr	r2, [r4, #64]	@ 0x40
1000711e:	fa4f f989 	sxtb.w	r9, r9
10007122:	b15a      	cbz	r2, 1000713c <xQueueReceiveFromISR+0x44>
10007124:	68e1      	ldr	r1, [r4, #12]
10007126:	68a3      	ldr	r3, [r4, #8]
10007128:	4411      	add	r1, r2
1000712a:	4299      	cmp	r1, r3
1000712c:	60e1      	str	r1, [r4, #12]
1000712e:	bf28      	it	cs
10007130:	6821      	ldrcs	r1, [r4, #0]
10007132:	4640      	mov	r0, r8
10007134:	bf28      	it	cs
10007136:	60e1      	strcs	r1, [r4, #12]
10007138:	f000 feae 	bl	10007e98 <memcpy>
1000713c:	3d01      	subs	r5, #1
1000713e:	f1b9 3fff 	cmp.w	r9, #4294967295	@ 0xffffffff
10007142:	63a5      	str	r5, [r4, #56]	@ 0x38
10007144:	d103      	bne.n	1000714e <xQueueReceiveFromISR+0x56>
10007146:	6923      	ldr	r3, [r4, #16]
10007148:	b963      	cbnz	r3, 10007164 <xQueueReceiveFromISR+0x6c>
1000714a:	2501      	movs	r5, #1
1000714c:	e7de      	b.n	1000710c <xQueueReceiveFromISR+0x14>
1000714e:	f7fe f8a7 	bl	100052a0 <uxTaskGetNumberOfTasks>
10007152:	4581      	cmp	r9, r0
10007154:	d2f9      	bcs.n	1000714a <xQueueReceiveFromISR+0x52>
10007156:	f109 0901 	add.w	r9, r9, #1
1000715a:	fa4f f989 	sxtb.w	r9, r9
1000715e:	f884 9044 	strb.w	r9, [r4, #68]	@ 0x44
10007162:	e7f2      	b.n	1000714a <xQueueReceiveFromISR+0x52>
10007164:	f104 0010 	add.w	r0, r4, #16
10007168:	f7fe fa4a 	bl	10005600 <xTaskRemoveFromEventList>
1000716c:	2800      	cmp	r0, #0
1000716e:	d0ec      	beq.n	1000714a <xQueueReceiveFromISR+0x52>
10007170:	2f00      	cmp	r7, #0
10007172:	d0ea      	beq.n	1000714a <xQueueReceiveFromISR+0x52>
10007174:	2301      	movs	r3, #1
10007176:	603b      	str	r3, [r7, #0]
10007178:	e7e7      	b.n	1000714a <xQueueReceiveFromISR+0x52>
1000717a:	bf00      	nop

1000717c <xQueuePeekFromISR>:
1000717c:	b5f8      	push	{r3, r4, r5, r6, r7, lr}
1000717e:	4604      	mov	r4, r0
10007180:	460d      	mov	r5, r1
10007182:	f7ff f8a5 	bl	100062d0 <ulSetInterruptMaskFromISR>
10007186:	6ba3      	ldr	r3, [r4, #56]	@ 0x38
10007188:	4606      	mov	r6, r0
1000718a:	b92b      	cbnz	r3, 10007198 <xQueuePeekFromISR+0x1c>
1000718c:	461d      	mov	r5, r3
1000718e:	4630      	mov	r0, r6
10007190:	f7ff f8a2 	bl	100062d8 <vClearInterruptMaskFromISR>
10007194:	4628      	mov	r0, r5
10007196:	bdf8      	pop	{r3, r4, r5, r6, r7, pc}
10007198:	6c22      	ldr	r2, [r4, #64]	@ 0x40
1000719a:	68e7      	ldr	r7, [r4, #12]
1000719c:	b152      	cbz	r2, 100071b4 <xQueuePeekFromISR+0x38>
1000719e:	68a3      	ldr	r3, [r4, #8]
100071a0:	18b9      	adds	r1, r7, r2
100071a2:	4299      	cmp	r1, r3
100071a4:	60e1      	str	r1, [r4, #12]
100071a6:	bf28      	it	cs
100071a8:	6821      	ldrcs	r1, [r4, #0]
100071aa:	4628      	mov	r0, r5
100071ac:	bf28      	it	cs
100071ae:	60e1      	strcs	r1, [r4, #12]
100071b0:	f000 fe72 	bl	10007e98 <memcpy>
100071b4:	2501      	movs	r5, #1
100071b6:	4630      	mov	r0, r6
100071b8:	60e7      	str	r7, [r4, #12]
100071ba:	f7ff f88d 	bl	100062d8 <vClearInterruptMaskFromISR>
100071be:	4628      	mov	r0, r5
100071c0:	bdf8      	pop	{r3, r4, r5, r6, r7, pc}
100071c2:	bf00      	nop

100071c4 <uxQueueMessagesWaiting>:
100071c4:	b510      	push	{r4, lr}
100071c6:	4604      	mov	r4, r0
100071c8:	f7ff f86c 	bl	100062a4 <vPortEnterCritical>
100071cc:	6ba4      	ldr	r4, [r4, #56]	@ 0x38
100071ce:	f7ff f875 	bl	100062bc <vPortExitCritical>
100071d2:	4620      	mov	r0, r4
100071d4:	bd10      	pop	{r4, pc}
100071d6:	bf00      	nop

100071d8 <uxQueueSpacesAvailable>:
100071d8:	b510      	push	{r4, lr}
100071da:	4604      	mov	r4, r0
100071dc:	f7ff f862 	bl	100062a4 <vPortEnterCritical>
100071e0:	6ba3      	ldr	r3, [r4, #56]	@ 0x38
100071e2:	6be4      	ldr	r4, [r4, #60]	@ 0x3c
100071e4:	1ae4      	subs	r4, r4, r3
100071e6:	f7ff f869 	bl	100062bc <vPortExitCritical>
100071ea:	4620      	mov	r0, r4
100071ec:	bd10      	pop	{r4, pc}
100071ee:	bf00      	nop

100071f0 <uxQueueMessagesWaitingFromISR>:
100071f0:	6b80      	ldr	r0, [r0, #56]	@ 0x38
100071f2:	4770      	bx	lr

100071f4 <vQueueDelete>:
100071f4:	4b20      	ldr	r3, [pc, #128]	@ (10007278 <vQueueDelete+0x84>)
100071f6:	685a      	ldr	r2, [r3, #4]
100071f8:	4290      	cmp	r0, r2
100071fa:	d01e      	beq.n	1000723a <vQueueDelete+0x46>
100071fc:	68da      	ldr	r2, [r3, #12]
100071fe:	4290      	cmp	r0, r2
10007200:	d024      	beq.n	1000724c <vQueueDelete+0x58>
10007202:	695a      	ldr	r2, [r3, #20]
10007204:	4290      	cmp	r0, r2
10007206:	d023      	beq.n	10007250 <vQueueDelete+0x5c>
10007208:	69da      	ldr	r2, [r3, #28]
1000720a:	4290      	cmp	r0, r2
1000720c:	d022      	beq.n	10007254 <vQueueDelete+0x60>
1000720e:	6a5a      	ldr	r2, [r3, #36]	@ 0x24
10007210:	4290      	cmp	r0, r2
10007212:	d021      	beq.n	10007258 <vQueueDelete+0x64>
10007214:	6ada      	ldr	r2, [r3, #44]	@ 0x2c
10007216:	4290      	cmp	r0, r2
10007218:	d020      	beq.n	1000725c <vQueueDelete+0x68>
1000721a:	6b5a      	ldr	r2, [r3, #52]	@ 0x34
1000721c:	4290      	cmp	r0, r2
1000721e:	d01f      	beq.n	10007260 <vQueueDelete+0x6c>
10007220:	6bda      	ldr	r2, [r3, #60]	@ 0x3c
10007222:	4290      	cmp	r0, r2
10007224:	d01e      	beq.n	10007264 <vQueueDelete+0x70>
10007226:	6c5a      	ldr	r2, [r3, #68]	@ 0x44
10007228:	4290      	cmp	r0, r2
1000722a:	d01d      	beq.n	10007268 <vQueueDelete+0x74>
1000722c:	6cda      	ldr	r2, [r3, #76]	@ 0x4c
1000722e:	4290      	cmp	r0, r2
10007230:	bf08      	it	eq
10007232:	2209      	moveq	r2, #9
10007234:	d002      	beq.n	1000723c <vQueueDelete+0x48>
10007236:	f7fe bfe3 	b.w	10006200 <vPortFree>
1000723a:	2200      	movs	r2, #0
1000723c:	ed9f 7b0c 	vldr	d7, [pc, #48]	@ 10007270 <vQueueDelete+0x7c>
10007240:	eb03 03c2 	add.w	r3, r3, r2, lsl #3
10007244:	ed83 7b00 	vstr	d7, [r3]
10007248:	f7fe bfda 	b.w	10006200 <vPortFree>
1000724c:	2201      	movs	r2, #1
1000724e:	e7f5      	b.n	1000723c <vQueueDelete+0x48>
10007250:	2202      	movs	r2, #2
10007252:	e7f3      	b.n	1000723c <vQueueDelete+0x48>
10007254:	2203      	movs	r2, #3
10007256:	e7f1      	b.n	1000723c <vQueueDelete+0x48>
10007258:	2204      	movs	r2, #4
1000725a:	e7ef      	b.n	1000723c <vQueueDelete+0x48>
1000725c:	2205      	movs	r2, #5
1000725e:	e7ed      	b.n	1000723c <vQueueDelete+0x48>
10007260:	2206      	movs	r2, #6
10007262:	e7eb      	b.n	1000723c <vQueueDelete+0x48>
10007264:	2207      	movs	r2, #7
10007266:	e7e9      	b.n	1000723c <vQueueDelete+0x48>
10007268:	2208      	movs	r2, #8
1000726a:	e7e7      	b.n	1000723c <vQueueDelete+0x48>
1000726c:	f3af 8000 	nop.w
	...
10007278:	200013f0 	.word	0x200013f0

1000727c <uxQueueGetQueueItemSize>:
1000727c:	6c00      	ldr	r0, [r0, #64]	@ 0x40
1000727e:	4770      	bx	lr

10007280 <xQueueIsQueueEmptyFromISR>:
10007280:	6b80      	ldr	r0, [r0, #56]	@ 0x38
10007282:	fab0 f080 	clz	r0, r0
10007286:	0940      	lsrs	r0, r0, #5
10007288:	4770      	bx	lr
1000728a:	bf00      	nop

1000728c <xQueueIsQueueFullFromISR>:
1000728c:	6b83      	ldr	r3, [r0, #56]	@ 0x38
1000728e:	6bc0      	ldr	r0, [r0, #60]	@ 0x3c
10007290:	1ac0      	subs	r0, r0, r3
10007292:	fab0 f080 	clz	r0, r0
10007296:	0940      	lsrs	r0, r0, #5
10007298:	4770      	bx	lr
1000729a:	bf00      	nop

1000729c <vQueueAddToRegistry>:
1000729c:	2900      	cmp	r1, #0
1000729e:	d06b      	beq.n	10007378 <vQueueAddToRegistry+0xdc>
100072a0:	4b56      	ldr	r3, [pc, #344]	@ (100073fc <vQueueAddToRegistry+0x160>)
100072a2:	685a      	ldr	r2, [r3, #4]
100072a4:	4290      	cmp	r0, r2
100072a6:	f000 808b 	beq.w	100073c0 <vQueueAddToRegistry+0x124>
100072aa:	681a      	ldr	r2, [r3, #0]
100072ac:	b410      	push	{r4}
100072ae:	2a00      	cmp	r2, #0
100072b0:	d03b      	beq.n	1000732a <vQueueAddToRegistry+0x8e>
100072b2:	68da      	ldr	r2, [r3, #12]
100072b4:	4290      	cmp	r0, r2
100072b6:	f000 809e 	beq.w	100073f6 <vQueueAddToRegistry+0x15a>
100072ba:	689a      	ldr	r2, [r3, #8]
100072bc:	2a00      	cmp	r2, #0
100072be:	d055      	beq.n	1000736c <vQueueAddToRegistry+0xd0>
100072c0:	695a      	ldr	r2, [r3, #20]
100072c2:	4290      	cmp	r0, r2
100072c4:	f000 8095 	beq.w	100073f2 <vQueueAddToRegistry+0x156>
100072c8:	691a      	ldr	r2, [r3, #16]
100072ca:	2a00      	cmp	r2, #0
100072cc:	d055      	beq.n	1000737a <vQueueAddToRegistry+0xde>
100072ce:	69da      	ldr	r2, [r3, #28]
100072d0:	4290      	cmp	r0, r2
100072d2:	f000 8082 	beq.w	100073da <vQueueAddToRegistry+0x13e>
100072d6:	699a      	ldr	r2, [r3, #24]
100072d8:	2a00      	cmp	r2, #0
100072da:	d054      	beq.n	10007386 <vQueueAddToRegistry+0xea>
100072dc:	6a5a      	ldr	r2, [r3, #36]	@ 0x24
100072de:	4290      	cmp	r0, r2
100072e0:	d056      	beq.n	10007390 <vQueueAddToRegistry+0xf4>
100072e2:	6a1a      	ldr	r2, [r3, #32]
100072e4:	2a00      	cmp	r2, #0
100072e6:	d057      	beq.n	10007398 <vQueueAddToRegistry+0xfc>
100072e8:	6ada      	ldr	r2, [r3, #44]	@ 0x2c
100072ea:	4290      	cmp	r0, r2
100072ec:	d077      	beq.n	100073de <vQueueAddToRegistry+0x142>
100072ee:	6a9a      	ldr	r2, [r3, #40]	@ 0x28
100072f0:	2a00      	cmp	r2, #0
100072f2:	d056      	beq.n	100073a2 <vQueueAddToRegistry+0x106>
100072f4:	6b5a      	ldr	r2, [r3, #52]	@ 0x34
100072f6:	4290      	cmp	r0, r2
100072f8:	d073      	beq.n	100073e2 <vQueueAddToRegistry+0x146>
100072fa:	6b1a      	ldr	r2, [r3, #48]	@ 0x30
100072fc:	2a00      	cmp	r2, #0
100072fe:	d055      	beq.n	100073ac <vQueueAddToRegistry+0x110>
10007300:	6bda      	ldr	r2, [r3, #60]	@ 0x3c
10007302:	4290      	cmp	r0, r2
10007304:	d06f      	beq.n	100073e6 <vQueueAddToRegistry+0x14a>
10007306:	6b9a      	ldr	r2, [r3, #56]	@ 0x38
10007308:	2a00      	cmp	r2, #0
1000730a:	d054      	beq.n	100073b6 <vQueueAddToRegistry+0x11a>
1000730c:	6c5a      	ldr	r2, [r3, #68]	@ 0x44
1000730e:	4290      	cmp	r0, r2
10007310:	d06b      	beq.n	100073ea <vQueueAddToRegistry+0x14e>
10007312:	6c1a      	ldr	r2, [r3, #64]	@ 0x40
10007314:	2a00      	cmp	r2, #0
10007316:	d059      	beq.n	100073cc <vQueueAddToRegistry+0x130>
10007318:	6cda      	ldr	r2, [r3, #76]	@ 0x4c
1000731a:	4290      	cmp	r0, r2
1000731c:	d067      	beq.n	100073ee <vQueueAddToRegistry+0x152>
1000731e:	6c9b      	ldr	r3, [r3, #72]	@ 0x48
10007320:	2b00      	cmp	r3, #0
10007322:	d058      	beq.n	100073d6 <vQueueAddToRegistry+0x13a>
10007324:	f85d 4b04 	ldr.w	r4, [sp], #4
10007328:	4770      	bx	lr
1000732a:	68da      	ldr	r2, [r3, #12]
1000732c:	4290      	cmp	r0, r2
1000732e:	d062      	beq.n	100073f6 <vQueueAddToRegistry+0x15a>
10007330:	695a      	ldr	r2, [r3, #20]
10007332:	4290      	cmp	r0, r2
10007334:	d05d      	beq.n	100073f2 <vQueueAddToRegistry+0x156>
10007336:	461a      	mov	r2, r3
10007338:	69dc      	ldr	r4, [r3, #28]
1000733a:	42a0      	cmp	r0, r4
1000733c:	d04d      	beq.n	100073da <vQueueAddToRegistry+0x13e>
1000733e:	6a5c      	ldr	r4, [r3, #36]	@ 0x24
10007340:	42a0      	cmp	r0, r4
10007342:	d025      	beq.n	10007390 <vQueueAddToRegistry+0xf4>
10007344:	6adc      	ldr	r4, [r3, #44]	@ 0x2c
10007346:	42a0      	cmp	r0, r4
10007348:	d049      	beq.n	100073de <vQueueAddToRegistry+0x142>
1000734a:	6b5c      	ldr	r4, [r3, #52]	@ 0x34
1000734c:	42a0      	cmp	r0, r4
1000734e:	d048      	beq.n	100073e2 <vQueueAddToRegistry+0x146>
10007350:	6bdc      	ldr	r4, [r3, #60]	@ 0x3c
10007352:	42a0      	cmp	r0, r4
10007354:	d047      	beq.n	100073e6 <vQueueAddToRegistry+0x14a>
10007356:	6c5c      	ldr	r4, [r3, #68]	@ 0x44
10007358:	42a0      	cmp	r0, r4
1000735a:	d046      	beq.n	100073ea <vQueueAddToRegistry+0x14e>
1000735c:	6cdc      	ldr	r4, [r3, #76]	@ 0x4c
1000735e:	42a0      	cmp	r0, r4
10007360:	d045      	beq.n	100073ee <vQueueAddToRegistry+0x152>
10007362:	e9c2 1000 	strd	r1, r0, [r2]
10007366:	f85d 4b04 	ldr.w	r4, [sp], #4
1000736a:	4770      	bx	lr
1000736c:	695a      	ldr	r2, [r3, #20]
1000736e:	4290      	cmp	r0, r2
10007370:	d03f      	beq.n	100073f2 <vQueueAddToRegistry+0x156>
10007372:	f103 0208 	add.w	r2, r3, #8
10007376:	e7df      	b.n	10007338 <vQueueAddToRegistry+0x9c>
10007378:	4770      	bx	lr
1000737a:	69da      	ldr	r2, [r3, #28]
1000737c:	4290      	cmp	r0, r2
1000737e:	d02c      	beq.n	100073da <vQueueAddToRegistry+0x13e>
10007380:	f103 0210 	add.w	r2, r3, #16
10007384:	e7db      	b.n	1000733e <vQueueAddToRegistry+0xa2>
10007386:	6a5a      	ldr	r2, [r3, #36]	@ 0x24
10007388:	4290      	cmp	r0, r2
1000738a:	d001      	beq.n	10007390 <vQueueAddToRegistry+0xf4>
1000738c:	4a1c      	ldr	r2, [pc, #112]	@ (10007400 <vQueueAddToRegistry+0x164>)
1000738e:	e7d9      	b.n	10007344 <vQueueAddToRegistry+0xa8>
10007390:	2204      	movs	r2, #4
10007392:	eb03 02c2 	add.w	r2, r3, r2, lsl #3
10007396:	e7e4      	b.n	10007362 <vQueueAddToRegistry+0xc6>
10007398:	6ada      	ldr	r2, [r3, #44]	@ 0x2c
1000739a:	4290      	cmp	r0, r2
1000739c:	d01f      	beq.n	100073de <vQueueAddToRegistry+0x142>
1000739e:	4a19      	ldr	r2, [pc, #100]	@ (10007404 <vQueueAddToRegistry+0x168>)
100073a0:	e7d3      	b.n	1000734a <vQueueAddToRegistry+0xae>
100073a2:	6b5a      	ldr	r2, [r3, #52]	@ 0x34
100073a4:	4290      	cmp	r0, r2
100073a6:	d01c      	beq.n	100073e2 <vQueueAddToRegistry+0x146>
100073a8:	4a17      	ldr	r2, [pc, #92]	@ (10007408 <vQueueAddToRegistry+0x16c>)
100073aa:	e7d1      	b.n	10007350 <vQueueAddToRegistry+0xb4>
100073ac:	6bda      	ldr	r2, [r3, #60]	@ 0x3c
100073ae:	4290      	cmp	r0, r2
100073b0:	d019      	beq.n	100073e6 <vQueueAddToRegistry+0x14a>
100073b2:	4a16      	ldr	r2, [pc, #88]	@ (1000740c <vQueueAddToRegistry+0x170>)
100073b4:	e7cf      	b.n	10007356 <vQueueAddToRegistry+0xba>
100073b6:	6c5a      	ldr	r2, [r3, #68]	@ 0x44
100073b8:	4290      	cmp	r0, r2
100073ba:	d016      	beq.n	100073ea <vQueueAddToRegistry+0x14e>
100073bc:	4a14      	ldr	r2, [pc, #80]	@ (10007410 <vQueueAddToRegistry+0x174>)
100073be:	e7cd      	b.n	1000735c <vQueueAddToRegistry+0xc0>
100073c0:	2200      	movs	r2, #0
100073c2:	eb03 02c2 	add.w	r2, r3, r2, lsl #3
100073c6:	e9c2 1000 	strd	r1, r0, [r2]
100073ca:	4770      	bx	lr
100073cc:	6cda      	ldr	r2, [r3, #76]	@ 0x4c
100073ce:	4290      	cmp	r0, r2
100073d0:	d00d      	beq.n	100073ee <vQueueAddToRegistry+0x152>
100073d2:	4a10      	ldr	r2, [pc, #64]	@ (10007414 <vQueueAddToRegistry+0x178>)
100073d4:	e7c5      	b.n	10007362 <vQueueAddToRegistry+0xc6>
100073d6:	4a10      	ldr	r2, [pc, #64]	@ (10007418 <vQueueAddToRegistry+0x17c>)
100073d8:	e7c3      	b.n	10007362 <vQueueAddToRegistry+0xc6>
100073da:	2203      	movs	r2, #3
100073dc:	e7d9      	b.n	10007392 <vQueueAddToRegistry+0xf6>
100073de:	2205      	movs	r2, #5
100073e0:	e7d7      	b.n	10007392 <vQueueAddToRegistry+0xf6>
100073e2:	2206      	movs	r2, #6
100073e4:	e7d5      	b.n	10007392 <vQueueAddToRegistry+0xf6>
100073e6:	2207      	movs	r2, #7
100073e8:	e7d3      	b.n	10007392 <vQueueAddToRegistry+0xf6>
100073ea:	2208      	movs	r2, #8
100073ec:	e7d1      	b.n	10007392 <vQueueAddToRegistry+0xf6>
100073ee:	2209      	movs	r2, #9
100073f0:	e7cf      	b.n	10007392 <vQueueAddToRegistry+0xf6>
100073f2:	2202      	movs	r2, #2
100073f4:	e7cd      	b.n	10007392 <vQueueAddToRegistry+0xf6>
100073f6:	2201      	movs	r2, #1
100073f8:	e7cb      	b.n	10007392 <vQueueAddToRegistry+0xf6>
100073fa:	bf00      	nop
100073fc:	200013f0 	.word	0x200013f0
10007400:	20001408 	.word	0x20001408
10007404:	20001410 	.word	0x20001410
10007408:	20001418 	.word	0x20001418
1000740c:	20001420 	.word	0x20001420
10007410:	20001428 	.word	0x20001428
10007414:	20001430 	.word	0x20001430
10007418:	20001438 	.word	0x20001438

1000741c <pcQueueGetName>:
1000741c:	4b1b      	ldr	r3, [pc, #108]	@ (1000748c <pcQueueGetName+0x70>)
1000741e:	685a      	ldr	r2, [r3, #4]
10007420:	4290      	cmp	r0, r2
10007422:	d01e      	beq.n	10007462 <pcQueueGetName+0x46>
10007424:	68da      	ldr	r2, [r3, #12]
10007426:	4290      	cmp	r0, r2
10007428:	d01f      	beq.n	1000746a <pcQueueGetName+0x4e>
1000742a:	695a      	ldr	r2, [r3, #20]
1000742c:	4290      	cmp	r0, r2
1000742e:	d01e      	beq.n	1000746e <pcQueueGetName+0x52>
10007430:	69da      	ldr	r2, [r3, #28]
10007432:	4290      	cmp	r0, r2
10007434:	d01d      	beq.n	10007472 <pcQueueGetName+0x56>
10007436:	6a5a      	ldr	r2, [r3, #36]	@ 0x24
10007438:	4290      	cmp	r0, r2
1000743a:	d01c      	beq.n	10007476 <pcQueueGetName+0x5a>
1000743c:	6ada      	ldr	r2, [r3, #44]	@ 0x2c
1000743e:	4290      	cmp	r0, r2
10007440:	d01b      	beq.n	1000747a <pcQueueGetName+0x5e>
10007442:	6b5a      	ldr	r2, [r3, #52]	@ 0x34
10007444:	4290      	cmp	r0, r2
10007446:	d01a      	beq.n	1000747e <pcQueueGetName+0x62>
10007448:	6bda      	ldr	r2, [r3, #60]	@ 0x3c
1000744a:	4290      	cmp	r0, r2
1000744c:	d019      	beq.n	10007482 <pcQueueGetName+0x66>
1000744e:	6c5a      	ldr	r2, [r3, #68]	@ 0x44
10007450:	4290      	cmp	r0, r2
10007452:	d018      	beq.n	10007486 <pcQueueGetName+0x6a>
10007454:	6cda      	ldr	r2, [r3, #76]	@ 0x4c
10007456:	4282      	cmp	r2, r0
10007458:	bf08      	it	eq
1000745a:	2209      	moveq	r2, #9
1000745c:	d002      	beq.n	10007464 <pcQueueGetName+0x48>
1000745e:	2000      	movs	r0, #0
10007460:	4770      	bx	lr
10007462:	2200      	movs	r2, #0
10007464:	f853 0032 	ldr.w	r0, [r3, r2, lsl #3]
10007468:	4770      	bx	lr
1000746a:	2201      	movs	r2, #1
1000746c:	e7fa      	b.n	10007464 <pcQueueGetName+0x48>
1000746e:	2202      	movs	r2, #2
10007470:	e7f8      	b.n	10007464 <pcQueueGetName+0x48>
10007472:	2203      	movs	r2, #3
10007474:	e7f6      	b.n	10007464 <pcQueueGetName+0x48>
10007476:	2204      	movs	r2, #4
10007478:	e7f4      	b.n	10007464 <pcQueueGetName+0x48>
1000747a:	2205      	movs	r2, #5
1000747c:	e7f2      	b.n	10007464 <pcQueueGetName+0x48>
1000747e:	2206      	movs	r2, #6
10007480:	e7f0      	b.n	10007464 <pcQueueGetName+0x48>
10007482:	2207      	movs	r2, #7
10007484:	e7ee      	b.n	10007464 <pcQueueGetName+0x48>
10007486:	2208      	movs	r2, #8
10007488:	e7ec      	b.n	10007464 <pcQueueGetName+0x48>
1000748a:	bf00      	nop
1000748c:	200013f0 	.word	0x200013f0

10007490 <vQueueUnregisterQueue>:
10007490:	4b1c      	ldr	r3, [pc, #112]	@ (10007504 <vQueueUnregisterQueue+0x74>)
10007492:	685a      	ldr	r2, [r3, #4]
10007494:	4290      	cmp	r0, r2
10007496:	d01d      	beq.n	100074d4 <vQueueUnregisterQueue+0x44>
10007498:	68da      	ldr	r2, [r3, #12]
1000749a:	4290      	cmp	r0, r2
1000749c:	d022      	beq.n	100074e4 <vQueueUnregisterQueue+0x54>
1000749e:	695a      	ldr	r2, [r3, #20]
100074a0:	4290      	cmp	r0, r2
100074a2:	d021      	beq.n	100074e8 <vQueueUnregisterQueue+0x58>
100074a4:	69da      	ldr	r2, [r3, #28]
100074a6:	4290      	cmp	r0, r2
100074a8:	d020      	beq.n	100074ec <vQueueUnregisterQueue+0x5c>
100074aa:	6a5a      	ldr	r2, [r3, #36]	@ 0x24
100074ac:	4290      	cmp	r0, r2
100074ae:	d01f      	beq.n	100074f0 <vQueueUnregisterQueue+0x60>
100074b0:	6ada      	ldr	r2, [r3, #44]	@ 0x2c
100074b2:	4290      	cmp	r0, r2
100074b4:	d01e      	beq.n	100074f4 <vQueueUnregisterQueue+0x64>
100074b6:	6b5a      	ldr	r2, [r3, #52]	@ 0x34
100074b8:	4290      	cmp	r0, r2
100074ba:	d01d      	beq.n	100074f8 <vQueueUnregisterQueue+0x68>
100074bc:	6bda      	ldr	r2, [r3, #60]	@ 0x3c
100074be:	4290      	cmp	r0, r2
100074c0:	d01c      	beq.n	100074fc <vQueueUnregisterQueue+0x6c>
100074c2:	6c5a      	ldr	r2, [r3, #68]	@ 0x44
100074c4:	4290      	cmp	r0, r2
100074c6:	d01b      	beq.n	10007500 <vQueueUnregisterQueue+0x70>
100074c8:	6cda      	ldr	r2, [r3, #76]	@ 0x4c
100074ca:	4282      	cmp	r2, r0
100074cc:	bf08      	it	eq
100074ce:	2209      	moveq	r2, #9
100074d0:	d001      	beq.n	100074d6 <vQueueUnregisterQueue+0x46>
100074d2:	4770      	bx	lr
100074d4:	2200      	movs	r2, #0
100074d6:	2000      	movs	r0, #0
100074d8:	2100      	movs	r1, #0
100074da:	eb03 03c2 	add.w	r3, r3, r2, lsl #3
100074de:	e9c3 0100 	strd	r0, r1, [r3]
100074e2:	4770      	bx	lr
100074e4:	2201      	movs	r2, #1
100074e6:	e7f6      	b.n	100074d6 <vQueueUnregisterQueue+0x46>
100074e8:	2202      	movs	r2, #2
100074ea:	e7f4      	b.n	100074d6 <vQueueUnregisterQueue+0x46>
100074ec:	2203      	movs	r2, #3
100074ee:	e7f2      	b.n	100074d6 <vQueueUnregisterQueue+0x46>
100074f0:	2204      	movs	r2, #4
100074f2:	e7f0      	b.n	100074d6 <vQueueUnregisterQueue+0x46>
100074f4:	2205      	movs	r2, #5
100074f6:	e7ee      	b.n	100074d6 <vQueueUnregisterQueue+0x46>
100074f8:	2206      	movs	r2, #6
100074fa:	e7ec      	b.n	100074d6 <vQueueUnregisterQueue+0x46>
100074fc:	2207      	movs	r2, #7
100074fe:	e7ea      	b.n	100074d6 <vQueueUnregisterQueue+0x46>
10007500:	2208      	movs	r2, #8
10007502:	e7e8      	b.n	100074d6 <vQueueUnregisterQueue+0x46>
10007504:	200013f0 	.word	0x200013f0

10007508 <vQueueWaitForMessageRestricted>:
10007508:	b570      	push	{r4, r5, r6, lr}
1000750a:	4605      	mov	r5, r0
1000750c:	460e      	mov	r6, r1
1000750e:	4614      	mov	r4, r2
10007510:	f7fe fec8 	bl	100062a4 <vPortEnterCritical>
10007514:	f895 3044 	ldrb.w	r3, [r5, #68]	@ 0x44
10007518:	2bff      	cmp	r3, #255	@ 0xff
1000751a:	bf04      	itt	eq
1000751c:	2300      	moveq	r3, #0
1000751e:	f885 3044 	strbeq.w	r3, [r5, #68]	@ 0x44
10007522:	f895 3045 	ldrb.w	r3, [r5, #69]	@ 0x45
10007526:	2bff      	cmp	r3, #255	@ 0xff
10007528:	bf04      	itt	eq
1000752a:	2300      	moveq	r3, #0
1000752c:	f885 3045 	strbeq.w	r3, [r5, #69]	@ 0x45
10007530:	f7fe fec4 	bl	100062bc <vPortExitCritical>
10007534:	6bab      	ldr	r3, [r5, #56]	@ 0x38
10007536:	2b00      	cmp	r3, #0
10007538:	d043      	beq.n	100075c2 <vQueueWaitForMessageRestricted+0xba>
1000753a:	f7fe feb3 	bl	100062a4 <vPortEnterCritical>
1000753e:	f895 3045 	ldrb.w	r3, [r5, #69]	@ 0x45
10007542:	b25c      	sxtb	r4, r3
10007544:	2c00      	cmp	r4, #0
10007546:	dd14      	ble.n	10007572 <vQueueWaitForMessageRestricted+0x6a>
10007548:	f105 0624 	add.w	r6, r5, #36	@ 0x24
1000754c:	e003      	b.n	10007556 <vQueueWaitForMessageRestricted+0x4e>
1000754e:	1e63      	subs	r3, r4, #1
10007550:	b2da      	uxtb	r2, r3
10007552:	b25c      	sxtb	r4, r3
10007554:	b16a      	cbz	r2, 10007572 <vQueueWaitForMessageRestricted+0x6a>
10007556:	6a6b      	ldr	r3, [r5, #36]	@ 0x24
10007558:	b15b      	cbz	r3, 10007572 <vQueueWaitForMessageRestricted+0x6a>
1000755a:	4630      	mov	r0, r6
1000755c:	f7fe f850 	bl	10005600 <xTaskRemoveFromEventList>
10007560:	2800      	cmp	r0, #0
10007562:	d0f4      	beq.n	1000754e <vQueueWaitForMessageRestricted+0x46>
10007564:	f7fe f944 	bl	100057f0 <vTaskMissedYield>
10007568:	1e63      	subs	r3, r4, #1
1000756a:	b2da      	uxtb	r2, r3
1000756c:	b25c      	sxtb	r4, r3
1000756e:	2a00      	cmp	r2, #0
10007570:	d1f1      	bne.n	10007556 <vQueueWaitForMessageRestricted+0x4e>
10007572:	23ff      	movs	r3, #255	@ 0xff
10007574:	f885 3045 	strb.w	r3, [r5, #69]	@ 0x45
10007578:	f7fe fea0 	bl	100062bc <vPortExitCritical>
1000757c:	f7fe fe92 	bl	100062a4 <vPortEnterCritical>
10007580:	f895 3044 	ldrb.w	r3, [r5, #68]	@ 0x44
10007584:	b25c      	sxtb	r4, r3
10007586:	2c00      	cmp	r4, #0
10007588:	dd14      	ble.n	100075b4 <vQueueWaitForMessageRestricted+0xac>
1000758a:	f105 0610 	add.w	r6, r5, #16
1000758e:	e003      	b.n	10007598 <vQueueWaitForMessageRestricted+0x90>
10007590:	1e63      	subs	r3, r4, #1
10007592:	b2da      	uxtb	r2, r3
10007594:	b25c      	sxtb	r4, r3
10007596:	b16a      	cbz	r2, 100075b4 <vQueueWaitForMessageRestricted+0xac>
10007598:	692b      	ldr	r3, [r5, #16]
1000759a:	b15b      	cbz	r3, 100075b4 <vQueueWaitForMessageRestricted+0xac>
1000759c:	4630      	mov	r0, r6
1000759e:	f7fe f82f 	bl	10005600 <xTaskRemoveFromEventList>
100075a2:	2800      	cmp	r0, #0
100075a4:	d0f4      	beq.n	10007590 <vQueueWaitForMessageRestricted+0x88>
100075a6:	f7fe f923 	bl	100057f0 <vTaskMissedYield>
100075aa:	1e63      	subs	r3, r4, #1
100075ac:	b2da      	uxtb	r2, r3
100075ae:	b25c      	sxtb	r4, r3
100075b0:	2a00      	cmp	r2, #0
100075b2:	d1f1      	bne.n	10007598 <vQueueWaitForMessageRestricted+0x90>
100075b4:	23ff      	movs	r3, #255	@ 0xff
100075b6:	f885 3044 	strb.w	r3, [r5, #68]	@ 0x44
100075ba:	e8bd 4070 	ldmia.w	sp!, {r4, r5, r6, lr}
100075be:	f7fe be7d 	b.w	100062bc <vPortExitCritical>
100075c2:	4622      	mov	r2, r4
100075c4:	4631      	mov	r1, r6
100075c6:	f105 0024 	add.w	r0, r5, #36	@ 0x24
100075ca:	f7fd ffaf 	bl	1000552c <vTaskPlaceOnEventListRestricted>
100075ce:	e7b4      	b.n	1000753a <vQueueWaitForMessageRestricted+0x32>

100075d0 <memset>:
100075d0:	b570      	push	{r4, r5, r6, lr}
100075d2:	0786      	lsls	r6, r0, #30
100075d4:	d047      	beq.n	10007666 <memset+0x96>
100075d6:	1e54      	subs	r4, r2, #1
100075d8:	2a00      	cmp	r2, #0
100075da:	d03e      	beq.n	1000765a <memset+0x8a>
100075dc:	b2ca      	uxtb	r2, r1
100075de:	4603      	mov	r3, r0
100075e0:	e001      	b.n	100075e6 <memset+0x16>
100075e2:	3c01      	subs	r4, #1
100075e4:	d339      	bcc.n	1000765a <memset+0x8a>
100075e6:	f803 2b01 	strb.w	r2, [r3], #1
100075ea:	079d      	lsls	r5, r3, #30
100075ec:	d1f9      	bne.n	100075e2 <memset+0x12>
100075ee:	2c03      	cmp	r4, #3
100075f0:	d92c      	bls.n	1000764c <memset+0x7c>
100075f2:	b2cd      	uxtb	r5, r1
100075f4:	2c0f      	cmp	r4, #15
100075f6:	eb05 2505 	add.w	r5, r5, r5, lsl #8
100075fa:	eb05 4505 	add.w	r5, r5, r5, lsl #16
100075fe:	d935      	bls.n	1000766c <memset+0x9c>
10007600:	f1a4 0c10 	sub.w	ip, r4, #16
10007604:	f103 0e10 	add.w	lr, r3, #16
10007608:	461a      	mov	r2, r3
1000760a:	f02c 060f 	bic.w	r6, ip, #15
1000760e:	ea4f 1c1c 	mov.w	ip, ip, lsr #4
10007612:	44b6      	add	lr, r6
10007614:	e9c2 5500 	strd	r5, r5, [r2]
10007618:	e9c2 5502 	strd	r5, r5, [r2, #8]
1000761c:	3210      	adds	r2, #16
1000761e:	4572      	cmp	r2, lr
10007620:	d1f8      	bne.n	10007614 <memset+0x44>
10007622:	f10c 0201 	add.w	r2, ip, #1
10007626:	f014 0f0c 	tst.w	r4, #12
1000762a:	f004 0c0f 	and.w	ip, r4, #15
1000762e:	eb03 1202 	add.w	r2, r3, r2, lsl #4
10007632:	d013      	beq.n	1000765c <memset+0x8c>
10007634:	f1ac 0304 	sub.w	r3, ip, #4
10007638:	f023 0303 	bic.w	r3, r3, #3
1000763c:	3304      	adds	r3, #4
1000763e:	4413      	add	r3, r2
10007640:	f842 5b04 	str.w	r5, [r2], #4
10007644:	4293      	cmp	r3, r2
10007646:	d1fb      	bne.n	10007640 <memset+0x70>
10007648:	f00c 0403 	and.w	r4, ip, #3
1000764c:	b12c      	cbz	r4, 1000765a <memset+0x8a>
1000764e:	b2c9      	uxtb	r1, r1
10007650:	441c      	add	r4, r3
10007652:	f803 1b01 	strb.w	r1, [r3], #1
10007656:	42a3      	cmp	r3, r4
10007658:	d1fb      	bne.n	10007652 <memset+0x82>
1000765a:	bd70      	pop	{r4, r5, r6, pc}
1000765c:	4664      	mov	r4, ip
1000765e:	4613      	mov	r3, r2
10007660:	2c00      	cmp	r4, #0
10007662:	d1f4      	bne.n	1000764e <memset+0x7e>
10007664:	e7f9      	b.n	1000765a <memset+0x8a>
10007666:	4603      	mov	r3, r0
10007668:	4614      	mov	r4, r2
1000766a:	e7c0      	b.n	100075ee <memset+0x1e>
1000766c:	461a      	mov	r2, r3
1000766e:	46a4      	mov	ip, r4
10007670:	e7e0      	b.n	10007634 <memset+0x64>
10007672:	bf00      	nop

10007674 <__errno>:
10007674:	4b01      	ldr	r3, [pc, #4]	@ (1000767c <__errno+0x8>)
10007676:	6818      	ldr	r0, [r3, #0]
10007678:	4770      	bx	lr
1000767a:	bf00      	nop
1000767c:	20000eb0 	.word	0x20000eb0

10007680 <_malloc_r>:
10007680:	f101 030b 	add.w	r3, r1, #11
10007684:	2b16      	cmp	r3, #22
10007686:	e92d 4ff0 	stmdb	sp!, {r4, r5, r6, r7, r8, r9, sl, fp, lr}
1000768a:	4607      	mov	r7, r0
1000768c:	b083      	sub	sp, #12
1000768e:	d823      	bhi.n	100076d8 <_malloc_r+0x58>
10007690:	2910      	cmp	r1, #16
10007692:	f200 80af 	bhi.w	100077f4 <_malloc_r+0x174>
10007696:	f000 fc83 	bl	10007fa0 <__malloc_lock>
1000769a:	2510      	movs	r5, #16
1000769c:	2318      	movs	r3, #24
1000769e:	2002      	movs	r0, #2
100076a0:	4ec2      	ldr	r6, [pc, #776]	@ (100079ac <_malloc_r+0x32c>)
100076a2:	4433      	add	r3, r6
100076a4:	685c      	ldr	r4, [r3, #4]
100076a6:	f1a3 0208 	sub.w	r2, r3, #8
100076aa:	4294      	cmp	r4, r2
100076ac:	f000 8178 	beq.w	100079a0 <_malloc_r+0x320>
100076b0:	6863      	ldr	r3, [r4, #4]
100076b2:	4638      	mov	r0, r7
100076b4:	f023 0303 	bic.w	r3, r3, #3
100076b8:	e9d4 1202 	ldrd	r1, r2, [r4, #8]
100076bc:	4423      	add	r3, r4
100076be:	60ca      	str	r2, [r1, #12]
100076c0:	6091      	str	r1, [r2, #8]
100076c2:	685a      	ldr	r2, [r3, #4]
100076c4:	3408      	adds	r4, #8
100076c6:	f042 0201 	orr.w	r2, r2, #1
100076ca:	605a      	str	r2, [r3, #4]
100076cc:	f000 fc6a 	bl	10007fa4 <__malloc_unlock>
100076d0:	4620      	mov	r0, r4
100076d2:	b003      	add	sp, #12
100076d4:	e8bd 8ff0 	ldmia.w	sp!, {r4, r5, r6, r7, r8, r9, sl, fp, pc}
100076d8:	2b00      	cmp	r3, #0
100076da:	f023 0507 	bic.w	r5, r3, #7
100076de:	f2c0 8089 	blt.w	100077f4 <_malloc_r+0x174>
100076e2:	42a9      	cmp	r1, r5
100076e4:	f200 8086 	bhi.w	100077f4 <_malloc_r+0x174>
100076e8:	f000 fc5a 	bl	10007fa0 <__malloc_lock>
100076ec:	f5b5 7ffc 	cmp.w	r5, #504	@ 0x1f8
100076f0:	f0c0 81b2 	bcc.w	10007a58 <_malloc_r+0x3d8>
100076f4:	0a6b      	lsrs	r3, r5, #9
100076f6:	f000 8081 	beq.w	100077fc <_malloc_r+0x17c>
100076fa:	2b04      	cmp	r3, #4
100076fc:	f200 817c 	bhi.w	100079f8 <_malloc_r+0x378>
10007700:	09ab      	lsrs	r3, r5, #6
10007702:	f103 0039 	add.w	r0, r3, #57	@ 0x39
10007706:	f103 0e38 	add.w	lr, r3, #56	@ 0x38
1000770a:	00c3      	lsls	r3, r0, #3
1000770c:	4ea7      	ldr	r6, [pc, #668]	@ (100079ac <_malloc_r+0x32c>)
1000770e:	4433      	add	r3, r6
10007710:	f1a3 0c08 	sub.w	ip, r3, #8
10007714:	685c      	ldr	r4, [r3, #4]
10007716:	45a4      	cmp	ip, r4
10007718:	d107      	bne.n	1000772a <_malloc_r+0xaa>
1000771a:	e00d      	b.n	10007738 <_malloc_r+0xb8>
1000771c:	2a00      	cmp	r2, #0
1000771e:	68e1      	ldr	r1, [r4, #12]
10007720:	f280 8138 	bge.w	10007994 <_malloc_r+0x314>
10007724:	458c      	cmp	ip, r1
10007726:	460c      	mov	r4, r1
10007728:	d006      	beq.n	10007738 <_malloc_r+0xb8>
1000772a:	6863      	ldr	r3, [r4, #4]
1000772c:	f023 0303 	bic.w	r3, r3, #3
10007730:	1b5a      	subs	r2, r3, r5
10007732:	2a0f      	cmp	r2, #15
10007734:	ddf2      	ble.n	1000771c <_malloc_r+0x9c>
10007736:	4670      	mov	r0, lr
10007738:	f8df 8274 	ldr.w	r8, [pc, #628]	@ 100079b0 <_malloc_r+0x330>
1000773c:	6934      	ldr	r4, [r6, #16]
1000773e:	4544      	cmp	r4, r8
10007740:	f000 80ea 	beq.w	10007918 <_malloc_r+0x298>
10007744:	6863      	ldr	r3, [r4, #4]
10007746:	f023 0c03 	bic.w	ip, r3, #3
1000774a:	ebac 0305 	sub.w	r3, ip, r5
1000774e:	2b0f      	cmp	r3, #15
10007750:	f300 8192 	bgt.w	10007a78 <_malloc_r+0x3f8>
10007754:	2b00      	cmp	r3, #0
10007756:	e9c6 8804 	strd	r8, r8, [r6, #16]
1000775a:	f280 8181 	bge.w	10007a60 <_malloc_r+0x3e0>
1000775e:	f5bc 7f00 	cmp.w	ip, #512	@ 0x200
10007762:	f8d6 e004 	ldr.w	lr, [r6, #4]
10007766:	f080 8127 	bcs.w	100079b8 <_malloc_r+0x338>
1000776a:	ea4f 03dc 	mov.w	r3, ip, lsr #3
1000776e:	2201      	movs	r2, #1
10007770:	ea4f 1c5c 	mov.w	ip, ip, lsr #5
10007774:	3301      	adds	r3, #1
10007776:	fa02 f20c 	lsl.w	r2, r2, ip
1000777a:	f856 1033 	ldr.w	r1, [r6, r3, lsl #3]
1000777e:	ea4e 0e02 	orr.w	lr, lr, r2
10007782:	eb06 02c3 	add.w	r2, r6, r3, lsl #3
10007786:	3a08      	subs	r2, #8
10007788:	f8c6 e004 	str.w	lr, [r6, #4]
1000778c:	e9c4 1202 	strd	r1, r2, [r4, #8]
10007790:	f846 4033 	str.w	r4, [r6, r3, lsl #3]
10007794:	60cc      	str	r4, [r1, #12]
10007796:	1083      	asrs	r3, r0, #2
10007798:	f04f 0c01 	mov.w	ip, #1
1000779c:	fa0c fc03 	lsl.w	ip, ip, r3
100077a0:	45f4      	cmp	ip, lr
100077a2:	d831      	bhi.n	10007808 <_malloc_r+0x188>
100077a4:	ea1c 0f0e 	tst.w	ip, lr
100077a8:	d107      	bne.n	100077ba <_malloc_r+0x13a>
100077aa:	f020 0003 	bic.w	r0, r0, #3
100077ae:	ea4f 0c4c 	mov.w	ip, ip, lsl #1
100077b2:	3004      	adds	r0, #4
100077b4:	ea1c 0f0e 	tst.w	ip, lr
100077b8:	d0f9      	beq.n	100077ae <_malloc_r+0x12e>
100077ba:	eb06 0ac0 	add.w	sl, r6, r0, lsl #3
100077be:	4681      	mov	r9, r0
100077c0:	46d6      	mov	lr, sl
100077c2:	f8de 300c 	ldr.w	r3, [lr, #12]
100077c6:	e00b      	b.n	100077e0 <_malloc_r+0x160>
100077c8:	685a      	ldr	r2, [r3, #4]
100077ca:	461c      	mov	r4, r3
100077cc:	68db      	ldr	r3, [r3, #12]
100077ce:	f022 0203 	bic.w	r2, r2, #3
100077d2:	1b51      	subs	r1, r2, r5
100077d4:	290f      	cmp	r1, #15
100077d6:	f300 811b 	bgt.w	10007a10 <_malloc_r+0x390>
100077da:	2900      	cmp	r1, #0
100077dc:	f280 812f 	bge.w	10007a3e <_malloc_r+0x3be>
100077e0:	459e      	cmp	lr, r3
100077e2:	d1f1      	bne.n	100077c8 <_malloc_r+0x148>
100077e4:	f109 0901 	add.w	r9, r9, #1
100077e8:	f10e 0e08 	add.w	lr, lr, #8
100077ec:	f019 0f03 	tst.w	r9, #3
100077f0:	d1e7      	bne.n	100077c2 <_malloc_r+0x142>
100077f2:	e165      	b.n	10007ac0 <_malloc_r+0x440>
100077f4:	230c      	movs	r3, #12
100077f6:	603b      	str	r3, [r7, #0]
100077f8:	2400      	movs	r4, #0
100077fa:	e769      	b.n	100076d0 <_malloc_r+0x50>
100077fc:	f44f 7300 	mov.w	r3, #512	@ 0x200
10007800:	2040      	movs	r0, #64	@ 0x40
10007802:	f04f 0e3f 	mov.w	lr, #63	@ 0x3f
10007806:	e781      	b.n	1000770c <_malloc_r+0x8c>
10007808:	68b4      	ldr	r4, [r6, #8]
1000780a:	6863      	ldr	r3, [r4, #4]
1000780c:	f023 0903 	bic.w	r9, r3, #3
10007810:	eba9 0305 	sub.w	r3, r9, r5
10007814:	2b0f      	cmp	r3, #15
10007816:	dd02      	ble.n	1000781e <_malloc_r+0x19e>
10007818:	45a9      	cmp	r9, r5
1000781a:	f080 80aa 	bcs.w	10007972 <_malloc_r+0x2f2>
1000781e:	f8df b194 	ldr.w	fp, [pc, #404]	@ 100079b4 <_malloc_r+0x334>
10007822:	eb04 0309 	add.w	r3, r4, r9
10007826:	2008      	movs	r0, #8
10007828:	f8db 2000 	ldr.w	r2, [fp]
1000782c:	9300      	str	r3, [sp, #0]
1000782e:	3210      	adds	r2, #16
10007830:	eb02 0805 	add.w	r8, r2, r5
10007834:	f000 fba6 	bl	10007f84 <sysconf>
10007838:	f8d6 1408 	ldr.w	r1, [r6, #1032]	@ 0x408
1000783c:	4602      	mov	r2, r0
1000783e:	3101      	adds	r1, #1
10007840:	d005      	beq.n	1000784e <_malloc_r+0x1ce>
10007842:	f108 38ff 	add.w	r8, r8, #4294967295	@ 0xffffffff
10007846:	4241      	negs	r1, r0
10007848:	4480      	add	r8, r0
1000784a:	ea01 0808 	and.w	r8, r1, r8
1000784e:	4641      	mov	r1, r8
10007850:	4638      	mov	r0, r7
10007852:	9201      	str	r2, [sp, #4]
10007854:	f000 fbdc 	bl	10008010 <_sbrk_r>
10007858:	f1b0 3fff 	cmp.w	r0, #4294967295	@ 0xffffffff
1000785c:	4682      	mov	sl, r0
1000785e:	9a01      	ldr	r2, [sp, #4]
10007860:	d07c      	beq.n	1000795c <_malloc_r+0x2dc>
10007862:	9b00      	ldr	r3, [sp, #0]
10007864:	4283      	cmp	r3, r0
10007866:	d95a      	bls.n	1000791e <_malloc_r+0x29e>
10007868:	42b4      	cmp	r4, r6
1000786a:	d177      	bne.n	1000795c <_malloc_r+0x2dc>
1000786c:	f8db 0004 	ldr.w	r0, [fp, #4]
10007870:	f102 3cff 	add.w	ip, r2, #4294967295	@ 0xffffffff
10007874:	4440      	add	r0, r8
10007876:	f8cb 0004 	str.w	r0, [fp, #4]
1000787a:	f8d6 1408 	ldr.w	r1, [r6, #1032]	@ 0x408
1000787e:	3101      	adds	r1, #1
10007880:	f000 816b 	beq.w	10007b5a <_malloc_r+0x4da>
10007884:	9b00      	ldr	r3, [sp, #0]
10007886:	ebaa 0103 	sub.w	r1, sl, r3
1000788a:	4401      	add	r1, r0
1000788c:	f8cb 1004 	str.w	r1, [fp, #4]
10007890:	f01a 0307 	ands.w	r3, sl, #7
10007894:	9300      	str	r3, [sp, #0]
10007896:	f000 813d 	beq.w	10007b14 <_malloc_r+0x494>
1000789a:	f1c3 0108 	rsb	r1, r3, #8
1000789e:	4638      	mov	r0, r7
100078a0:	448a      	add	sl, r1
100078a2:	440a      	add	r2, r1
100078a4:	44d0      	add	r8, sl
100078a6:	ea08 010c 	and.w	r1, r8, ip
100078aa:	1a52      	subs	r2, r2, r1
100078ac:	ea02 010c 	and.w	r1, r2, ip
100078b0:	9101      	str	r1, [sp, #4]
100078b2:	f000 fbad 	bl	10008010 <_sbrk_r>
100078b6:	1c42      	adds	r2, r0, #1
100078b8:	f000 8167 	beq.w	10007b8a <_malloc_r+0x50a>
100078bc:	eba0 000a 	sub.w	r0, r0, sl
100078c0:	9901      	ldr	r1, [sp, #4]
100078c2:	eb00 0801 	add.w	r8, r0, r1
100078c6:	f048 0201 	orr.w	r2, r8, #1
100078ca:	f8c6 a008 	str.w	sl, [r6, #8]
100078ce:	42b4      	cmp	r4, r6
100078d0:	f8ca 2004 	str.w	r2, [sl, #4]
100078d4:	f8db 2004 	ldr.w	r2, [fp, #4]
100078d8:	4411      	add	r1, r2
100078da:	f8cb 1004 	str.w	r1, [fp, #4]
100078de:	d031      	beq.n	10007944 <_malloc_r+0x2c4>
100078e0:	f1b9 0f0f 	cmp.w	r9, #15
100078e4:	f240 8105 	bls.w	10007af2 <_malloc_r+0x472>
100078e8:	6860      	ldr	r0, [r4, #4]
100078ea:	f1a9 020c 	sub.w	r2, r9, #12
100078ee:	2305      	movs	r3, #5
100078f0:	f022 0207 	bic.w	r2, r2, #7
100078f4:	f000 0001 	and.w	r0, r0, #1
100078f8:	4310      	orrs	r0, r2
100078fa:	2a0f      	cmp	r2, #15
100078fc:	6060      	str	r0, [r4, #4]
100078fe:	eb04 0002 	add.w	r0, r4, r2
10007902:	e9c0 3301 	strd	r3, r3, [r0, #4]
10007906:	d91d      	bls.n	10007944 <_malloc_r+0x2c4>
10007908:	f104 0108 	add.w	r1, r4, #8
1000790c:	4638      	mov	r0, r7
1000790e:	f000 f9b7 	bl	10007c80 <_free_r>
10007912:	f8db 1004 	ldr.w	r1, [fp, #4]
10007916:	e015      	b.n	10007944 <_malloc_r+0x2c4>
10007918:	f8d6 e004 	ldr.w	lr, [r6, #4]
1000791c:	e73b      	b.n	10007796 <_malloc_r+0x116>
1000791e:	f8db 1004 	ldr.w	r1, [fp, #4]
10007922:	f102 3cff 	add.w	ip, r2, #4294967295	@ 0xffffffff
10007926:	4441      	add	r1, r8
10007928:	4608      	mov	r0, r1
1000792a:	f8cb 1004 	str.w	r1, [fp, #4]
1000792e:	d1a4      	bne.n	1000787a <_malloc_r+0x1fa>
10007930:	9b00      	ldr	r3, [sp, #0]
10007932:	ea13 0f0c 	tst.w	r3, ip
10007936:	d1a0      	bne.n	1000787a <_malloc_r+0x1fa>
10007938:	eb09 0208 	add.w	r2, r9, r8
1000793c:	68b0      	ldr	r0, [r6, #8]
1000793e:	f042 0201 	orr.w	r2, r2, #1
10007942:	6042      	str	r2, [r0, #4]
10007944:	f8db 202c 	ldr.w	r2, [fp, #44]	@ 0x2c
10007948:	428a      	cmp	r2, r1
1000794a:	f8db 2030 	ldr.w	r2, [fp, #48]	@ 0x30
1000794e:	bf38      	it	cc
10007950:	f8cb 102c 	strcc.w	r1, [fp, #44]	@ 0x2c
10007954:	428a      	cmp	r2, r1
10007956:	bf38      	it	cc
10007958:	f8cb 1030 	strcc.w	r1, [fp, #48]	@ 0x30
1000795c:	68b4      	ldr	r4, [r6, #8]
1000795e:	6862      	ldr	r2, [r4, #4]
10007960:	f022 0203 	bic.w	r2, r2, #3
10007964:	1b53      	subs	r3, r2, r5
10007966:	2b0f      	cmp	r3, #15
10007968:	f340 80c6 	ble.w	10007af8 <_malloc_r+0x478>
1000796c:	4295      	cmp	r5, r2
1000796e:	f200 80c3 	bhi.w	10007af8 <_malloc_r+0x478>
10007972:	1962      	adds	r2, r4, r5
10007974:	f045 0501 	orr.w	r5, r5, #1
10007978:	f043 0301 	orr.w	r3, r3, #1
1000797c:	3408      	adds	r4, #8
1000797e:	f844 5c04 	str.w	r5, [r4, #-4]
10007982:	4638      	mov	r0, r7
10007984:	60b2      	str	r2, [r6, #8]
10007986:	6053      	str	r3, [r2, #4]
10007988:	f000 fb0c 	bl	10007fa4 <__malloc_unlock>
1000798c:	4620      	mov	r0, r4
1000798e:	b003      	add	sp, #12
10007990:	e8bd 8ff0 	ldmia.w	sp!, {r4, r5, r6, r7, r8, r9, sl, fp, pc}
10007994:	68a2      	ldr	r2, [r4, #8]
10007996:	4423      	add	r3, r4
10007998:	4638      	mov	r0, r7
1000799a:	60d1      	str	r1, [r2, #12]
1000799c:	608a      	str	r2, [r1, #8]
1000799e:	e690      	b.n	100076c2 <_malloc_r+0x42>
100079a0:	68dc      	ldr	r4, [r3, #12]
100079a2:	42a3      	cmp	r3, r4
100079a4:	f47f ae84 	bne.w	100076b0 <_malloc_r+0x30>
100079a8:	3002      	adds	r0, #2
100079aa:	e6c5      	b.n	10007738 <_malloc_r+0xb8>
100079ac:	20000fd8 	.word	0x20000fd8
100079b0:	20000fe0 	.word	0x20000fe0
100079b4:	200017ec 	.word	0x200017ec
100079b8:	f5bc 6f20 	cmp.w	ip, #2560	@ 0xa00
100079bc:	ea4f 225c 	mov.w	r2, ip, lsr #9
100079c0:	d36c      	bcc.n	10007a9c <_malloc_r+0x41c>
100079c2:	2a14      	cmp	r2, #20
100079c4:	f200 80b6 	bhi.w	10007b34 <_malloc_r+0x4b4>
100079c8:	f102 035c 	add.w	r3, r2, #92	@ 0x5c
100079cc:	325b      	adds	r2, #91	@ 0x5b
100079ce:	00db      	lsls	r3, r3, #3
100079d0:	18f1      	adds	r1, r6, r3
100079d2:	58f3      	ldr	r3, [r6, r3]
100079d4:	3908      	subs	r1, #8
100079d6:	4299      	cmp	r1, r3
100079d8:	d103      	bne.n	100079e2 <_malloc_r+0x362>
100079da:	e091      	b.n	10007b00 <_malloc_r+0x480>
100079dc:	689b      	ldr	r3, [r3, #8]
100079de:	4299      	cmp	r1, r3
100079e0:	d004      	beq.n	100079ec <_malloc_r+0x36c>
100079e2:	685a      	ldr	r2, [r3, #4]
100079e4:	f022 0203 	bic.w	r2, r2, #3
100079e8:	4562      	cmp	r2, ip
100079ea:	d8f7      	bhi.n	100079dc <_malloc_r+0x35c>
100079ec:	68d9      	ldr	r1, [r3, #12]
100079ee:	e9c4 3102 	strd	r3, r1, [r4, #8]
100079f2:	608c      	str	r4, [r1, #8]
100079f4:	60dc      	str	r4, [r3, #12]
100079f6:	e6ce      	b.n	10007796 <_malloc_r+0x116>
100079f8:	2b14      	cmp	r3, #20
100079fa:	d956      	bls.n	10007aaa <_malloc_r+0x42a>
100079fc:	2b54      	cmp	r3, #84	@ 0x54
100079fe:	f200 80a2 	bhi.w	10007b46 <_malloc_r+0x4c6>
10007a02:	0b2b      	lsrs	r3, r5, #12
10007a04:	f103 006f 	add.w	r0, r3, #111	@ 0x6f
10007a08:	f103 0e6e 	add.w	lr, r3, #110	@ 0x6e
10007a0c:	00c3      	lsls	r3, r0, #3
10007a0e:	e67d      	b.n	1000770c <_malloc_r+0x8c>
10007a10:	f8d4 c008 	ldr.w	ip, [r4, #8]
10007a14:	4638      	mov	r0, r7
10007a16:	1967      	adds	r7, r4, r5
10007a18:	f045 0501 	orr.w	r5, r5, #1
10007a1c:	6065      	str	r5, [r4, #4]
10007a1e:	f8cc 300c 	str.w	r3, [ip, #12]
10007a22:	f8c3 c008 	str.w	ip, [r3, #8]
10007a26:	f041 0301 	orr.w	r3, r1, #1
10007a2a:	e9c6 7704 	strd	r7, r7, [r6, #16]
10007a2e:	e9c7 8802 	strd	r8, r8, [r7, #8]
10007a32:	607b      	str	r3, [r7, #4]
10007a34:	50a1      	str	r1, [r4, r2]
10007a36:	3408      	adds	r4, #8
10007a38:	f000 fab4 	bl	10007fa4 <__malloc_unlock>
10007a3c:	e648      	b.n	100076d0 <_malloc_r+0x50>
10007a3e:	4422      	add	r2, r4
10007a40:	4638      	mov	r0, r7
10007a42:	6851      	ldr	r1, [r2, #4]
10007a44:	f041 0101 	orr.w	r1, r1, #1
10007a48:	6051      	str	r1, [r2, #4]
10007a4a:	f854 2f08 	ldr.w	r2, [r4, #8]!
10007a4e:	60d3      	str	r3, [r2, #12]
10007a50:	609a      	str	r2, [r3, #8]
10007a52:	f000 faa7 	bl	10007fa4 <__malloc_unlock>
10007a56:	e63b      	b.n	100076d0 <_malloc_r+0x50>
10007a58:	08e8      	lsrs	r0, r5, #3
10007a5a:	f105 0308 	add.w	r3, r5, #8
10007a5e:	e61f      	b.n	100076a0 <_malloc_r+0x20>
10007a60:	44a4      	add	ip, r4
10007a62:	4638      	mov	r0, r7
10007a64:	3408      	adds	r4, #8
10007a66:	f8dc 3004 	ldr.w	r3, [ip, #4]
10007a6a:	f043 0301 	orr.w	r3, r3, #1
10007a6e:	f8cc 3004 	str.w	r3, [ip, #4]
10007a72:	f000 fa97 	bl	10007fa4 <__malloc_unlock>
10007a76:	e62b      	b.n	100076d0 <_malloc_r+0x50>
10007a78:	1962      	adds	r2, r4, r5
10007a7a:	f043 0101 	orr.w	r1, r3, #1
10007a7e:	f045 0501 	orr.w	r5, r5, #1
10007a82:	4638      	mov	r0, r7
10007a84:	6065      	str	r5, [r4, #4]
10007a86:	e9c6 2204 	strd	r2, r2, [r6, #16]
10007a8a:	e9c2 8802 	strd	r8, r8, [r2, #8]
10007a8e:	6051      	str	r1, [r2, #4]
10007a90:	f844 300c 	str.w	r3, [r4, ip]
10007a94:	3408      	adds	r4, #8
10007a96:	f000 fa85 	bl	10007fa4 <__malloc_unlock>
10007a9a:	e619      	b.n	100076d0 <_malloc_r+0x50>
10007a9c:	ea4f 129c 	mov.w	r2, ip, lsr #6
10007aa0:	f102 0339 	add.w	r3, r2, #57	@ 0x39
10007aa4:	3238      	adds	r2, #56	@ 0x38
10007aa6:	00db      	lsls	r3, r3, #3
10007aa8:	e792      	b.n	100079d0 <_malloc_r+0x350>
10007aaa:	f103 005c 	add.w	r0, r3, #92	@ 0x5c
10007aae:	f103 0e5b 	add.w	lr, r3, #91	@ 0x5b
10007ab2:	00c3      	lsls	r3, r0, #3
10007ab4:	e62a      	b.n	1000770c <_malloc_r+0x8c>
10007ab6:	f85a 3908 	ldr.w	r3, [sl], #-8
10007aba:	4553      	cmp	r3, sl
10007abc:	f040 8082 	bne.w	10007bc4 <_malloc_r+0x544>
10007ac0:	f010 0f03 	tst.w	r0, #3
10007ac4:	f100 30ff 	add.w	r0, r0, #4294967295	@ 0xffffffff
10007ac8:	d1f5      	bne.n	10007ab6 <_malloc_r+0x436>
10007aca:	6873      	ldr	r3, [r6, #4]
10007acc:	ea23 030c 	bic.w	r3, r3, ip
10007ad0:	6073      	str	r3, [r6, #4]
10007ad2:	ea4f 0c4c 	mov.w	ip, ip, lsl #1
10007ad6:	f10c 32ff 	add.w	r2, ip, #4294967295	@ 0xffffffff
10007ada:	429a      	cmp	r2, r3
10007adc:	d304      	bcc.n	10007ae8 <_malloc_r+0x468>
10007ade:	e693      	b.n	10007808 <_malloc_r+0x188>
10007ae0:	ea4f 0c4c 	mov.w	ip, ip, lsl #1
10007ae4:	f109 0904 	add.w	r9, r9, #4
10007ae8:	ea1c 0f03 	tst.w	ip, r3
10007aec:	d0f8      	beq.n	10007ae0 <_malloc_r+0x460>
10007aee:	4648      	mov	r0, r9
10007af0:	e663      	b.n	100077ba <_malloc_r+0x13a>
10007af2:	2301      	movs	r3, #1
10007af4:	f8ca 3004 	str.w	r3, [sl, #4]
10007af8:	4638      	mov	r0, r7
10007afa:	f000 fa53 	bl	10007fa4 <__malloc_unlock>
10007afe:	e67b      	b.n	100077f8 <_malloc_r+0x178>
10007b00:	1092      	asrs	r2, r2, #2
10007b02:	f04f 0c01 	mov.w	ip, #1
10007b06:	fa0c f202 	lsl.w	r2, ip, r2
10007b0a:	ea4e 0e02 	orr.w	lr, lr, r2
10007b0e:	f8c6 e004 	str.w	lr, [r6, #4]
10007b12:	e76c      	b.n	100079ee <_malloc_r+0x36e>
10007b14:	eb0a 0108 	add.w	r1, sl, r8
10007b18:	4638      	mov	r0, r7
10007b1a:	ea01 010c 	and.w	r1, r1, ip
10007b1e:	1a52      	subs	r2, r2, r1
10007b20:	ea02 010c 	and.w	r1, r2, ip
10007b24:	9101      	str	r1, [sp, #4]
10007b26:	f000 fa73 	bl	10008010 <_sbrk_r>
10007b2a:	1c43      	adds	r3, r0, #1
10007b2c:	f47f aec6 	bne.w	100078bc <_malloc_r+0x23c>
10007b30:	9900      	ldr	r1, [sp, #0]
10007b32:	e6c8      	b.n	100078c6 <_malloc_r+0x246>
10007b34:	2a54      	cmp	r2, #84	@ 0x54
10007b36:	d813      	bhi.n	10007b60 <_malloc_r+0x4e0>
10007b38:	ea4f 321c 	mov.w	r2, ip, lsr #12
10007b3c:	f102 036f 	add.w	r3, r2, #111	@ 0x6f
10007b40:	326e      	adds	r2, #110	@ 0x6e
10007b42:	00db      	lsls	r3, r3, #3
10007b44:	e744      	b.n	100079d0 <_malloc_r+0x350>
10007b46:	f5b3 7faa 	cmp.w	r3, #340	@ 0x154
10007b4a:	d813      	bhi.n	10007b74 <_malloc_r+0x4f4>
10007b4c:	0beb      	lsrs	r3, r5, #15
10007b4e:	f103 0078 	add.w	r0, r3, #120	@ 0x78
10007b52:	f103 0e77 	add.w	lr, r3, #119	@ 0x77
10007b56:	00c3      	lsls	r3, r0, #3
10007b58:	e5d8      	b.n	1000770c <_malloc_r+0x8c>
10007b5a:	f8c6 a408 	str.w	sl, [r6, #1032]	@ 0x408
10007b5e:	e697      	b.n	10007890 <_malloc_r+0x210>
10007b60:	f5b2 7faa 	cmp.w	r2, #340	@ 0x154
10007b64:	d819      	bhi.n	10007b9a <_malloc_r+0x51a>
10007b66:	ea4f 32dc 	mov.w	r2, ip, lsr #15
10007b6a:	f102 0378 	add.w	r3, r2, #120	@ 0x78
10007b6e:	3277      	adds	r2, #119	@ 0x77
10007b70:	00db      	lsls	r3, r3, #3
10007b72:	e72d      	b.n	100079d0 <_malloc_r+0x350>
10007b74:	f240 5254 	movw	r2, #1364	@ 0x554
10007b78:	4293      	cmp	r3, r2
10007b7a:	d819      	bhi.n	10007bb0 <_malloc_r+0x530>
10007b7c:	0cab      	lsrs	r3, r5, #18
10007b7e:	f103 007d 	add.w	r0, r3, #125	@ 0x7d
10007b82:	f103 0e7c 	add.w	lr, r3, #124	@ 0x7c
10007b86:	00c3      	lsls	r3, r0, #3
10007b88:	e5c0      	b.n	1000770c <_malloc_r+0x8c>
10007b8a:	9b00      	ldr	r3, [sp, #0]
10007b8c:	2100      	movs	r1, #0
10007b8e:	f1a3 0208 	sub.w	r2, r3, #8
10007b92:	4490      	add	r8, r2
10007b94:	eba8 080a 	sub.w	r8, r8, sl
10007b98:	e695      	b.n	100078c6 <_malloc_r+0x246>
10007b9a:	f240 5354 	movw	r3, #1364	@ 0x554
10007b9e:	429a      	cmp	r2, r3
10007ba0:	d80c      	bhi.n	10007bbc <_malloc_r+0x53c>
10007ba2:	ea4f 429c 	mov.w	r2, ip, lsr #18
10007ba6:	f102 037d 	add.w	r3, r2, #125	@ 0x7d
10007baa:	327c      	adds	r2, #124	@ 0x7c
10007bac:	00db      	lsls	r3, r3, #3
10007bae:	e70f      	b.n	100079d0 <_malloc_r+0x350>
10007bb0:	f44f 737e 	mov.w	r3, #1016	@ 0x3f8
10007bb4:	207f      	movs	r0, #127	@ 0x7f
10007bb6:	f04f 0e7e 	mov.w	lr, #126	@ 0x7e
10007bba:	e5a7      	b.n	1000770c <_malloc_r+0x8c>
10007bbc:	f44f 737e 	mov.w	r3, #1016	@ 0x3f8
10007bc0:	227e      	movs	r2, #126	@ 0x7e
10007bc2:	e705      	b.n	100079d0 <_malloc_r+0x350>
10007bc4:	6873      	ldr	r3, [r6, #4]
10007bc6:	e784      	b.n	10007ad2 <_malloc_r+0x452>

10007bc8 <_malloc_trim_r>:
10007bc8:	e92d 43f8 	stmdb	sp!, {r3, r4, r5, r6, r7, r8, r9, lr}
10007bcc:	4606      	mov	r6, r0
10007bce:	f8df 80ac 	ldr.w	r8, [pc, #172]	@ 10007c7c <_malloc_trim_r+0xb4>
10007bd2:	2008      	movs	r0, #8
10007bd4:	4689      	mov	r9, r1
10007bd6:	f000 f9d5 	bl	10007f84 <sysconf>
10007bda:	4605      	mov	r5, r0
10007bdc:	4630      	mov	r0, r6
10007bde:	f000 f9df 	bl	10007fa0 <__malloc_lock>
10007be2:	f8d8 3008 	ldr.w	r3, [r8, #8]
10007be6:	685f      	ldr	r7, [r3, #4]
10007be8:	f027 0703 	bic.w	r7, r7, #3
10007bec:	f1a7 0411 	sub.w	r4, r7, #17
10007bf0:	eba4 0409 	sub.w	r4, r4, r9
10007bf4:	442c      	add	r4, r5
10007bf6:	fbb4 f4f5 	udiv	r4, r4, r5
10007bfa:	3c01      	subs	r4, #1
10007bfc:	fb05 f404 	mul.w	r4, r5, r4
10007c00:	42a5      	cmp	r5, r4
10007c02:	dc08      	bgt.n	10007c16 <_malloc_trim_r+0x4e>
10007c04:	2100      	movs	r1, #0
10007c06:	4630      	mov	r0, r6
10007c08:	f000 fa02 	bl	10008010 <_sbrk_r>
10007c0c:	f8d8 3008 	ldr.w	r3, [r8, #8]
10007c10:	443b      	add	r3, r7
10007c12:	4298      	cmp	r0, r3
10007c14:	d005      	beq.n	10007c22 <_malloc_trim_r+0x5a>
10007c16:	4630      	mov	r0, r6
10007c18:	f000 f9c4 	bl	10007fa4 <__malloc_unlock>
10007c1c:	2000      	movs	r0, #0
10007c1e:	e8bd 83f8 	ldmia.w	sp!, {r3, r4, r5, r6, r7, r8, r9, pc}
10007c22:	4261      	negs	r1, r4
10007c24:	4630      	mov	r0, r6
10007c26:	f000 f9f3 	bl	10008010 <_sbrk_r>
10007c2a:	3001      	adds	r0, #1
10007c2c:	d00f      	beq.n	10007c4e <_malloc_trim_r+0x86>
10007c2e:	1b3f      	subs	r7, r7, r4
10007c30:	4a10      	ldr	r2, [pc, #64]	@ (10007c74 <_malloc_trim_r+0xac>)
10007c32:	f8d8 3008 	ldr.w	r3, [r8, #8]
10007c36:	4630      	mov	r0, r6
10007c38:	f047 0701 	orr.w	r7, r7, #1
10007c3c:	605f      	str	r7, [r3, #4]
10007c3e:	6813      	ldr	r3, [r2, #0]
10007c40:	1b1b      	subs	r3, r3, r4
10007c42:	6013      	str	r3, [r2, #0]
10007c44:	f000 f9ae 	bl	10007fa4 <__malloc_unlock>
10007c48:	2001      	movs	r0, #1
10007c4a:	e8bd 83f8 	ldmia.w	sp!, {r3, r4, r5, r6, r7, r8, r9, pc}
10007c4e:	2100      	movs	r1, #0
10007c50:	4630      	mov	r0, r6
10007c52:	f000 f9dd 	bl	10008010 <_sbrk_r>
10007c56:	f8d8 2008 	ldr.w	r2, [r8, #8]
10007c5a:	1a83      	subs	r3, r0, r2
10007c5c:	2b0f      	cmp	r3, #15
10007c5e:	ddda      	ble.n	10007c16 <_malloc_trim_r+0x4e>
10007c60:	f043 0301 	orr.w	r3, r3, #1
10007c64:	4903      	ldr	r1, [pc, #12]	@ (10007c74 <_malloc_trim_r+0xac>)
10007c66:	6053      	str	r3, [r2, #4]
10007c68:	4b03      	ldr	r3, [pc, #12]	@ (10007c78 <_malloc_trim_r+0xb0>)
10007c6a:	681b      	ldr	r3, [r3, #0]
10007c6c:	1ac0      	subs	r0, r0, r3
10007c6e:	6008      	str	r0, [r1, #0]
10007c70:	e7d1      	b.n	10007c16 <_malloc_trim_r+0x4e>
10007c72:	bf00      	nop
10007c74:	200017f0 	.word	0x200017f0
10007c78:	200013e0 	.word	0x200013e0
10007c7c:	20000fd8 	.word	0x20000fd8

10007c80 <_free_r>:
10007c80:	2900      	cmp	r1, #0
10007c82:	d07c      	beq.n	10007d7e <_free_r+0xfe>
10007c84:	e92d 41f0 	stmdb	sp!, {r4, r5, r6, r7, r8, lr}
10007c88:	460c      	mov	r4, r1
10007c8a:	4680      	mov	r8, r0
10007c8c:	f000 f988 	bl	10007fa0 <__malloc_lock>
10007c90:	4f76      	ldr	r7, [pc, #472]	@ (10007e6c <_free_r+0x1ec>)
10007c92:	f854 3c04 	ldr.w	r3, [r4, #-4]
10007c96:	f1a4 0508 	sub.w	r5, r4, #8
10007c9a:	68be      	ldr	r6, [r7, #8]
10007c9c:	f023 0101 	bic.w	r1, r3, #1
10007ca0:	1868      	adds	r0, r5, r1
10007ca2:	6842      	ldr	r2, [r0, #4]
10007ca4:	4286      	cmp	r6, r0
10007ca6:	f022 0203 	bic.w	r2, r2, #3
10007caa:	f000 8083 	beq.w	10007db4 <_free_r+0x134>
10007cae:	07de      	lsls	r6, r3, #31
10007cb0:	eb00 0c02 	add.w	ip, r0, r2
10007cb4:	6042      	str	r2, [r0, #4]
10007cb6:	d433      	bmi.n	10007d20 <_free_r+0xa0>
10007cb8:	f854 4c08 	ldr.w	r4, [r4, #-8]
10007cbc:	f8dc 3004 	ldr.w	r3, [ip, #4]
10007cc0:	f107 0c08 	add.w	ip, r7, #8
10007cc4:	1b2d      	subs	r5, r5, r4
10007cc6:	4421      	add	r1, r4
10007cc8:	f003 0301 	and.w	r3, r3, #1
10007ccc:	68ac      	ldr	r4, [r5, #8]
10007cce:	4564      	cmp	r4, ip
10007cd0:	d064      	beq.n	10007d9c <_free_r+0x11c>
10007cd2:	f8d5 e00c 	ldr.w	lr, [r5, #12]
10007cd6:	f8c4 e00c 	str.w	lr, [r4, #12]
10007cda:	f8ce 4008 	str.w	r4, [lr, #8]
10007cde:	2b00      	cmp	r3, #0
10007ce0:	f000 8081 	beq.w	10007de6 <_free_r+0x166>
10007ce4:	f041 0301 	orr.w	r3, r1, #1
10007ce8:	606b      	str	r3, [r5, #4]
10007cea:	6001      	str	r1, [r0, #0]
10007cec:	f5b1 7f00 	cmp.w	r1, #512	@ 0x200
10007cf0:	d222      	bcs.n	10007d38 <_free_r+0xb8>
10007cf2:	08cb      	lsrs	r3, r1, #3
10007cf4:	2201      	movs	r2, #1
10007cf6:	0949      	lsrs	r1, r1, #5
10007cf8:	3301      	adds	r3, #1
10007cfa:	408a      	lsls	r2, r1
10007cfc:	6879      	ldr	r1, [r7, #4]
10007cfe:	430a      	orrs	r2, r1
10007d00:	f857 1033 	ldr.w	r1, [r7, r3, lsl #3]
10007d04:	607a      	str	r2, [r7, #4]
10007d06:	eb07 02c3 	add.w	r2, r7, r3, lsl #3
10007d0a:	3a08      	subs	r2, #8
10007d0c:	e9c5 1202 	strd	r1, r2, [r5, #8]
10007d10:	f847 5033 	str.w	r5, [r7, r3, lsl #3]
10007d14:	60cd      	str	r5, [r1, #12]
10007d16:	4640      	mov	r0, r8
10007d18:	e8bd 41f0 	ldmia.w	sp!, {r4, r5, r6, r7, r8, lr}
10007d1c:	f000 b942 	b.w	10007fa4 <__malloc_unlock>
10007d20:	f8dc 3004 	ldr.w	r3, [ip, #4]
10007d24:	07db      	lsls	r3, r3, #31
10007d26:	d52b      	bpl.n	10007d80 <_free_r+0x100>
10007d28:	f041 0301 	orr.w	r3, r1, #1
10007d2c:	f5b1 7f00 	cmp.w	r1, #512	@ 0x200
10007d30:	f844 3c04 	str.w	r3, [r4, #-4]
10007d34:	6001      	str	r1, [r0, #0]
10007d36:	d3dc      	bcc.n	10007cf2 <_free_r+0x72>
10007d38:	f5b1 6f20 	cmp.w	r1, #2560	@ 0xa00
10007d3c:	ea4f 2351 	mov.w	r3, r1, lsr #9
10007d40:	d253      	bcs.n	10007dea <_free_r+0x16a>
10007d42:	098b      	lsrs	r3, r1, #6
10007d44:	f103 0039 	add.w	r0, r3, #57	@ 0x39
10007d48:	f103 0238 	add.w	r2, r3, #56	@ 0x38
10007d4c:	00c3      	lsls	r3, r0, #3
10007d4e:	18f8      	adds	r0, r7, r3
10007d50:	58fb      	ldr	r3, [r7, r3]
10007d52:	3808      	subs	r0, #8
10007d54:	4298      	cmp	r0, r3
10007d56:	d103      	bne.n	10007d60 <_free_r+0xe0>
10007d58:	e061      	b.n	10007e1e <_free_r+0x19e>
10007d5a:	689b      	ldr	r3, [r3, #8]
10007d5c:	4298      	cmp	r0, r3
10007d5e:	d004      	beq.n	10007d6a <_free_r+0xea>
10007d60:	685a      	ldr	r2, [r3, #4]
10007d62:	f022 0203 	bic.w	r2, r2, #3
10007d66:	428a      	cmp	r2, r1
10007d68:	d8f7      	bhi.n	10007d5a <_free_r+0xda>
10007d6a:	68d8      	ldr	r0, [r3, #12]
10007d6c:	e9c5 3002 	strd	r3, r0, [r5, #8]
10007d70:	6085      	str	r5, [r0, #8]
10007d72:	4640      	mov	r0, r8
10007d74:	60dd      	str	r5, [r3, #12]
10007d76:	e8bd 41f0 	ldmia.w	sp!, {r4, r5, r6, r7, r8, lr}
10007d7a:	f000 b913 	b.w	10007fa4 <__malloc_unlock>
10007d7e:	4770      	bx	lr
10007d80:	4411      	add	r1, r2
10007d82:	f107 0c08 	add.w	ip, r7, #8
10007d86:	6883      	ldr	r3, [r0, #8]
10007d88:	4563      	cmp	r3, ip
10007d8a:	d03f      	beq.n	10007e0c <_free_r+0x18c>
10007d8c:	68c2      	ldr	r2, [r0, #12]
10007d8e:	60da      	str	r2, [r3, #12]
10007d90:	6093      	str	r3, [r2, #8]
10007d92:	f041 0301 	orr.w	r3, r1, #1
10007d96:	606b      	str	r3, [r5, #4]
10007d98:	5069      	str	r1, [r5, r1]
10007d9a:	e7a7      	b.n	10007cec <_free_r+0x6c>
10007d9c:	2b00      	cmp	r3, #0
10007d9e:	d15f      	bne.n	10007e60 <_free_r+0x1e0>
10007da0:	440a      	add	r2, r1
10007da2:	e9d0 1302 	ldrd	r1, r3, [r0, #8]
10007da6:	60cb      	str	r3, [r1, #12]
10007da8:	6099      	str	r1, [r3, #8]
10007daa:	f042 0301 	orr.w	r3, r2, #1
10007dae:	606b      	str	r3, [r5, #4]
10007db0:	50aa      	str	r2, [r5, r2]
10007db2:	e7b0      	b.n	10007d16 <_free_r+0x96>
10007db4:	07db      	lsls	r3, r3, #31
10007db6:	440a      	add	r2, r1
10007db8:	d407      	bmi.n	10007dca <_free_r+0x14a>
10007dba:	f854 3c08 	ldr.w	r3, [r4, #-8]
10007dbe:	1aed      	subs	r5, r5, r3
10007dc0:	441a      	add	r2, r3
10007dc2:	e9d5 1302 	ldrd	r1, r3, [r5, #8]
10007dc6:	60cb      	str	r3, [r1, #12]
10007dc8:	6099      	str	r1, [r3, #8]
10007dca:	f042 0301 	orr.w	r3, r2, #1
10007dce:	606b      	str	r3, [r5, #4]
10007dd0:	4b27      	ldr	r3, [pc, #156]	@ (10007e70 <_free_r+0x1f0>)
10007dd2:	60bd      	str	r5, [r7, #8]
10007dd4:	681b      	ldr	r3, [r3, #0]
10007dd6:	4293      	cmp	r3, r2
10007dd8:	d89d      	bhi.n	10007d16 <_free_r+0x96>
10007dda:	4b26      	ldr	r3, [pc, #152]	@ (10007e74 <_free_r+0x1f4>)
10007ddc:	4640      	mov	r0, r8
10007dde:	6819      	ldr	r1, [r3, #0]
10007de0:	f7ff fef2 	bl	10007bc8 <_malloc_trim_r>
10007de4:	e797      	b.n	10007d16 <_free_r+0x96>
10007de6:	4411      	add	r1, r2
10007de8:	e7cd      	b.n	10007d86 <_free_r+0x106>
10007dea:	2b14      	cmp	r3, #20
10007dec:	d908      	bls.n	10007e00 <_free_r+0x180>
10007dee:	2b54      	cmp	r3, #84	@ 0x54
10007df0:	d81d      	bhi.n	10007e2e <_free_r+0x1ae>
10007df2:	0b0b      	lsrs	r3, r1, #12
10007df4:	f103 006f 	add.w	r0, r3, #111	@ 0x6f
10007df8:	f103 026e 	add.w	r2, r3, #110	@ 0x6e
10007dfc:	00c3      	lsls	r3, r0, #3
10007dfe:	e7a6      	b.n	10007d4e <_free_r+0xce>
10007e00:	f103 005c 	add.w	r0, r3, #92	@ 0x5c
10007e04:	f103 025b 	add.w	r2, r3, #91	@ 0x5b
10007e08:	00c3      	lsls	r3, r0, #3
10007e0a:	e7a0      	b.n	10007d4e <_free_r+0xce>
10007e0c:	f041 0301 	orr.w	r3, r1, #1
10007e10:	e9c7 5504 	strd	r5, r5, [r7, #16]
10007e14:	e9c5 cc02 	strd	ip, ip, [r5, #8]
10007e18:	606b      	str	r3, [r5, #4]
10007e1a:	5069      	str	r1, [r5, r1]
10007e1c:	e77b      	b.n	10007d16 <_free_r+0x96>
10007e1e:	2101      	movs	r1, #1
10007e20:	1092      	asrs	r2, r2, #2
10007e22:	fa01 f202 	lsl.w	r2, r1, r2
10007e26:	6879      	ldr	r1, [r7, #4]
10007e28:	430a      	orrs	r2, r1
10007e2a:	607a      	str	r2, [r7, #4]
10007e2c:	e79e      	b.n	10007d6c <_free_r+0xec>
10007e2e:	f5b3 7faa 	cmp.w	r3, #340	@ 0x154
10007e32:	d806      	bhi.n	10007e42 <_free_r+0x1c2>
10007e34:	0bcb      	lsrs	r3, r1, #15
10007e36:	f103 0078 	add.w	r0, r3, #120	@ 0x78
10007e3a:	f103 0277 	add.w	r2, r3, #119	@ 0x77
10007e3e:	00c3      	lsls	r3, r0, #3
10007e40:	e785      	b.n	10007d4e <_free_r+0xce>
10007e42:	f240 5254 	movw	r2, #1364	@ 0x554
10007e46:	4293      	cmp	r3, r2
10007e48:	d806      	bhi.n	10007e58 <_free_r+0x1d8>
10007e4a:	0c8b      	lsrs	r3, r1, #18
10007e4c:	f103 007d 	add.w	r0, r3, #125	@ 0x7d
10007e50:	f103 027c 	add.w	r2, r3, #124	@ 0x7c
10007e54:	00c3      	lsls	r3, r0, #3
10007e56:	e77a      	b.n	10007d4e <_free_r+0xce>
10007e58:	f44f 737e 	mov.w	r3, #1016	@ 0x3f8
10007e5c:	227e      	movs	r2, #126	@ 0x7e
10007e5e:	e776      	b.n	10007d4e <_free_r+0xce>
10007e60:	f041 0301 	orr.w	r3, r1, #1
10007e64:	606b      	str	r3, [r5, #4]
10007e66:	6001      	str	r1, [r0, #0]
10007e68:	e755      	b.n	10007d16 <_free_r+0x96>
10007e6a:	bf00      	nop
10007e6c:	20000fd8 	.word	0x20000fd8
10007e70:	200013e4 	.word	0x200013e4
10007e74:	200017ec 	.word	0x200017ec

10007e78 <malloc>:
10007e78:	4b02      	ldr	r3, [pc, #8]	@ (10007e84 <malloc+0xc>)
10007e7a:	4601      	mov	r1, r0
10007e7c:	6818      	ldr	r0, [r3, #0]
10007e7e:	f7ff bbff 	b.w	10007680 <_malloc_r>
10007e82:	bf00      	nop
10007e84:	20000eb0 	.word	0x20000eb0

10007e88 <free>:
10007e88:	4b02      	ldr	r3, [pc, #8]	@ (10007e94 <free+0xc>)
10007e8a:	4601      	mov	r1, r0
10007e8c:	6818      	ldr	r0, [r3, #0]
10007e8e:	f7ff bef7 	b.w	10007c80 <_free_r>
10007e92:	bf00      	nop
10007e94:	20000eb0 	.word	0x20000eb0

10007e98 <memcpy>:
10007e98:	4684      	mov	ip, r0
10007e9a:	ea41 0300 	orr.w	r3, r1, r0
10007e9e:	f013 0303 	ands.w	r3, r3, #3
10007ea2:	d149      	bne.n	10007f38 <memcpy+0xa0>
10007ea4:	3a40      	subs	r2, #64	@ 0x40
10007ea6:	d323      	bcc.n	10007ef0 <memcpy+0x58>
10007ea8:	680b      	ldr	r3, [r1, #0]
10007eaa:	6003      	str	r3, [r0, #0]
10007eac:	684b      	ldr	r3, [r1, #4]
10007eae:	6043      	str	r3, [r0, #4]
10007eb0:	688b      	ldr	r3, [r1, #8]
10007eb2:	6083      	str	r3, [r0, #8]
10007eb4:	68cb      	ldr	r3, [r1, #12]
10007eb6:	60c3      	str	r3, [r0, #12]
10007eb8:	690b      	ldr	r3, [r1, #16]
10007eba:	6103      	str	r3, [r0, #16]
10007ebc:	694b      	ldr	r3, [r1, #20]
10007ebe:	6143      	str	r3, [r0, #20]
10007ec0:	698b      	ldr	r3, [r1, #24]
10007ec2:	6183      	str	r3, [r0, #24]
10007ec4:	69cb      	ldr	r3, [r1, #28]
10007ec6:	61c3      	str	r3, [r0, #28]
10007ec8:	6a0b      	ldr	r3, [r1, #32]
10007eca:	6203      	str	r3, [r0, #32]
10007ecc:	6a4b      	ldr	r3, [r1, #36]	@ 0x24
10007ece:	6243      	str	r3, [r0, #36]	@ 0x24
10007ed0:	6a8b      	ldr	r3, [r1, #40]	@ 0x28
10007ed2:	6283      	str	r3, [r0, #40]	@ 0x28
10007ed4:	6acb      	ldr	r3, [r1, #44]	@ 0x2c
10007ed6:	62c3      	str	r3, [r0, #44]	@ 0x2c
10007ed8:	6b0b      	ldr	r3, [r1, #48]	@ 0x30
10007eda:	6303      	str	r3, [r0, #48]	@ 0x30
10007edc:	6b4b      	ldr	r3, [r1, #52]	@ 0x34
10007ede:	6343      	str	r3, [r0, #52]	@ 0x34
10007ee0:	6b8b      	ldr	r3, [r1, #56]	@ 0x38
10007ee2:	6383      	str	r3, [r0, #56]	@ 0x38
10007ee4:	6bcb      	ldr	r3, [r1, #60]	@ 0x3c
10007ee6:	63c3      	str	r3, [r0, #60]	@ 0x3c
10007ee8:	3040      	adds	r0, #64	@ 0x40
10007eea:	3140      	adds	r1, #64	@ 0x40
10007eec:	3a40      	subs	r2, #64	@ 0x40
10007eee:	d2db      	bcs.n	10007ea8 <memcpy+0x10>
10007ef0:	3230      	adds	r2, #48	@ 0x30
10007ef2:	d30b      	bcc.n	10007f0c <memcpy+0x74>
10007ef4:	680b      	ldr	r3, [r1, #0]
10007ef6:	6003      	str	r3, [r0, #0]
10007ef8:	684b      	ldr	r3, [r1, #4]
10007efa:	6043      	str	r3, [r0, #4]
10007efc:	688b      	ldr	r3, [r1, #8]
10007efe:	6083      	str	r3, [r0, #8]
10007f00:	68cb      	ldr	r3, [r1, #12]
10007f02:	60c3      	str	r3, [r0, #12]
10007f04:	3010      	adds	r0, #16
10007f06:	3110      	adds	r1, #16
10007f08:	3a10      	subs	r2, #16
10007f0a:	d2f3      	bcs.n	10007ef4 <memcpy+0x5c>
10007f0c:	320c      	adds	r2, #12
10007f0e:	d305      	bcc.n	10007f1c <memcpy+0x84>
10007f10:	f851 3b04 	ldr.w	r3, [r1], #4
10007f14:	f840 3b04 	str.w	r3, [r0], #4
10007f18:	3a04      	subs	r2, #4
10007f1a:	d2f9      	bcs.n	10007f10 <memcpy+0x78>
10007f1c:	3204      	adds	r2, #4
10007f1e:	d008      	beq.n	10007f32 <memcpy+0x9a>
10007f20:	07d2      	lsls	r2, r2, #31
10007f22:	bf1c      	itt	ne
10007f24:	f811 3b01 	ldrbne.w	r3, [r1], #1
10007f28:	f800 3b01 	strbne.w	r3, [r0], #1
10007f2c:	d301      	bcc.n	10007f32 <memcpy+0x9a>
10007f2e:	880b      	ldrh	r3, [r1, #0]
10007f30:	8003      	strh	r3, [r0, #0]
10007f32:	4660      	mov	r0, ip
10007f34:	4770      	bx	lr
10007f36:	bf00      	nop
10007f38:	2a08      	cmp	r2, #8
10007f3a:	d313      	bcc.n	10007f64 <memcpy+0xcc>
10007f3c:	078b      	lsls	r3, r1, #30
10007f3e:	d0b1      	beq.n	10007ea4 <memcpy+0xc>
10007f40:	f010 0303 	ands.w	r3, r0, #3
10007f44:	d0ae      	beq.n	10007ea4 <memcpy+0xc>
10007f46:	f1c3 0304 	rsb	r3, r3, #4
10007f4a:	1ad2      	subs	r2, r2, r3
10007f4c:	07db      	lsls	r3, r3, #31
10007f4e:	bf1c      	itt	ne
10007f50:	f811 3b01 	ldrbne.w	r3, [r1], #1
10007f54:	f800 3b01 	strbne.w	r3, [r0], #1
10007f58:	d3a4      	bcc.n	10007ea4 <memcpy+0xc>
10007f5a:	f831 3b02 	ldrh.w	r3, [r1], #2
10007f5e:	f820 3b02 	strh.w	r3, [r0], #2
10007f62:	e79f      	b.n	10007ea4 <memcpy+0xc>
10007f64:	3a04      	subs	r2, #4
10007f66:	d3d9      	bcc.n	10007f1c <memcpy+0x84>
10007f68:	3a01      	subs	r2, #1
10007f6a:	f811 3b01 	ldrb.w	r3, [r1], #1
10007f6e:	f800 3b01 	strb.w	r3, [r0], #1
10007f72:	d2f9      	bcs.n	10007f68 <memcpy+0xd0>
10007f74:	780b      	ldrb	r3, [r1, #0]
10007f76:	7003      	strb	r3, [r0, #0]
10007f78:	784b      	ldrb	r3, [r1, #1]
10007f7a:	7043      	strb	r3, [r0, #1]
10007f7c:	788b      	ldrb	r3, [r1, #2]
10007f7e:	7083      	strb	r3, [r0, #2]
10007f80:	4660      	mov	r0, ip
10007f82:	4770      	bx	lr

10007f84 <sysconf>:
10007f84:	2808      	cmp	r0, #8
10007f86:	d102      	bne.n	10007f8e <sysconf+0xa>
10007f88:	f44f 5080 	mov.w	r0, #4096	@ 0x1000
10007f8c:	4770      	bx	lr
10007f8e:	b508      	push	{r3, lr}
10007f90:	f7ff fb70 	bl	10007674 <__errno>
10007f94:	2216      	movs	r2, #22
10007f96:	4603      	mov	r3, r0
10007f98:	f04f 30ff 	mov.w	r0, #4294967295	@ 0xffffffff
10007f9c:	601a      	str	r2, [r3, #0]
10007f9e:	bd08      	pop	{r3, pc}

10007fa0 <__malloc_lock>:
10007fa0:	4770      	bx	lr
10007fa2:	bf00      	nop

10007fa4 <__malloc_unlock>:
10007fa4:	4770      	bx	lr
10007fa6:	bf00      	nop

10007fa8 <atexit>:
10007fa8:	2300      	movs	r3, #0
10007faa:	4601      	mov	r1, r0
10007fac:	461a      	mov	r2, r3
10007fae:	4618      	mov	r0, r3
10007fb0:	f000 b854 	b.w	1000805c <__register_exitproc>

10007fb4 <strlen>:
10007fb4:	f020 0103 	bic.w	r1, r0, #3
10007fb8:	f010 0003 	ands.w	r0, r0, #3
10007fbc:	f1c0 0000 	rsb	r0, r0, #0
10007fc0:	f851 3b04 	ldr.w	r3, [r1], #4
10007fc4:	f100 0c04 	add.w	ip, r0, #4
10007fc8:	ea4f 0ccc 	mov.w	ip, ip, lsl #3
10007fcc:	f06f 0200 	mvn.w	r2, #0
10007fd0:	bf1c      	itt	ne
10007fd2:	fa22 f20c 	lsrne.w	r2, r2, ip
10007fd6:	4313      	orrne	r3, r2
10007fd8:	f04f 0c01 	mov.w	ip, #1
10007fdc:	ea4c 2c0c 	orr.w	ip, ip, ip, lsl #8
10007fe0:	ea4c 4c0c 	orr.w	ip, ip, ip, lsl #16
10007fe4:	eba3 020c 	sub.w	r2, r3, ip
10007fe8:	ea22 0203 	bic.w	r2, r2, r3
10007fec:	ea12 12cc 	ands.w	r2, r2, ip, lsl #7
10007ff0:	bf04      	itt	eq
10007ff2:	f851 3b04 	ldreq.w	r3, [r1], #4
10007ff6:	3004      	addeq	r0, #4
10007ff8:	d0f4      	beq.n	10007fe4 <strlen+0x30>
10007ffa:	f1c2 0100 	rsb	r1, r2, #0
10007ffe:	ea02 0201 	and.w	r2, r2, r1
10008002:	fab2 f282 	clz	r2, r2
10008006:	f1c2 021f 	rsb	r2, r2, #31
1000800a:	eb00 00d2 	add.w	r0, r0, r2, lsr #3
1000800e:	4770      	bx	lr

10008010 <_sbrk_r>:
10008010:	b538      	push	{r3, r4, r5, lr}
10008012:	2200      	movs	r2, #0
10008014:	4d06      	ldr	r5, [pc, #24]	@ (10008030 <_sbrk_r+0x20>)
10008016:	4604      	mov	r4, r0
10008018:	4608      	mov	r0, r1
1000801a:	602a      	str	r2, [r5, #0]
1000801c:	f7f9 fcc2 	bl	100019a4 <_sbrk>
10008020:	1c43      	adds	r3, r0, #1
10008022:	d000      	beq.n	10008026 <_sbrk_r+0x16>
10008024:	bd38      	pop	{r3, r4, r5, pc}
10008026:	682b      	ldr	r3, [r5, #0]
10008028:	2b00      	cmp	r3, #0
1000802a:	d0fb      	beq.n	10008024 <_sbrk_r+0x14>
1000802c:	6023      	str	r3, [r4, #0]
1000802e:	bd38      	pop	{r3, r4, r5, pc}
10008030:	2000195c 	.word	0x2000195c

10008034 <__libc_fini_array>:
10008034:	b538      	push	{r3, r4, r5, lr}
10008036:	4d07      	ldr	r5, [pc, #28]	@ (10008054 <__libc_fini_array+0x20>)
10008038:	4c07      	ldr	r4, [pc, #28]	@ (10008058 <__libc_fini_array+0x24>)
1000803a:	1b2c      	subs	r4, r5, r4
1000803c:	10a4      	asrs	r4, r4, #2
1000803e:	d005      	beq.n	1000804c <__libc_fini_array+0x18>
10008040:	3c01      	subs	r4, #1
10008042:	f855 3d04 	ldr.w	r3, [r5, #-4]!
10008046:	4798      	blx	r3
10008048:	2c00      	cmp	r4, #0
1000804a:	d1f9      	bne.n	10008040 <__libc_fini_array+0xc>
1000804c:	e8bd 4038 	ldmia.w	sp!, {r3, r4, r5, lr}
10008050:	f000 b840 	b.w	100080d4 <_fini>
10008054:	1000816c 	.word	0x1000816c
10008058:	1000816c 	.word	0x1000816c

1000805c <__register_exitproc>:
1000805c:	b470      	push	{r4, r5, r6}
1000805e:	4d16      	ldr	r5, [pc, #88]	@ (100080b8 <__register_exitproc+0x5c>)
10008060:	682c      	ldr	r4, [r5, #0]
10008062:	b31c      	cbz	r4, 100080ac <__register_exitproc+0x50>
10008064:	6865      	ldr	r5, [r4, #4]
10008066:	2d1f      	cmp	r5, #31
10008068:	dc23      	bgt.n	100080b2 <__register_exitproc+0x56>
1000806a:	b938      	cbnz	r0, 1000807c <__register_exitproc+0x20>
1000806c:	1c6b      	adds	r3, r5, #1
1000806e:	2000      	movs	r0, #0
10008070:	3502      	adds	r5, #2
10008072:	6063      	str	r3, [r4, #4]
10008074:	f844 1025 	str.w	r1, [r4, r5, lsl #2]
10008078:	bc70      	pop	{r4, r5, r6}
1000807a:	4770      	bx	lr
1000807c:	eb04 0c85 	add.w	ip, r4, r5, lsl #2
10008080:	2802      	cmp	r0, #2
10008082:	f8cc 2088 	str.w	r2, [ip, #136]	@ 0x88
10008086:	f04f 0201 	mov.w	r2, #1
1000808a:	f8d4 6188 	ldr.w	r6, [r4, #392]	@ 0x188
1000808e:	fa02 f205 	lsl.w	r2, r2, r5
10008092:	ea46 0602 	orr.w	r6, r6, r2
10008096:	f8c4 6188 	str.w	r6, [r4, #392]	@ 0x188
1000809a:	f8cc 3108 	str.w	r3, [ip, #264]	@ 0x108
1000809e:	d1e5      	bne.n	1000806c <__register_exitproc+0x10>
100080a0:	f8d4 318c 	ldr.w	r3, [r4, #396]	@ 0x18c
100080a4:	4313      	orrs	r3, r2
100080a6:	f8c4 318c 	str.w	r3, [r4, #396]	@ 0x18c
100080aa:	e7df      	b.n	1000806c <__register_exitproc+0x10>
100080ac:	4c03      	ldr	r4, [pc, #12]	@ (100080bc <__register_exitproc+0x60>)
100080ae:	602c      	str	r4, [r5, #0]
100080b0:	e7d8      	b.n	10008064 <__register_exitproc+0x8>
100080b2:	f04f 30ff 	mov.w	r0, #4294967295	@ 0xffffffff
100080b6:	e7df      	b.n	10008078 <__register_exitproc+0x1c>
100080b8:	20001af0 	.word	0x20001af0
100080bc:	20001960 	.word	0x20001960

100080c0 <register_fini>:
100080c0:	4b02      	ldr	r3, [pc, #8]	@ (100080cc <register_fini+0xc>)
100080c2:	b113      	cbz	r3, 100080ca <register_fini+0xa>
100080c4:	4802      	ldr	r0, [pc, #8]	@ (100080d0 <register_fini+0x10>)
100080c6:	f7ff bf6f 	b.w	10007fa8 <atexit>
100080ca:	4770      	bx	lr
100080cc:	00000000 	.word	0x00000000
100080d0:	10008035 	.word	0x10008035

100080d4 <_fini>:
100080d4:	b5f8      	push	{r3, r4, r5, r6, r7, lr}
100080d6:	bf00      	nop

100080d8 <__mutex_enter_timeout_ms_veneer>:
100080d8:	f85f f000 	ldr.w	pc, [pc]	@ 100080dc <__mutex_enter_timeout_ms_veneer+0x4>
100080dc:	2000023d 	.word	0x2000023d

100080e0 <__hw_endpoint_start_next_buffer_veneer>:
100080e0:	f85f f000 	ldr.w	pc, [pc]	@ 100080e4 <__hw_endpoint_start_next_buffer_veneer+0x4>
100080e4:	20000af9 	.word	0x20000af9

100080e8 <__mutex_exit_veneer>:
100080e8:	f85f f000 	ldr.w	pc, [pc]	@ 100080ec <__mutex_exit_veneer+0x4>
100080ec:	20000275 	.word	0x20000275

100080f0 <__e15_is_critical_frame_period_veneer>:
100080f0:	f85f f000 	ldr.w	pc, [pc]	@ 100080f4 <__e15_is_critical_frame_period_veneer+0x4>
100080f4:	20000a81 	.word	0x20000a81

100080f8 <___hw_endpoint_buffer_control_update32_veneer>:
100080f8:	f85f f000 	ldr.w	pc, [pc]	@ 100080fc <___hw_endpoint_buffer_control_update32_veneer+0x4>
100080fc:	20000ab5 	.word	0x20000ab5

10008100 <__mutex_try_enter_block_until_veneer>:
10008100:	f85f f000 	ldr.w	pc, [pc]	@ 10008104 <__mutex_try_enter_block_until_veneer+0x4>
10008104:	200001d1 	.word	0x200001d1

10008108 <__reset_non_control_endpoints_veneer>:
10008108:	f85f f000 	ldr.w	pc, [pc]	@ 1000810c <__reset_non_control_endpoints_veneer+0x4>
1000810c:	200002b1 	.word	0x200002b1

10008110 <__e15_is_bulkin_ep_veneer>:
10008110:	f85f f000 	ldr.w	pc, [pc]	@ 10008114 <__e15_is_bulkin_ep_veneer+0x4>
10008114:	20000a59 	.word	0x20000a59

10008118 <__mutex_try_enter_veneer>:
10008118:	f85f f000 	ldr.w	pc, [pc]	@ 1000811c <__mutex_try_enter_veneer+0x4>
1000811c:	20000111 	.word	0x20000111

10008120 <__pre_init_runtime_init_bootrom_reset>:
10008120:	10001819                                ....

10008124 <__pre_init_runtime_init_early_resets>:
10008124:	1000178d                                ....

10008128 <__pre_init_runtime_init_usb_power_down>:
10008128:	100017c1                                ....

1000812c <__pre_init_runtime_init_clocks>:
1000812c:	10001865                                e...

10008130 <__pre_init_runtime_init_post_clock_resets>:
10008130:	100017f9                                ....

10008134 <__pre_init_runtime_init_boot_locks_reset>:
10008134:	10001711                                ....

10008138 <__pre_init_runtime_init_spin_locks_reset>:
10008138:	10001841                                A...

1000813c <__pre_init_runtime_init_bootrom_locking_enable>:
1000813c:	100016fd                                ....

10008140 <__pre_init_runtime_init_mutex>:
10008140:	10000b1d                                ....

10008144 <__pre_init_runtime_init_install_ram_vector_table>:
10008144:	10001845                                E...

10008148 <__pre_init_runtime_init_default_alarm_pool>:
10008148:	10000ee1                                ....

1000814c <__pre_init_first_per_core_initializer>:
1000814c:	1000175d                                ]...

10008150 <__pre_init_runtime_init_per_core_bootrom_reset>:
10008150:	1000182d                                -...

10008154 <__pre_init_runtime_init_per_core_enable_coprocessors>:
10008154:	100017dd                                ....

10008158 <__pre_init_spinlock_set_extexclall>:
10008158:	100004fd                                ....

1000815c <__pre_init_runtime_init_per_core_irq_priorities>:
1000815c:	10000525                                %...

10008160 <__init_array_start>:
10008160:	100080c1 	.word	0x100080c1

10008164 <__frame_dummy_init_array_entry>:
10008164:	1000025d 10002419                       ]....$..

Disassembly of section .data:

20000110 <mutex_try_enter>:
20000110:	4603      	mov	r3, r0
20000112:	b500      	push	{lr}
20000114:	6802      	ldr	r2, [r0, #0]
20000116:	f3ef 8c10 	mrs	ip, PRIMASK
2000011a:	b672      	cpsid	i
2000011c:	e8d2 efcf 	ldaexb	lr, [r2]
20000120:	2001      	movs	r0, #1
20000122:	f1be 0f00 	cmp.w	lr, #0
20000126:	d1f9      	bne.n	2000011c <mutex_try_enter+0xc>
20000128:	e8c2 0f4e 	strexb	lr, r0, [r2]
2000012c:	f1be 0f00 	cmp.w	lr, #0
20000130:	d1f4      	bne.n	2000011c <mutex_try_enter+0xc>
20000132:	f3bf 8f5f 	dmb	sy
20000136:	f993 2004 	ldrsb.w	r2, [r3, #4]
2000013a:	2a00      	cmp	r2, #0
2000013c:	db0a      	blt.n	20000154 <mutex_try_enter+0x44>
2000013e:	b101      	cbz	r1, 20000142 <mutex_try_enter+0x32>
20000140:	600a      	str	r2, [r1, #0]
20000142:	2000      	movs	r0, #0
20000144:	2200      	movs	r2, #0
20000146:	681b      	ldr	r3, [r3, #0]
20000148:	e8c3 2f8f 	stlb	r2, [r3]
2000014c:	f38c 8810 	msr	PRIMASK, ip
20000150:	f85d fb04 	ldr.w	pc, [sp], #4
20000154:	f04f 4250 	mov.w	r2, #3489660928	@ 0xd0000000
20000158:	6812      	ldr	r2, [r2, #0]
2000015a:	2001      	movs	r0, #1
2000015c:	711a      	strb	r2, [r3, #4]
2000015e:	e7f1      	b.n	20000144 <mutex_try_enter+0x34>

20000160 <mutex_enter_block_until>:
20000160:	f04f 4150 	mov.w	r1, #3489660928	@ 0xd0000000
20000164:	e92d 41f0 	stmdb	sp!, {r4, r5, r6, r7, r8, lr}
20000168:	2700      	movs	r7, #0
2000016a:	4604      	mov	r4, r0
2000016c:	4616      	mov	r6, r2
2000016e:	461d      	mov	r5, r3
20000170:	f8d1 8000 	ldr.w	r8, [r1]
20000174:	e009      	b.n	2000018a <mutex_enter_block_until+0x2a>
20000176:	6823      	ldr	r3, [r4, #0]
20000178:	e8c3 7f8f 	stlb	r7, [r3]
2000017c:	f38c 8810 	msr	PRIMASK, ip
20000180:	4630      	mov	r0, r6
20000182:	4629      	mov	r1, r5
20000184:	f000 fe20 	bl	20000dc8 <__best_effort_wfe_or_timeout_veneer>
20000188:	b9f0      	cbnz	r0, 200001c8 <mutex_enter_block_until+0x68>
2000018a:	6821      	ldr	r1, [r4, #0]
2000018c:	f3ef 8c10 	mrs	ip, PRIMASK
20000190:	b672      	cpsid	i
20000192:	e8d1 2fcf 	ldaexb	r2, [r1]
20000196:	2301      	movs	r3, #1
20000198:	2a00      	cmp	r2, #0
2000019a:	d1fa      	bne.n	20000192 <mutex_enter_block_until+0x32>
2000019c:	e8c1 3f42 	strexb	r2, r3, [r1]
200001a0:	2a00      	cmp	r2, #0
200001a2:	d1f6      	bne.n	20000192 <mutex_enter_block_until+0x32>
200001a4:	f3bf 8f5f 	dmb	sy
200001a8:	f994 e004 	ldrsb.w	lr, [r4, #4]
200001ac:	f1be 0f00 	cmp.w	lr, #0
200001b0:	dae1      	bge.n	20000176 <mutex_enter_block_until+0x16>
200001b2:	2300      	movs	r3, #0
200001b4:	6822      	ldr	r2, [r4, #0]
200001b6:	f884 8004 	strb.w	r8, [r4, #4]
200001ba:	e8c2 3f8f 	stlb	r3, [r2]
200001be:	f38c 8810 	msr	PRIMASK, ip
200001c2:	2001      	movs	r0, #1
200001c4:	e8bd 81f0 	ldmia.w	sp!, {r4, r5, r6, r7, r8, pc}
200001c8:	2000      	movs	r0, #0
200001ca:	e8bd 81f0 	ldmia.w	sp!, {r4, r5, r6, r7, r8, pc}
200001ce:	bf00      	nop

200001d0 <mutex_try_enter_block_until>:
200001d0:	b530      	push	{r4, r5, lr}
200001d2:	4601      	mov	r1, r0
200001d4:	6804      	ldr	r4, [r0, #0]
200001d6:	f3ef 8c10 	mrs	ip, PRIMASK
200001da:	b672      	cpsid	i
200001dc:	e8d4 efcf 	ldaexb	lr, [r4]
200001e0:	2501      	movs	r5, #1
200001e2:	f1be 0f00 	cmp.w	lr, #0
200001e6:	d1f9      	bne.n	200001dc <mutex_try_enter_block_until+0xc>
200001e8:	e8c4 5f4e 	strexb	lr, r5, [r4]
200001ec:	f1be 0f00 	cmp.w	lr, #0
200001f0:	d1f4      	bne.n	200001dc <mutex_try_enter_block_until+0xc>
200001f2:	f3bf 8f5f 	dmb	sy
200001f6:	f990 4004 	ldrsb.w	r4, [r0, #4]
200001fa:	2c00      	cmp	r4, #0
200001fc:	db11      	blt.n	20000222 <mutex_try_enter_block_until+0x52>
200001fe:	2100      	movs	r1, #0
20000200:	6805      	ldr	r5, [r0, #0]
20000202:	e8c5 1f8f 	stlb	r1, [r5]
20000206:	f38c 8810 	msr	PRIMASK, ip
2000020a:	f04f 4c50 	mov.w	ip, #3489660928	@ 0xd0000000
2000020e:	f99c c000 	ldrsb.w	ip, [ip]
20000212:	45a4      	cmp	ip, r4
20000214:	d101      	bne.n	2000021a <mutex_try_enter_block_until+0x4a>
20000216:	4608      	mov	r0, r1
20000218:	bd30      	pop	{r4, r5, pc}
2000021a:	e8bd 4030 	ldmia.w	sp!, {r4, r5, lr}
2000021e:	f7ff bf9f 	b.w	20000160 <mutex_enter_block_until>
20000222:	f04f 4050 	mov.w	r0, #3489660928	@ 0xd0000000
20000226:	6800      	ldr	r0, [r0, #0]
20000228:	2300      	movs	r3, #0
2000022a:	680a      	ldr	r2, [r1, #0]
2000022c:	7108      	strb	r0, [r1, #4]
2000022e:	e8c2 3f8f 	stlb	r3, [r2]
20000232:	f38c 8810 	msr	PRIMASK, ip
20000236:	2001      	movs	r0, #1
20000238:	bd30      	pop	{r4, r5, pc}
2000023a:	bf00      	nop

2000023c <mutex_enter_timeout_ms>:
2000023c:	b570      	push	{r4, r5, r6, lr}
2000023e:	4605      	mov	r5, r0
20000240:	460c      	mov	r4, r1
20000242:	f000 fdd1 	bl	20000de8 <__time_us_64_veneer>
20000246:	4602      	mov	r2, r0
20000248:	460b      	mov	r3, r1
2000024a:	f44f 707a 	mov.w	r0, #1000	@ 0x3e8
2000024e:	f04f 3eff 	mov.w	lr, #4294967295	@ 0xffffffff
20000252:	f06f 4c00 	mvn.w	ip, #2147483648	@ 0x80000000
20000256:	fbe4 2300 	umlal	r2, r3, r4, r0
2000025a:	4596      	cmp	lr, r2
2000025c:	eb7c 0103 	sbcs.w	r1, ip, r3
20000260:	bf38      	it	cc
20000262:	4672      	movcc	r2, lr
20000264:	4628      	mov	r0, r5
20000266:	e8bd 4070 	ldmia.w	sp!, {r4, r5, r6, lr}
2000026a:	bf38      	it	cc
2000026c:	4663      	movcc	r3, ip
2000026e:	f7ff bf77 	b.w	20000160 <mutex_enter_block_until>
20000272:	bf00      	nop

20000274 <mutex_exit>:
20000274:	6803      	ldr	r3, [r0, #0]
20000276:	f3ef 8210 	mrs	r2, PRIMASK
2000027a:	b672      	cpsid	i
2000027c:	e8d3 cfcf 	ldaexb	ip, [r3]
20000280:	2101      	movs	r1, #1
20000282:	f1bc 0f00 	cmp.w	ip, #0
20000286:	d1f9      	bne.n	2000027c <mutex_exit+0x8>
20000288:	e8c3 1f4c 	strexb	ip, r1, [r3]
2000028c:	f1bc 0f00 	cmp.w	ip, #0
20000290:	d1f4      	bne.n	2000027c <mutex_exit+0x8>
20000292:	f3bf 8f5f 	dmb	sy
20000296:	f04f 0cff 	mov.w	ip, #255	@ 0xff
2000029a:	2300      	movs	r3, #0
2000029c:	6801      	ldr	r1, [r0, #0]
2000029e:	f880 c004 	strb.w	ip, [r0, #4]
200002a2:	e8c1 3f8f 	stlb	r3, [r1]
200002a6:	f382 8810 	msr	PRIMASK, r2
200002aa:	bf40      	sev
200002ac:	4770      	bx	lr
200002ae:	bf00      	nop

200002b0 <reset_non_control_endpoints>:
200002b0:	2100      	movs	r1, #0
200002b2:	b508      	push	{r3, lr}
200002b4:	4b13      	ldr	r3, [pc, #76]	@ (20000304 <reset_non_control_endpoints+0x54>)
200002b6:	f44f 7270 	mov.w	r2, #960	@ 0x3c0
200002ba:	6099      	str	r1, [r3, #8]
200002bc:	4812      	ldr	r0, [pc, #72]	@ (20000308 <reset_non_control_endpoints+0x58>)
200002be:	60d9      	str	r1, [r3, #12]
200002c0:	6119      	str	r1, [r3, #16]
200002c2:	6159      	str	r1, [r3, #20]
200002c4:	6199      	str	r1, [r3, #24]
200002c6:	61d9      	str	r1, [r3, #28]
200002c8:	6219      	str	r1, [r3, #32]
200002ca:	6259      	str	r1, [r3, #36]	@ 0x24
200002cc:	6299      	str	r1, [r3, #40]	@ 0x28
200002ce:	62d9      	str	r1, [r3, #44]	@ 0x2c
200002d0:	6319      	str	r1, [r3, #48]	@ 0x30
200002d2:	6359      	str	r1, [r3, #52]	@ 0x34
200002d4:	6399      	str	r1, [r3, #56]	@ 0x38
200002d6:	63d9      	str	r1, [r3, #60]	@ 0x3c
200002d8:	6419      	str	r1, [r3, #64]	@ 0x40
200002da:	6459      	str	r1, [r3, #68]	@ 0x44
200002dc:	6499      	str	r1, [r3, #72]	@ 0x48
200002de:	64d9      	str	r1, [r3, #76]	@ 0x4c
200002e0:	6519      	str	r1, [r3, #80]	@ 0x50
200002e2:	6559      	str	r1, [r3, #84]	@ 0x54
200002e4:	6599      	str	r1, [r3, #88]	@ 0x58
200002e6:	65d9      	str	r1, [r3, #92]	@ 0x5c
200002e8:	6619      	str	r1, [r3, #96]	@ 0x60
200002ea:	6659      	str	r1, [r3, #100]	@ 0x64
200002ec:	6699      	str	r1, [r3, #104]	@ 0x68
200002ee:	66d9      	str	r1, [r3, #108]	@ 0x6c
200002f0:	6719      	str	r1, [r3, #112]	@ 0x70
200002f2:	6759      	str	r1, [r3, #116]	@ 0x74
200002f4:	6799      	str	r1, [r3, #120]	@ 0x78
200002f6:	67d9      	str	r1, [r3, #124]	@ 0x7c
200002f8:	f000 fd6a 	bl	20000dd0 <__memset_veneer>
200002fc:	4b03      	ldr	r3, [pc, #12]	@ (2000030c <reset_non_control_endpoints+0x5c>)
200002fe:	4a04      	ldr	r2, [pc, #16]	@ (20000310 <reset_non_control_endpoints+0x60>)
20000300:	601a      	str	r2, [r3, #0]
20000302:	bd08      	pop	{r3, pc}
20000304:	50100000 	.word	0x50100000
20000308:	20002098 	.word	0x20002098
2000030c:	20002460 	.word	0x20002460
20000310:	50100180 	.word	0x50100180

20000314 <hw_handle_buff_status>:
20000314:	e92d 4ff0 	stmdb	sp!, {r4, r5, r6, r7, r8, r9, sl, fp, lr}
20000318:	4b20      	ldr	r3, [pc, #128]	@ (2000039c <hw_handle_buff_status+0x88>)
2000031a:	b085      	sub	sp, #20
2000031c:	6d9e      	ldr	r6, [r3, #88]	@ 0x58
2000031e:	b30e      	cbz	r6, 20000364 <hw_handle_buff_status+0x50>
20000320:	2400      	movs	r4, #0
20000322:	2501      	movs	r5, #1
20000324:	4f1e      	ldr	r7, [pc, #120]	@ (200003a0 <hw_handle_buff_status+0x8c>)
20000326:	e001      	b.n	2000032c <hw_handle_buff_status+0x18>
20000328:	2c20      	cmp	r4, #32
2000032a:	d01b      	beq.n	20000364 <hw_handle_buff_status+0x50>
2000032c:	ea06 0305 	and.w	r3, r6, r5
20000330:	1c62      	adds	r2, r4, #1
20000332:	4621      	mov	r1, r4
20000334:	46aa      	mov	sl, r5
20000336:	b2d4      	uxtb	r4, r2
20000338:	006d      	lsls	r5, r5, #1
2000033a:	2b00      	cmp	r3, #0
2000033c:	d0f4      	beq.n	20000328 <hw_handle_buff_status+0x14>
2000033e:	2302      	movs	r3, #2
20000340:	f004 0801 	and.w	r8, r4, #1
20000344:	ea4f 0951 	mov.w	r9, r1, lsr #1
20000348:	fb13 8b09 	smlabb	fp, r3, r9, r8
2000034c:	4b15      	ldr	r3, [pc, #84]	@ (200003a4 <hw_handle_buff_status+0x90>)
2000034e:	eb07 1b4b 	add.w	fp, r7, fp, lsl #5
20000352:	4658      	mov	r0, fp
20000354:	f8c3 a058 	str.w	sl, [r3, #88]	@ 0x58
20000358:	f000 fc00 	bl	20000b5c <hw_endpoint_xfer_continue>
2000035c:	b928      	cbnz	r0, 2000036a <hw_handle_buff_status+0x56>
2000035e:	ea36 060a 	bics.w	r6, r6, sl
20000362:	d1e1      	bne.n	20000328 <hw_handle_buff_status+0x14>
20000364:	b005      	add	sp, #20
20000366:	e8bd 8ff0 	ldmia.w	sp!, {r4, r5, r6, r7, r8, r9, sl, fp, pc}
2000036a:	f44f 62e0 	mov.w	r2, #1792	@ 0x700
2000036e:	f8ad 2004 	strh.w	r2, [sp, #4]
20000372:	2200      	movs	r2, #0
20000374:	eb08 0349 	add.w	r3, r8, r9, lsl #1
20000378:	eb07 1343 	add.w	r3, r7, r3, lsl #5
2000037c:	f88d 2009 	strb.w	r2, [sp, #9]
20000380:	789a      	ldrb	r2, [r3, #2]
20000382:	8adb      	ldrh	r3, [r3, #22]
20000384:	a801      	add	r0, sp, #4
20000386:	2101      	movs	r1, #1
20000388:	f88d 2008 	strb.w	r2, [sp, #8]
2000038c:	9303      	str	r3, [sp, #12]
2000038e:	f000 fc03 	bl	20000b98 <dcd_event_handler>
20000392:	4658      	mov	r0, fp
20000394:	f000 fb88 	bl	20000aa8 <hw_endpoint_reset_transfer>
20000398:	e7e1      	b.n	2000035e <hw_handle_buff_status+0x4a>
2000039a:	bf00      	nop
2000039c:	50110000 	.word	0x50110000
200003a0:	20002058 	.word	0x20002058
200003a4:	50113000 	.word	0x50113000

200003a8 <dcd_rp2040_irq>:
200003a8:	e92d 43f0 	stmdb	sp!, {r4, r5, r6, r7, r8, r9, lr}
200003ac:	4bb9      	ldr	r3, [pc, #740]	@ (20000694 <dcd_rp2040_irq+0x2ec>)
200003ae:	b085      	sub	sp, #20
200003b0:	f8d3 5098 	ldr.w	r5, [r3, #152]	@ 0x98
200003b4:	f415 3700 	ands.w	r7, r5, #131072	@ 0x20000
200003b8:	d074      	beq.n	200004a4 <dcd_rp2040_irq+0xfc>
200003ba:	4bb7      	ldr	r3, [pc, #732]	@ (20000698 <dcd_rp2040_irq+0x2f0>)
200003bc:	4cb7      	ldr	r4, [pc, #732]	@ (2000069c <dcd_rp2040_irq+0x2f4>)
200003be:	6a99      	ldr	r1, [r3, #40]	@ 0x28
200003c0:	f894 303b 	ldrb.w	r3, [r4, #59]	@ 0x3b
200003c4:	4ab6      	ldr	r2, [pc, #728]	@ (200006a0 <dcd_rp2040_irq+0x2f8>)
200003c6:	2b02      	cmp	r3, #2
200003c8:	6011      	str	r1, [r2, #0]
200003ca:	f000 80f0 	beq.w	200005ae <dcd_rp2040_irq+0x206>
200003ce:	2600      	movs	r6, #0
200003d0:	f894 307b 	ldrb.w	r3, [r4, #123]	@ 0x7b
200003d4:	2b02      	cmp	r3, #2
200003d6:	f000 81c9 	beq.w	2000076c <dcd_rp2040_irq+0x3c4>
200003da:	f894 30bb 	ldrb.w	r3, [r4, #187]	@ 0xbb
200003de:	2b02      	cmp	r3, #2
200003e0:	f000 81ba 	beq.w	20000758 <dcd_rp2040_irq+0x3b0>
200003e4:	f894 30fb 	ldrb.w	r3, [r4, #251]	@ 0xfb
200003e8:	2b02      	cmp	r3, #2
200003ea:	f000 81ab 	beq.w	20000744 <dcd_rp2040_irq+0x39c>
200003ee:	f894 313b 	ldrb.w	r3, [r4, #315]	@ 0x13b
200003f2:	2b02      	cmp	r3, #2
200003f4:	f000 819b 	beq.w	2000072e <dcd_rp2040_irq+0x386>
200003f8:	f894 317b 	ldrb.w	r3, [r4, #379]	@ 0x17b
200003fc:	2b02      	cmp	r3, #2
200003fe:	f000 818b 	beq.w	20000718 <dcd_rp2040_irq+0x370>
20000402:	f894 31bb 	ldrb.w	r3, [r4, #443]	@ 0x1bb
20000406:	2b02      	cmp	r3, #2
20000408:	f000 817b 	beq.w	20000702 <dcd_rp2040_irq+0x35a>
2000040c:	f894 31fb 	ldrb.w	r3, [r4, #507]	@ 0x1fb
20000410:	2b02      	cmp	r3, #2
20000412:	f000 816b 	beq.w	200006ec <dcd_rp2040_irq+0x344>
20000416:	f894 323b 	ldrb.w	r3, [r4, #571]	@ 0x23b
2000041a:	2b02      	cmp	r3, #2
2000041c:	f000 815a 	beq.w	200006d4 <dcd_rp2040_irq+0x32c>
20000420:	f894 327b 	ldrb.w	r3, [r4, #635]	@ 0x27b
20000424:	2b02      	cmp	r3, #2
20000426:	f000 8149 	beq.w	200006bc <dcd_rp2040_irq+0x314>
2000042a:	f894 32bb 	ldrb.w	r3, [r4, #699]	@ 0x2bb
2000042e:	2b02      	cmp	r3, #2
20000430:	f000 8123 	beq.w	2000067a <dcd_rp2040_irq+0x2d2>
20000434:	f894 32fb 	ldrb.w	r3, [r4, #763]	@ 0x2fb
20000438:	2b02      	cmp	r3, #2
2000043a:	f000 8112 	beq.w	20000662 <dcd_rp2040_irq+0x2ba>
2000043e:	f894 333b 	ldrb.w	r3, [r4, #827]	@ 0x33b
20000442:	2b02      	cmp	r3, #2
20000444:	f000 8101 	beq.w	2000064a <dcd_rp2040_irq+0x2a2>
20000448:	f894 337b 	ldrb.w	r3, [r4, #891]	@ 0x37b
2000044c:	2b02      	cmp	r3, #2
2000044e:	f000 80c0 	beq.w	200005d2 <dcd_rp2040_irq+0x22a>
20000452:	f894 33bb 	ldrb.w	r3, [r4, #955]	@ 0x3bb
20000456:	2b02      	cmp	r3, #2
20000458:	f000 80e3 	beq.w	20000622 <dcd_rp2040_irq+0x27a>
2000045c:	f894 33fb 	ldrb.w	r3, [r4, #1019]	@ 0x3fb
20000460:	2b02      	cmp	r3, #2
20000462:	f000 80cd 	beq.w	20000600 <dcd_rp2040_irq+0x258>
20000466:	b93e      	cbnz	r6, 20000478 <dcd_rp2040_irq+0xd0>
20000468:	4b8e      	ldr	r3, [pc, #568]	@ (200006a4 <dcd_rp2040_irq+0x2fc>)
2000046a:	781b      	ldrb	r3, [r3, #0]
2000046c:	b923      	cbnz	r3, 20000478 <dcd_rp2040_irq+0xd0>
2000046e:	f44f 3200 	mov.w	r2, #131072	@ 0x20000
20000472:	4b8d      	ldr	r3, [pc, #564]	@ (200006a8 <dcd_rp2040_irq+0x300>)
20000474:	f8c3 2090 	str.w	r2, [r3, #144]	@ 0x90
20000478:	f44f 7240 	mov.w	r2, #768	@ 0x300
2000047c:	4b85      	ldr	r3, [pc, #532]	@ (20000694 <dcd_rp2040_irq+0x2ec>)
2000047e:	2101      	movs	r1, #1
20000480:	6c9b      	ldr	r3, [r3, #72]	@ 0x48
20000482:	a801      	add	r0, sp, #4
20000484:	f3c3 030a 	ubfx	r3, r3, #0, #11
20000488:	9302      	str	r3, [sp, #8]
2000048a:	f8ad 2004 	strh.w	r2, [sp, #4]
2000048e:	f000 fb83 	bl	20000b98 <dcd_event_handler>
20000492:	06ee      	lsls	r6, r5, #27
20000494:	f44f 3700 	mov.w	r7, #131072	@ 0x20000
20000498:	4c84      	ldr	r4, [pc, #528]	@ (200006ac <dcd_rp2040_irq+0x304>)
2000049a:	d507      	bpl.n	200004ac <dcd_rp2040_irq+0x104>
2000049c:	f7ff ff3a 	bl	20000314 <hw_handle_buff_status>
200004a0:	4627      	mov	r7, r4
200004a2:	e003      	b.n	200004ac <dcd_rp2040_irq+0x104>
200004a4:	06ee      	lsls	r6, r5, #27
200004a6:	f04f 0410 	mov.w	r4, #16
200004aa:	d4f7      	bmi.n	2000049c <dcd_rp2040_irq+0xf4>
200004ac:	03e8      	lsls	r0, r5, #15
200004ae:	d520      	bpl.n	200004f2 <dcd_rp2040_irq+0x14a>
200004b0:	f04f 0801 	mov.w	r8, #1
200004b4:	4c79      	ldr	r4, [pc, #484]	@ (2000069c <dcd_rp2040_irq+0x2f4>)
200004b6:	f447 3780 	orr.w	r7, r7, #65536	@ 0x10000
200004ba:	f104 0940 	add.w	r9, r4, #64	@ 0x40
200004be:	7ea3      	ldrb	r3, [r4, #26]
200004c0:	f884 8003 	strb.w	r8, [r4, #3]
200004c4:	2b00      	cmp	r3, #0
200004c6:	d153      	bne.n	20000570 <dcd_rp2040_irq+0x1c8>
200004c8:	3420      	adds	r4, #32
200004ca:	45a1      	cmp	r9, r4
200004cc:	d1f7      	bne.n	200004be <dcd_rp2040_irq+0x116>
200004ce:	f44f 62c0 	mov.w	r2, #1536	@ 0x600
200004d2:	4b77      	ldr	r3, [pc, #476]	@ (200006b0 <dcd_rp2040_irq+0x308>)
200004d4:	f8ad 2004 	strh.w	r2, [sp, #4]
200004d8:	e893 0003 	ldmia.w	r3, {r0, r1}
200004dc:	ab04      	add	r3, sp, #16
200004de:	e903 0003 	stmdb	r3, {r0, r1}
200004e2:	2101      	movs	r1, #1
200004e4:	a801      	add	r0, sp, #4
200004e6:	f000 fb57 	bl	20000b98 <dcd_event_handler>
200004ea:	f44f 3200 	mov.w	r2, #131072	@ 0x20000
200004ee:	4b6e      	ldr	r3, [pc, #440]	@ (200006a8 <dcd_rp2040_irq+0x300>)
200004f0:	651a      	str	r2, [r3, #80]	@ 0x50
200004f2:	04e9      	lsls	r1, r5, #19
200004f4:	d426      	bmi.n	20000544 <dcd_rp2040_irq+0x19c>
200004f6:	046a      	lsls	r2, r5, #17
200004f8:	d416      	bmi.n	20000528 <dcd_rp2040_irq+0x180>
200004fa:	042b      	lsls	r3, r5, #16
200004fc:	d405      	bmi.n	2000050a <dcd_rp2040_irq+0x162>
200004fe:	42af      	cmp	r7, r5
20000500:	f040 81ac 	bne.w	2000085c <dcd_rp2040_irq+0x4b4>
20000504:	b005      	add	sp, #20
20000506:	e8bd 83f0 	ldmia.w	sp!, {r4, r5, r6, r7, r8, r9, pc}
2000050a:	f44f 63a0 	mov.w	r3, #1280	@ 0x500
2000050e:	2101      	movs	r1, #1
20000510:	a801      	add	r0, sp, #4
20000512:	f8ad 3004 	strh.w	r3, [sp, #4]
20000516:	f000 fb3f 	bl	20000b98 <dcd_event_handler>
2000051a:	f44f 6200 	mov.w	r2, #2048	@ 0x800
2000051e:	4b62      	ldr	r3, [pc, #392]	@ (200006a8 <dcd_rp2040_irq+0x300>)
20000520:	f447 4700 	orr.w	r7, r7, #32768	@ 0x8000
20000524:	651a      	str	r2, [r3, #80]	@ 0x50
20000526:	e7ea      	b.n	200004fe <dcd_rp2040_irq+0x156>
20000528:	f44f 6380 	mov.w	r3, #1024	@ 0x400
2000052c:	2101      	movs	r1, #1
2000052e:	a801      	add	r0, sp, #4
20000530:	f8ad 3004 	strh.w	r3, [sp, #4]
20000534:	f000 fb30 	bl	20000b98 <dcd_event_handler>
20000538:	2210      	movs	r2, #16
2000053a:	4b5b      	ldr	r3, [pc, #364]	@ (200006a8 <dcd_rp2040_irq+0x300>)
2000053c:	f447 4780 	orr.w	r7, r7, #16384	@ 0x4000
20000540:	651a      	str	r2, [r3, #80]	@ 0x50
20000542:	e7da      	b.n	200004fa <dcd_rp2040_irq+0x152>
20000544:	2400      	movs	r4, #0
20000546:	4b53      	ldr	r3, [pc, #332]	@ (20000694 <dcd_rp2040_irq+0x2ec>)
20000548:	f447 5780 	orr.w	r7, r7, #4096	@ 0x1000
2000054c:	601c      	str	r4, [r3, #0]
2000054e:	f7ff feaf 	bl	200002b0 <reset_non_control_endpoints>
20000552:	f44f 7380 	mov.w	r3, #256	@ 0x100
20000556:	2101      	movs	r1, #1
20000558:	a801      	add	r0, sp, #4
2000055a:	f8ad 3004 	strh.w	r3, [sp, #4]
2000055e:	f88d 4008 	strb.w	r4, [sp, #8]
20000562:	f000 fb19 	bl	20000b98 <dcd_event_handler>
20000566:	f44f 2200 	mov.w	r2, #524288	@ 0x80000
2000056a:	4b4f      	ldr	r3, [pc, #316]	@ (200006a8 <dcd_rp2040_irq+0x300>)
2000056c:	651a      	str	r2, [r3, #80]	@ 0x50
2000056e:	e7c2      	b.n	200004f6 <dcd_rp2040_irq+0x14e>
20000570:	78a3      	ldrb	r3, [r4, #2]
20000572:	4a50      	ldr	r2, [pc, #320]	@ (200006b4 <dcd_rp2040_irq+0x30c>)
20000574:	09de      	lsrs	r6, r3, #7
20000576:	f086 0601 	eor.w	r6, r6, #1
2000057a:	f003 037f 	and.w	r3, r3, #127	@ 0x7f
2000057e:	ea46 0643 	orr.w	r6, r6, r3, lsl #1
20000582:	fa08 f606 	lsl.w	r6, r8, r6
20000586:	6616      	str	r6, [r2, #96]	@ 0x60
20000588:	f5a2 5200 	sub.w	r2, r2, #8192	@ 0x2000
2000058c:	6e53      	ldr	r3, [r2, #100]	@ 0x64
2000058e:	ea36 0303 	bics.w	r3, r6, r3
20000592:	d1fb      	bne.n	2000058c <dcd_rp2040_irq+0x1e4>
20000594:	f44f 5240 	mov.w	r2, #12288	@ 0x3000
20000598:	2100      	movs	r1, #0
2000059a:	4620      	mov	r0, r4
2000059c:	f000 fa8a 	bl	20000ab4 <_hw_endpoint_buffer_control_update32>
200005a0:	4620      	mov	r0, r4
200005a2:	f000 fa81 	bl	20000aa8 <hw_endpoint_reset_transfer>
200005a6:	4b40      	ldr	r3, [pc, #256]	@ (200006a8 <dcd_rp2040_irq+0x300>)
200005a8:	665e      	str	r6, [r3, #100]	@ 0x64
200005aa:	661e      	str	r6, [r3, #96]	@ 0x60
200005ac:	e78c      	b.n	200004c8 <dcd_rp2040_irq+0x120>
200005ae:	f894 603a 	ldrb.w	r6, [r4, #58]	@ 0x3a
200005b2:	2e00      	cmp	r6, #0
200005b4:	f43f af0c 	beq.w	200003d0 <dcd_rp2040_irq+0x28>
200005b8:	f894 303c 	ldrb.w	r3, [r4, #60]	@ 0x3c
200005bc:	2b00      	cmp	r3, #0
200005be:	f43f af07 	beq.w	200003d0 <dcd_rp2040_irq+0x28>
200005c2:	2300      	movs	r3, #0
200005c4:	f104 0020 	add.w	r0, r4, #32
200005c8:	f884 303c 	strb.w	r3, [r4, #60]	@ 0x3c
200005cc:	f000 fa94 	bl	20000af8 <hw_endpoint_start_next_buffer>
200005d0:	e6fe      	b.n	200003d0 <dcd_rp2040_irq+0x28>
200005d2:	f894 737a 	ldrb.w	r7, [r4, #890]	@ 0x37a
200005d6:	2f00      	cmp	r7, #0
200005d8:	f43f af3b 	beq.w	20000452 <dcd_rp2040_irq+0xaa>
200005dc:	f894 337c 	ldrb.w	r3, [r4, #892]	@ 0x37c
200005e0:	2b00      	cmp	r3, #0
200005e2:	f040 8134 	bne.w	2000084e <dcd_rp2040_irq+0x4a6>
200005e6:	f894 33bb 	ldrb.w	r3, [r4, #955]	@ 0x3bb
200005ea:	2b02      	cmp	r3, #2
200005ec:	d123      	bne.n	20000636 <dcd_rp2040_irq+0x28e>
200005ee:	f894 33ba 	ldrb.w	r3, [r4, #954]	@ 0x3ba
200005f2:	b9db      	cbnz	r3, 2000062c <dcd_rp2040_irq+0x284>
200005f4:	f894 33fb 	ldrb.w	r3, [r4, #1019]	@ 0x3fb
200005f8:	2b02      	cmp	r3, #2
200005fa:	f47f af3d 	bne.w	20000478 <dcd_rp2040_irq+0xd0>
200005fe:	463e      	mov	r6, r7
20000600:	f894 33fa 	ldrb.w	r3, [r4, #1018]	@ 0x3fa
20000604:	2b00      	cmp	r3, #0
20000606:	f43f af2e 	beq.w	20000466 <dcd_rp2040_irq+0xbe>
2000060a:	f894 33fc 	ldrb.w	r3, [r4, #1020]	@ 0x3fc
2000060e:	2b00      	cmp	r3, #0
20000610:	f43f af32 	beq.w	20000478 <dcd_rp2040_irq+0xd0>
20000614:	2300      	movs	r3, #0
20000616:	4828      	ldr	r0, [pc, #160]	@ (200006b8 <dcd_rp2040_irq+0x310>)
20000618:	f884 33fc 	strb.w	r3, [r4, #1020]	@ 0x3fc
2000061c:	f000 fa6c 	bl	20000af8 <hw_endpoint_start_next_buffer>
20000620:	e72a      	b.n	20000478 <dcd_rp2040_irq+0xd0>
20000622:	f894 33ba 	ldrb.w	r3, [r4, #954]	@ 0x3ba
20000626:	2b00      	cmp	r3, #0
20000628:	f43f af18 	beq.w	2000045c <dcd_rp2040_irq+0xb4>
2000062c:	f894 33bc 	ldrb.w	r3, [r4, #956]	@ 0x3bc
20000630:	2b00      	cmp	r3, #0
20000632:	f040 80a5 	bne.w	20000780 <dcd_rp2040_irq+0x3d8>
20000636:	f894 33fb 	ldrb.w	r3, [r4, #1019]	@ 0x3fb
2000063a:	2b02      	cmp	r3, #2
2000063c:	f47f af1c 	bne.w	20000478 <dcd_rp2040_irq+0xd0>
20000640:	f894 33fa 	ldrb.w	r3, [r4, #1018]	@ 0x3fa
20000644:	2b00      	cmp	r3, #0
20000646:	d1e0      	bne.n	2000060a <dcd_rp2040_irq+0x262>
20000648:	e716      	b.n	20000478 <dcd_rp2040_irq+0xd0>
2000064a:	f894 733a 	ldrb.w	r7, [r4, #826]	@ 0x33a
2000064e:	2f00      	cmp	r7, #0
20000650:	f43f aefa 	beq.w	20000448 <dcd_rp2040_irq+0xa0>
20000654:	f894 333c 	ldrb.w	r3, [r4, #828]	@ 0x33c
20000658:	2b00      	cmp	r3, #0
2000065a:	f040 80f0 	bne.w	2000083e <dcd_rp2040_irq+0x496>
2000065e:	463e      	mov	r6, r7
20000660:	e6f2      	b.n	20000448 <dcd_rp2040_irq+0xa0>
20000662:	f894 72fa 	ldrb.w	r7, [r4, #762]	@ 0x2fa
20000666:	2f00      	cmp	r7, #0
20000668:	f43f aee9 	beq.w	2000043e <dcd_rp2040_irq+0x96>
2000066c:	f894 32fc 	ldrb.w	r3, [r4, #764]	@ 0x2fc
20000670:	2b00      	cmp	r3, #0
20000672:	f040 80dc 	bne.w	2000082e <dcd_rp2040_irq+0x486>
20000676:	463e      	mov	r6, r7
20000678:	e6e1      	b.n	2000043e <dcd_rp2040_irq+0x96>
2000067a:	f894 72ba 	ldrb.w	r7, [r4, #698]	@ 0x2ba
2000067e:	2f00      	cmp	r7, #0
20000680:	f43f aed8 	beq.w	20000434 <dcd_rp2040_irq+0x8c>
20000684:	f894 32bc 	ldrb.w	r3, [r4, #700]	@ 0x2bc
20000688:	2b00      	cmp	r3, #0
2000068a:	f040 80c8 	bne.w	2000081e <dcd_rp2040_irq+0x476>
2000068e:	463e      	mov	r6, r7
20000690:	e6d0      	b.n	20000434 <dcd_rp2040_irq+0x8c>
20000692:	bf00      	nop
20000694:	50110000 	.word	0x50110000
20000698:	400b0000 	.word	0x400b0000
2000069c:	20002058 	.word	0x20002058
200006a0:	2000204c 	.word	0x2000204c
200006a4:	200024ba 	.word	0x200024ba
200006a8:	50113000 	.word	0x50113000
200006ac:	00020010 	.word	0x00020010
200006b0:	50100000 	.word	0x50100000
200006b4:	50112000 	.word	0x50112000
200006b8:	20002438 	.word	0x20002438
200006bc:	f894 727a 	ldrb.w	r7, [r4, #634]	@ 0x27a
200006c0:	2f00      	cmp	r7, #0
200006c2:	f43f aeb2 	beq.w	2000042a <dcd_rp2040_irq+0x82>
200006c6:	f894 327c 	ldrb.w	r3, [r4, #636]	@ 0x27c
200006ca:	2b00      	cmp	r3, #0
200006cc:	f040 809f 	bne.w	2000080e <dcd_rp2040_irq+0x466>
200006d0:	463e      	mov	r6, r7
200006d2:	e6aa      	b.n	2000042a <dcd_rp2040_irq+0x82>
200006d4:	f894 723a 	ldrb.w	r7, [r4, #570]	@ 0x23a
200006d8:	2f00      	cmp	r7, #0
200006da:	f43f aea1 	beq.w	20000420 <dcd_rp2040_irq+0x78>
200006de:	f894 323c 	ldrb.w	r3, [r4, #572]	@ 0x23c
200006e2:	2b00      	cmp	r3, #0
200006e4:	f040 808b 	bne.w	200007fe <dcd_rp2040_irq+0x456>
200006e8:	463e      	mov	r6, r7
200006ea:	e699      	b.n	20000420 <dcd_rp2040_irq+0x78>
200006ec:	f894 71fa 	ldrb.w	r7, [r4, #506]	@ 0x1fa
200006f0:	2f00      	cmp	r7, #0
200006f2:	f43f ae90 	beq.w	20000416 <dcd_rp2040_irq+0x6e>
200006f6:	f894 31fc 	ldrb.w	r3, [r4, #508]	@ 0x1fc
200006fa:	2b00      	cmp	r3, #0
200006fc:	d177      	bne.n	200007ee <dcd_rp2040_irq+0x446>
200006fe:	463e      	mov	r6, r7
20000700:	e689      	b.n	20000416 <dcd_rp2040_irq+0x6e>
20000702:	f894 71ba 	ldrb.w	r7, [r4, #442]	@ 0x1ba
20000706:	2f00      	cmp	r7, #0
20000708:	f43f ae80 	beq.w	2000040c <dcd_rp2040_irq+0x64>
2000070c:	f894 31bc 	ldrb.w	r3, [r4, #444]	@ 0x1bc
20000710:	2b00      	cmp	r3, #0
20000712:	d164      	bne.n	200007de <dcd_rp2040_irq+0x436>
20000714:	463e      	mov	r6, r7
20000716:	e679      	b.n	2000040c <dcd_rp2040_irq+0x64>
20000718:	f894 717a 	ldrb.w	r7, [r4, #378]	@ 0x17a
2000071c:	2f00      	cmp	r7, #0
2000071e:	f43f ae70 	beq.w	20000402 <dcd_rp2040_irq+0x5a>
20000722:	f894 317c 	ldrb.w	r3, [r4, #380]	@ 0x17c
20000726:	2b00      	cmp	r3, #0
20000728:	d151      	bne.n	200007ce <dcd_rp2040_irq+0x426>
2000072a:	463e      	mov	r6, r7
2000072c:	e669      	b.n	20000402 <dcd_rp2040_irq+0x5a>
2000072e:	f894 713a 	ldrb.w	r7, [r4, #314]	@ 0x13a
20000732:	2f00      	cmp	r7, #0
20000734:	f43f ae60 	beq.w	200003f8 <dcd_rp2040_irq+0x50>
20000738:	f894 313c 	ldrb.w	r3, [r4, #316]	@ 0x13c
2000073c:	2b00      	cmp	r3, #0
2000073e:	d13e      	bne.n	200007be <dcd_rp2040_irq+0x416>
20000740:	463e      	mov	r6, r7
20000742:	e659      	b.n	200003f8 <dcd_rp2040_irq+0x50>
20000744:	f894 70fa 	ldrb.w	r7, [r4, #250]	@ 0xfa
20000748:	2f00      	cmp	r7, #0
2000074a:	f43f ae50 	beq.w	200003ee <dcd_rp2040_irq+0x46>
2000074e:	f894 30fc 	ldrb.w	r3, [r4, #252]	@ 0xfc
20000752:	bb63      	cbnz	r3, 200007ae <dcd_rp2040_irq+0x406>
20000754:	463e      	mov	r6, r7
20000756:	e64a      	b.n	200003ee <dcd_rp2040_irq+0x46>
20000758:	f894 70ba 	ldrb.w	r7, [r4, #186]	@ 0xba
2000075c:	2f00      	cmp	r7, #0
2000075e:	f43f ae41 	beq.w	200003e4 <dcd_rp2040_irq+0x3c>
20000762:	f894 30bc 	ldrb.w	r3, [r4, #188]	@ 0xbc
20000766:	b9d3      	cbnz	r3, 2000079e <dcd_rp2040_irq+0x3f6>
20000768:	463e      	mov	r6, r7
2000076a:	e63b      	b.n	200003e4 <dcd_rp2040_irq+0x3c>
2000076c:	f894 707a 	ldrb.w	r7, [r4, #122]	@ 0x7a
20000770:	2f00      	cmp	r7, #0
20000772:	f43f ae32 	beq.w	200003da <dcd_rp2040_irq+0x32>
20000776:	f894 307c 	ldrb.w	r3, [r4, #124]	@ 0x7c
2000077a:	b943      	cbnz	r3, 2000078e <dcd_rp2040_irq+0x3e6>
2000077c:	463e      	mov	r6, r7
2000077e:	e62c      	b.n	200003da <dcd_rp2040_irq+0x32>
20000780:	2300      	movs	r3, #0
20000782:	4839      	ldr	r0, [pc, #228]	@ (20000868 <dcd_rp2040_irq+0x4c0>)
20000784:	f884 33bc 	strb.w	r3, [r4, #956]	@ 0x3bc
20000788:	f000 f9b6 	bl	20000af8 <hw_endpoint_start_next_buffer>
2000078c:	e753      	b.n	20000636 <dcd_rp2040_irq+0x28e>
2000078e:	2300      	movs	r3, #0
20000790:	4836      	ldr	r0, [pc, #216]	@ (2000086c <dcd_rp2040_irq+0x4c4>)
20000792:	f884 307c 	strb.w	r3, [r4, #124]	@ 0x7c
20000796:	463e      	mov	r6, r7
20000798:	f000 f9ae 	bl	20000af8 <hw_endpoint_start_next_buffer>
2000079c:	e61d      	b.n	200003da <dcd_rp2040_irq+0x32>
2000079e:	2300      	movs	r3, #0
200007a0:	4833      	ldr	r0, [pc, #204]	@ (20000870 <dcd_rp2040_irq+0x4c8>)
200007a2:	f884 30bc 	strb.w	r3, [r4, #188]	@ 0xbc
200007a6:	463e      	mov	r6, r7
200007a8:	f000 f9a6 	bl	20000af8 <hw_endpoint_start_next_buffer>
200007ac:	e61a      	b.n	200003e4 <dcd_rp2040_irq+0x3c>
200007ae:	2300      	movs	r3, #0
200007b0:	4830      	ldr	r0, [pc, #192]	@ (20000874 <dcd_rp2040_irq+0x4cc>)
200007b2:	f884 30fc 	strb.w	r3, [r4, #252]	@ 0xfc
200007b6:	463e      	mov	r6, r7
200007b8:	f000 f99e 	bl	20000af8 <hw_endpoint_start_next_buffer>
200007bc:	e617      	b.n	200003ee <dcd_rp2040_irq+0x46>
200007be:	2300      	movs	r3, #0
200007c0:	482d      	ldr	r0, [pc, #180]	@ (20000878 <dcd_rp2040_irq+0x4d0>)
200007c2:	f884 313c 	strb.w	r3, [r4, #316]	@ 0x13c
200007c6:	463e      	mov	r6, r7
200007c8:	f000 f996 	bl	20000af8 <hw_endpoint_start_next_buffer>
200007cc:	e614      	b.n	200003f8 <dcd_rp2040_irq+0x50>
200007ce:	2300      	movs	r3, #0
200007d0:	482a      	ldr	r0, [pc, #168]	@ (2000087c <dcd_rp2040_irq+0x4d4>)
200007d2:	f884 317c 	strb.w	r3, [r4, #380]	@ 0x17c
200007d6:	463e      	mov	r6, r7
200007d8:	f000 f98e 	bl	20000af8 <hw_endpoint_start_next_buffer>
200007dc:	e611      	b.n	20000402 <dcd_rp2040_irq+0x5a>
200007de:	2300      	movs	r3, #0
200007e0:	4827      	ldr	r0, [pc, #156]	@ (20000880 <dcd_rp2040_irq+0x4d8>)
200007e2:	f884 31bc 	strb.w	r3, [r4, #444]	@ 0x1bc
200007e6:	463e      	mov	r6, r7
200007e8:	f000 f986 	bl	20000af8 <hw_endpoint_start_next_buffer>
200007ec:	e60e      	b.n	2000040c <dcd_rp2040_irq+0x64>
200007ee:	2300      	movs	r3, #0
200007f0:	4824      	ldr	r0, [pc, #144]	@ (20000884 <dcd_rp2040_irq+0x4dc>)
200007f2:	f884 31fc 	strb.w	r3, [r4, #508]	@ 0x1fc
200007f6:	463e      	mov	r6, r7
200007f8:	f000 f97e 	bl	20000af8 <hw_endpoint_start_next_buffer>
200007fc:	e60b      	b.n	20000416 <dcd_rp2040_irq+0x6e>
200007fe:	2300      	movs	r3, #0
20000800:	4821      	ldr	r0, [pc, #132]	@ (20000888 <dcd_rp2040_irq+0x4e0>)
20000802:	f884 323c 	strb.w	r3, [r4, #572]	@ 0x23c
20000806:	463e      	mov	r6, r7
20000808:	f000 f976 	bl	20000af8 <hw_endpoint_start_next_buffer>
2000080c:	e608      	b.n	20000420 <dcd_rp2040_irq+0x78>
2000080e:	2300      	movs	r3, #0
20000810:	481e      	ldr	r0, [pc, #120]	@ (2000088c <dcd_rp2040_irq+0x4e4>)
20000812:	f884 327c 	strb.w	r3, [r4, #636]	@ 0x27c
20000816:	463e      	mov	r6, r7
20000818:	f000 f96e 	bl	20000af8 <hw_endpoint_start_next_buffer>
2000081c:	e605      	b.n	2000042a <dcd_rp2040_irq+0x82>
2000081e:	2300      	movs	r3, #0
20000820:	481b      	ldr	r0, [pc, #108]	@ (20000890 <dcd_rp2040_irq+0x4e8>)
20000822:	f884 32bc 	strb.w	r3, [r4, #700]	@ 0x2bc
20000826:	463e      	mov	r6, r7
20000828:	f000 f966 	bl	20000af8 <hw_endpoint_start_next_buffer>
2000082c:	e602      	b.n	20000434 <dcd_rp2040_irq+0x8c>
2000082e:	2300      	movs	r3, #0
20000830:	4818      	ldr	r0, [pc, #96]	@ (20000894 <dcd_rp2040_irq+0x4ec>)
20000832:	f884 32fc 	strb.w	r3, [r4, #764]	@ 0x2fc
20000836:	463e      	mov	r6, r7
20000838:	f000 f95e 	bl	20000af8 <hw_endpoint_start_next_buffer>
2000083c:	e5ff      	b.n	2000043e <dcd_rp2040_irq+0x96>
2000083e:	2300      	movs	r3, #0
20000840:	4815      	ldr	r0, [pc, #84]	@ (20000898 <dcd_rp2040_irq+0x4f0>)
20000842:	f884 333c 	strb.w	r3, [r4, #828]	@ 0x33c
20000846:	463e      	mov	r6, r7
20000848:	f000 f956 	bl	20000af8 <hw_endpoint_start_next_buffer>
2000084c:	e5fc      	b.n	20000448 <dcd_rp2040_irq+0xa0>
2000084e:	2300      	movs	r3, #0
20000850:	4812      	ldr	r0, [pc, #72]	@ (2000089c <dcd_rp2040_irq+0x4f4>)
20000852:	f884 337c 	strb.w	r3, [r4, #892]	@ 0x37c
20000856:	f000 f94f 	bl	20000af8 <hw_endpoint_start_next_buffer>
2000085a:	e6c4      	b.n	200005e6 <dcd_rp2040_irq+0x23e>
2000085c:	4810      	ldr	r0, [pc, #64]	@ (200008a0 <dcd_rp2040_irq+0x4f8>)
2000085e:	ea87 0105 	eor.w	r1, r7, r5
20000862:	f000 faad 	bl	20000dc0 <__panic_veneer>
20000866:	bf00      	nop
20000868:	200023f8 	.word	0x200023f8
2000086c:	200020b8 	.word	0x200020b8
20000870:	200020f8 	.word	0x200020f8
20000874:	20002138 	.word	0x20002138
20000878:	20002178 	.word	0x20002178
2000087c:	200021b8 	.word	0x200021b8
20000880:	200021f8 	.word	0x200021f8
20000884:	20002238 	.word	0x20002238
20000888:	20002278 	.word	0x20002278
2000088c:	200022b8 	.word	0x200022b8
20000890:	200022f8 	.word	0x200022f8
20000894:	20002338 	.word	0x20002338
20000898:	20002378 	.word	0x20002378
2000089c:	200023b8 	.word	0x200023b8
200008a0:	100082e4 	.word	0x100082e4

200008a4 <prepare_ep_buffer>:
200008a4:	e92d 43f0 	stmdb	sp!, {r4, r5, r6, r7, r8, r9, lr}
200008a8:	8a82      	ldrh	r2, [r0, #20]
200008aa:	8b04      	ldrh	r4, [r0, #24]
200008ac:	4603      	mov	r3, r0
200008ae:	4294      	cmp	r4, r2
200008b0:	78c0      	ldrb	r0, [r0, #3]
200008b2:	bf28      	it	cs
200008b4:	4614      	movcs	r4, r2
200008b6:	1e05      	subs	r5, r0, #0
200008b8:	bf18      	it	ne
200008ba:	2501      	movne	r5, #1
200008bc:	f080 0001 	eor.w	r0, r0, #1
200008c0:	1b12      	subs	r2, r2, r4
200008c2:	785e      	ldrb	r6, [r3, #1]
200008c4:	70d8      	strb	r0, [r3, #3]
200008c6:	b292      	uxth	r2, r2
200008c8:	f444 6080 	orr.w	r0, r4, #1024	@ 0x400
200008cc:	829a      	strh	r2, [r3, #20]
200008ce:	ea40 3045 	orr.w	r0, r0, r5, lsl #13
200008d2:	bb06      	cbnz	r6, 20000916 <prepare_ep_buffer+0x72>
200008d4:	68dd      	ldr	r5, [r3, #12]
200008d6:	f104 38ff 	add.w	r8, r4, #4294967295	@ 0xffffffff
200008da:	eb05 1c81 	add.w	ip, r5, r1, lsl #6
200008de:	691d      	ldr	r5, [r3, #16]
200008e0:	b1ac      	cbz	r4, 2000090e <prepare_ep_buffer+0x6a>
200008e2:	f1b8 0f05 	cmp.w	r8, #5
200008e6:	f105 0201 	add.w	r2, r5, #1
200008ea:	d903      	bls.n	200008f4 <prepare_ep_buffer+0x50>
200008ec:	ebac 0702 	sub.w	r7, ip, r2
200008f0:	2f02      	cmp	r7, #2
200008f2:	d817      	bhi.n	20000924 <prepare_ep_buffer+0x80>
200008f4:	f10c 3cff 	add.w	ip, ip, #4294967295	@ 0xffffffff
200008f8:	4425      	add	r5, r4
200008fa:	e000      	b.n	200008fe <prepare_ep_buffer+0x5a>
200008fc:	3201      	adds	r2, #1
200008fe:	f812 6c01 	ldrb.w	r6, [r2, #-1]
20000902:	42aa      	cmp	r2, r5
20000904:	f80c 6f01 	strb.w	r6, [ip, #1]!
20000908:	d1f8      	bne.n	200008fc <prepare_ep_buffer+0x58>
2000090a:	691d      	ldr	r5, [r3, #16]
2000090c:	8a9a      	ldrh	r2, [r3, #20]
2000090e:	4425      	add	r5, r4
20000910:	611d      	str	r5, [r3, #16]
20000912:	f440 4000 	orr.w	r0, r0, #32768	@ 0x8000
20000916:	b90a      	cbnz	r2, 2000091c <prepare_ep_buffer+0x78>
20000918:	f440 4080 	orr.w	r0, r0, #16384	@ 0x4000
2000091c:	b101      	cbz	r1, 20000920 <prepare_ep_buffer+0x7c>
2000091e:	0400      	lsls	r0, r0, #16
20000920:	e8bd 83f0 	ldmia.w	sp!, {r4, r5, r6, r7, r8, r9, pc}
20000924:	462f      	mov	r7, r5
20000926:	46e6      	mov	lr, ip
20000928:	4632      	mov	r2, r6
2000092a:	1f26      	subs	r6, r4, #4
2000092c:	08b6      	lsrs	r6, r6, #2
2000092e:	3601      	adds	r6, #1
20000930:	f857 9b04 	ldr.w	r9, [r7], #4
20000934:	3201      	adds	r2, #1
20000936:	4296      	cmp	r6, r2
20000938:	f84e 9b04 	str.w	r9, [lr], #4
2000093c:	d8f8      	bhi.n	20000930 <prepare_ep_buffer+0x8c>
2000093e:	ebb4 0f86 	cmp.w	r4, r6, lsl #2
20000942:	eba8 0286 	sub.w	r2, r8, r6, lsl #2
20000946:	eb05 0e86 	add.w	lr, r5, r6, lsl #2
2000094a:	eb0c 0786 	add.w	r7, ip, r6, lsl #2
2000094e:	d0dc      	beq.n	2000090a <prepare_ep_buffer+0x66>
20000950:	f815 5026 	ldrb.w	r5, [r5, r6, lsl #2]
20000954:	f80c 5026 	strb.w	r5, [ip, r6, lsl #2]
20000958:	2a00      	cmp	r2, #0
2000095a:	d0d6      	beq.n	2000090a <prepare_ep_buffer+0x66>
2000095c:	f89e 5001 	ldrb.w	r5, [lr, #1]
20000960:	2a01      	cmp	r2, #1
20000962:	707d      	strb	r5, [r7, #1]
20000964:	d0d1      	beq.n	2000090a <prepare_ep_buffer+0x66>
20000966:	f89e 2002 	ldrb.w	r2, [lr, #2]
2000096a:	70ba      	strb	r2, [r7, #2]
2000096c:	691d      	ldr	r5, [r3, #16]
2000096e:	8a9a      	ldrh	r2, [r3, #20]
20000970:	e7cd      	b.n	2000090e <prepare_ep_buffer+0x6a>
20000972:	bf00      	nop

20000974 <sync_ep_buffer>:
20000974:	6883      	ldr	r3, [r0, #8]
20000976:	4602      	mov	r2, r0
20000978:	6818      	ldr	r0, [r3, #0]
2000097a:	b101      	cbz	r1, 2000097e <sync_ep_buffer+0xa>
2000097c:	0c00      	lsrs	r0, r0, #16
2000097e:	7853      	ldrb	r3, [r2, #1]
20000980:	f3c0 0009 	ubfx	r0, r0, #0, #10
20000984:	b313      	cbz	r3, 200009cc <sync_ep_buffer+0x58>
20000986:	b5f0      	push	{r4, r5, r6, r7, lr}
20000988:	e9d2 5403 	ldrd	r5, r4, [r2, #12]
2000098c:	018f      	lsls	r7, r1, #6
2000098e:	eb05 1381 	add.w	r3, r5, r1, lsl #6
20000992:	1e46      	subs	r6, r0, #1
20000994:	b178      	cbz	r0, 200009b6 <sync_ep_buffer+0x42>
20000996:	2e05      	cmp	r6, #5
20000998:	d904      	bls.n	200009a4 <sync_ep_buffer+0x30>
2000099a:	3701      	adds	r7, #1
2000099c:	443d      	add	r5, r7
2000099e:	1b65      	subs	r5, r4, r5
200009a0:	2d02      	cmp	r5, #2
200009a2:	d81c      	bhi.n	200009de <sync_ep_buffer+0x6a>
200009a4:	1e61      	subs	r1, r4, #1
200009a6:	181d      	adds	r5, r3, r0
200009a8:	f813 4b01 	ldrb.w	r4, [r3], #1
200009ac:	429d      	cmp	r5, r3
200009ae:	f801 4f01 	strb.w	r4, [r1, #1]!
200009b2:	d1f9      	bne.n	200009a8 <sync_ep_buffer+0x34>
200009b4:	6914      	ldr	r4, [r2, #16]
200009b6:	8ad3      	ldrh	r3, [r2, #22]
200009b8:	4404      	add	r4, r0
200009ba:	4403      	add	r3, r0
200009bc:	82d3      	strh	r3, [r2, #22]
200009be:	8b13      	ldrh	r3, [r2, #24]
200009c0:	6114      	str	r4, [r2, #16]
200009c2:	4283      	cmp	r3, r0
200009c4:	bf84      	itt	hi
200009c6:	2300      	movhi	r3, #0
200009c8:	8293      	strhhi	r3, [r2, #20]
200009ca:	bdf0      	pop	{r4, r5, r6, r7, pc}
200009cc:	8ad3      	ldrh	r3, [r2, #22]
200009ce:	4403      	add	r3, r0
200009d0:	82d3      	strh	r3, [r2, #22]
200009d2:	8b13      	ldrh	r3, [r2, #24]
200009d4:	4283      	cmp	r3, r0
200009d6:	bf84      	itt	hi
200009d8:	2300      	movhi	r3, #0
200009da:	8293      	strhhi	r3, [r2, #20]
200009dc:	4770      	bx	lr
200009de:	469e      	mov	lr, r3
200009e0:	4625      	mov	r5, r4
200009e2:	2100      	movs	r1, #0
200009e4:	f1a0 0c04 	sub.w	ip, r0, #4
200009e8:	ea4f 0c9c 	mov.w	ip, ip, lsr #2
200009ec:	f10c 0c01 	add.w	ip, ip, #1
200009f0:	f85e 7b04 	ldr.w	r7, [lr], #4
200009f4:	3101      	adds	r1, #1
200009f6:	4561      	cmp	r1, ip
200009f8:	f845 7b04 	str.w	r7, [r5], #4
200009fc:	d3f8      	bcc.n	200009f0 <sync_ep_buffer+0x7c>
200009fe:	ebb0 0f8c 	cmp.w	r0, ip, lsl #2
20000a02:	eba6 068c 	sub.w	r6, r6, ip, lsl #2
20000a06:	eb03 058c 	add.w	r5, r3, ip, lsl #2
20000a0a:	eb04 018c 	add.w	r1, r4, ip, lsl #2
20000a0e:	d0d1      	beq.n	200009b4 <sync_ep_buffer+0x40>
20000a10:	f813 302c 	ldrb.w	r3, [r3, ip, lsl #2]
20000a14:	f804 302c 	strb.w	r3, [r4, ip, lsl #2]
20000a18:	2e00      	cmp	r6, #0
20000a1a:	d0cb      	beq.n	200009b4 <sync_ep_buffer+0x40>
20000a1c:	786b      	ldrb	r3, [r5, #1]
20000a1e:	2e01      	cmp	r6, #1
20000a20:	704b      	strb	r3, [r1, #1]
20000a22:	d0c7      	beq.n	200009b4 <sync_ep_buffer+0x40>
20000a24:	78ab      	ldrb	r3, [r5, #2]
20000a26:	708b      	strb	r3, [r1, #2]
20000a28:	6914      	ldr	r4, [r2, #16]
20000a2a:	e7c4      	b.n	200009b6 <sync_ep_buffer+0x42>

20000a2c <_hw_endpoint_xfer_sync>:
20000a2c:	b510      	push	{r4, lr}
20000a2e:	4604      	mov	r4, r0
20000a30:	6883      	ldr	r3, [r0, #8]
20000a32:	2100      	movs	r1, #0
20000a34:	681b      	ldr	r3, [r3, #0]
20000a36:	f7ff ff9d 	bl	20000974 <sync_ep_buffer>
20000a3a:	6863      	ldr	r3, [r4, #4]
20000a3c:	681b      	ldr	r3, [r3, #0]
20000a3e:	005b      	lsls	r3, r3, #1
20000a40:	d502      	bpl.n	20000a48 <_hw_endpoint_xfer_sync+0x1c>
20000a42:	8b23      	ldrh	r3, [r4, #24]
20000a44:	4283      	cmp	r3, r0
20000a46:	d000      	beq.n	20000a4a <_hw_endpoint_xfer_sync+0x1e>
20000a48:	bd10      	pop	{r4, pc}
20000a4a:	4620      	mov	r0, r4
20000a4c:	e8bd 4010 	ldmia.w	sp!, {r4, lr}
20000a50:	2101      	movs	r1, #1
20000a52:	f7ff bf8f 	b.w	20000974 <sync_ep_buffer>
20000a56:	bf00      	nop

20000a58 <e15_is_bulkin_ep>:
20000a58:	4b08      	ldr	r3, [pc, #32]	@ (20000a7c <e15_is_bulkin_ep+0x24>)
20000a5a:	6c1b      	ldr	r3, [r3, #64]	@ 0x40
20000a5c:	f013 0302 	ands.w	r3, r3, #2
20000a60:	d102      	bne.n	20000a68 <e15_is_bulkin_ep+0x10>
20000a62:	7882      	ldrb	r2, [r0, #2]
20000a64:	09d2      	lsrs	r2, r2, #7
20000a66:	d101      	bne.n	20000a6c <e15_is_bulkin_ep+0x14>
20000a68:	2000      	movs	r0, #0
20000a6a:	4770      	bx	lr
20000a6c:	7ec0      	ldrb	r0, [r0, #27]
20000a6e:	f1a0 0002 	sub.w	r0, r0, #2
20000a72:	fab0 f080 	clz	r0, r0
20000a76:	0940      	lsrs	r0, r0, #5
20000a78:	4770      	bx	lr
20000a7a:	bf00      	nop
20000a7c:	50110000 	.word	0x50110000

20000a80 <e15_is_critical_frame_period>:
20000a80:	b508      	push	{r3, lr}
20000a82:	f7ff ffe9 	bl	20000a58 <e15_is_bulkin_ep>
20000a86:	b150      	cbz	r0, 20000a9e <e15_is_critical_frame_period+0x1e>
20000a88:	4a05      	ldr	r2, [pc, #20]	@ (20000aa0 <e15_is_critical_frame_period+0x20>)
20000a8a:	4b06      	ldr	r3, [pc, #24]	@ (20000aa4 <e15_is_critical_frame_period+0x24>)
20000a8c:	6a90      	ldr	r0, [r2, #40]	@ 0x28
20000a8e:	681b      	ldr	r3, [r3, #0]
20000a90:	f5a0 7048 	sub.w	r0, r0, #800	@ 0x320
20000a94:	1ac0      	subs	r0, r0, r3
20000a96:	28c6      	cmp	r0, #198	@ 0xc6
20000a98:	bf8c      	ite	hi
20000a9a:	2000      	movhi	r0, #0
20000a9c:	2001      	movls	r0, #1
20000a9e:	bd08      	pop	{r3, pc}
20000aa0:	400b0000 	.word	0x400b0000
20000aa4:	2000204c 	.word	0x2000204c

20000aa8 <hw_endpoint_reset_transfer>:
20000aa8:	2300      	movs	r3, #0
20000aaa:	e9c0 3304 	strd	r3, r3, [r0, #16]
20000aae:	7683      	strb	r3, [r0, #26]
20000ab0:	4770      	bx	lr
20000ab2:	bf00      	nop

20000ab4 <_hw_endpoint_buffer_control_update32>:
20000ab4:	b510      	push	{r4, lr}
20000ab6:	6883      	ldr	r3, [r0, #8]
20000ab8:	b109      	cbz	r1, 20000abe <_hw_endpoint_buffer_control_update32+0xa>
20000aba:	681c      	ldr	r4, [r3, #0]
20000abc:	4021      	ands	r1, r4
20000abe:	b182      	cbz	r2, 20000ae2 <_hw_endpoint_buffer_control_update32+0x2e>
20000ac0:	4311      	orrs	r1, r2
20000ac2:	0552      	lsls	r2, r2, #21
20000ac4:	d50d      	bpl.n	20000ae2 <_hw_endpoint_buffer_control_update32+0x2e>
20000ac6:	681a      	ldr	r2, [r3, #0]
20000ac8:	0554      	lsls	r4, r2, #21
20000aca:	d40c      	bmi.n	20000ae6 <_hw_endpoint_buffer_control_update32+0x32>
20000acc:	4a08      	ldr	r2, [pc, #32]	@ (20000af0 <_hw_endpoint_buffer_control_update32+0x3c>)
20000ace:	f421 6480 	bic.w	r4, r1, #1024	@ 0x400
20000ad2:	601c      	str	r4, [r3, #0]
20000ad4:	6c12      	ldr	r2, [r2, #64]	@ 0x40
20000ad6:	0792      	lsls	r2, r2, #30
20000ad8:	d403      	bmi.n	20000ae2 <_hw_endpoint_buffer_control_update32+0x2e>
20000ada:	230c      	movs	r3, #12
20000adc:	3b03      	subs	r3, #3
20000ade:	d2fd      	bcs.n	20000adc <_hw_endpoint_buffer_control_update32+0x28>
20000ae0:	6883      	ldr	r3, [r0, #8]
20000ae2:	6019      	str	r1, [r3, #0]
20000ae4:	bd10      	pop	{r4, pc}
20000ae6:	7881      	ldrb	r1, [r0, #2]
20000ae8:	4802      	ldr	r0, [pc, #8]	@ (20000af4 <_hw_endpoint_buffer_control_update32+0x40>)
20000aea:	f000 f969 	bl	20000dc0 <__panic_veneer>
20000aee:	bf00      	nop
20000af0:	50110000 	.word	0x50110000
20000af4:	100082f8 	.word	0x100082f8

20000af8 <hw_endpoint_start_next_buffer>:
20000af8:	b530      	push	{r4, r5, lr}
20000afa:	6843      	ldr	r3, [r0, #4]
20000afc:	2100      	movs	r1, #0
20000afe:	b083      	sub	sp, #12
20000b00:	4604      	mov	r4, r0
20000b02:	681d      	ldr	r5, [r3, #0]
20000b04:	f7ff fece 	bl	200008a4 <prepare_ep_buffer>
20000b08:	4b13      	ldr	r3, [pc, #76]	@ (20000b58 <hw_endpoint_start_next_buffer+0x60>)
20000b0a:	f440 5280 	orr.w	r2, r0, #4096	@ 0x1000
20000b0e:	6c1b      	ldr	r3, [r3, #64]	@ 0x40
20000b10:	f013 0f02 	tst.w	r3, #2
20000b14:	78a3      	ldrb	r3, [r4, #2]
20000b16:	d00e      	beq.n	20000b36 <hw_endpoint_start_next_buffer+0x3e>
20000b18:	065b      	lsls	r3, r3, #25
20000b1a:	d00e      	beq.n	20000b3a <hw_endpoint_start_next_buffer+0x42>
20000b1c:	f025 45a0 	bic.w	r5, r5, #1342177280	@ 0x50000000
20000b20:	f045 5500 	orr.w	r5, r5, #536870912	@ 0x20000000
20000b24:	2100      	movs	r1, #0
20000b26:	4620      	mov	r0, r4
20000b28:	6863      	ldr	r3, [r4, #4]
20000b2a:	601d      	str	r5, [r3, #0]
20000b2c:	b003      	add	sp, #12
20000b2e:	e8bd 4030 	ldmia.w	sp!, {r4, r5, lr}
20000b32:	f7ff bfbf 	b.w	20000ab4 <_hw_endpoint_buffer_control_update32>
20000b36:	09db      	lsrs	r3, r3, #7
20000b38:	d0f0      	beq.n	20000b1c <hw_endpoint_start_next_buffer+0x24>
20000b3a:	8aa3      	ldrh	r3, [r4, #20]
20000b3c:	2b00      	cmp	r3, #0
20000b3e:	d0ed      	beq.n	20000b1c <hw_endpoint_start_next_buffer+0x24>
20000b40:	2101      	movs	r1, #1
20000b42:	4620      	mov	r0, r4
20000b44:	9201      	str	r2, [sp, #4]
20000b46:	f7ff fead 	bl	200008a4 <prepare_ep_buffer>
20000b4a:	9a01      	ldr	r2, [sp, #4]
20000b4c:	f025 5500 	bic.w	r5, r5, #536870912	@ 0x20000000
20000b50:	4302      	orrs	r2, r0
20000b52:	f045 45a0 	orr.w	r5, r5, #1342177280	@ 0x50000000
20000b56:	e7e5      	b.n	20000b24 <hw_endpoint_start_next_buffer+0x2c>
20000b58:	50110000 	.word	0x50110000

20000b5c <hw_endpoint_xfer_continue>:
20000b5c:	b538      	push	{r3, r4, r5, lr}
20000b5e:	7e85      	ldrb	r5, [r0, #26]
20000b60:	4604      	mov	r4, r0
20000b62:	b195      	cbz	r5, 20000b8a <hw_endpoint_xfer_continue+0x2e>
20000b64:	f7ff ff62 	bl	20000a2c <_hw_endpoint_xfer_sync>
20000b68:	8aa3      	ldrh	r3, [r4, #20]
20000b6a:	b90b      	cbnz	r3, 20000b70 <hw_endpoint_xfer_continue+0x14>
20000b6c:	4628      	mov	r0, r5
20000b6e:	bd38      	pop	{r3, r4, r5, pc}
20000b70:	4620      	mov	r0, r4
20000b72:	f7ff ff85 	bl	20000a80 <e15_is_critical_frame_period>
20000b76:	b120      	cbz	r0, 20000b82 <hw_endpoint_xfer_continue+0x26>
20000b78:	2301      	movs	r3, #1
20000b7a:	7723      	strb	r3, [r4, #28]
20000b7c:	2500      	movs	r5, #0
20000b7e:	4628      	mov	r0, r5
20000b80:	bd38      	pop	{r3, r4, r5, pc}
20000b82:	4620      	mov	r0, r4
20000b84:	f7ff ffb8 	bl	20000af8 <hw_endpoint_start_next_buffer>
20000b88:	e7f8      	b.n	20000b7c <hw_endpoint_xfer_continue+0x20>
20000b8a:	7881      	ldrb	r1, [r0, #2]
20000b8c:	4801      	ldr	r0, [pc, #4]	@ (20000b94 <hw_endpoint_xfer_continue+0x38>)
20000b8e:	f000 f917 	bl	20000dc0 <__panic_veneer>
20000b92:	bf00      	nop
20000b94:	10008318 	.word	0x10008318

20000b98 <dcd_event_handler>:
20000b98:	e92d 43f0 	stmdb	sp!, {r4, r5, r6, r7, r8, r9, lr}
20000b9c:	7843      	ldrb	r3, [r0, #1]
20000b9e:	4681      	mov	r9, r0
20000ba0:	3b02      	subs	r3, #2
20000ba2:	460d      	mov	r5, r1
20000ba4:	b085      	sub	sp, #20
20000ba6:	2b04      	cmp	r3, #4
20000ba8:	d813      	bhi.n	20000bd2 <dcd_event_handler+0x3a>
20000baa:	e8df f003 	tbb	[pc, r3]
20000bae:	4a03      	.short	0x4a03
20000bb0:	736a      	.short	0x736a
20000bb2:	44          	.byte	0x44
20000bb3:	00          	.byte	0x00
20000bb4:	2100      	movs	r1, #0
20000bb6:	4b7b      	ldr	r3, [pc, #492]	@ (20000da4 <dcd_event_handler+0x20c>)
20000bb8:	781a      	ldrb	r2, [r3, #0]
20000bba:	f022 0201 	bic.w	r2, r2, #1
20000bbe:	701a      	strb	r2, [r3, #0]
20000bc0:	781a      	ldrb	r2, [r3, #0]
20000bc2:	f022 0202 	bic.w	r2, r2, #2
20000bc6:	701a      	strb	r2, [r3, #0]
20000bc8:	7059      	strb	r1, [r3, #1]
20000bca:	781a      	ldrb	r2, [r3, #0]
20000bcc:	f361 0282 	bfi	r2, r1, #2, #1
20000bd0:	701a      	strb	r2, [r3, #0]
20000bd2:	4b75      	ldr	r3, [pc, #468]	@ (20000da8 <dcd_event_handler+0x210>)
20000bd4:	681c      	ldr	r4, [r3, #0]
20000bd6:	6963      	ldr	r3, [r4, #20]
20000bd8:	f3ef 8210 	mrs	r2, PRIMASK
20000bdc:	b672      	cpsid	i
20000bde:	e8d3 0fcf 	ldaexb	r0, [r3]
20000be2:	2101      	movs	r1, #1
20000be4:	2800      	cmp	r0, #0
20000be6:	d1fa      	bne.n	20000bde <dcd_event_handler+0x46>
20000be8:	e8c3 1f40 	strexb	r0, r1, [r3]
20000bec:	2800      	cmp	r0, #0
20000bee:	d1f6      	bne.n	20000bde <dcd_event_handler+0x46>
20000bf0:	f3bf 8f5f 	dmb	sy
20000bf4:	61a2      	str	r2, [r4, #24]
20000bf6:	4649      	mov	r1, r9
20000bf8:	4620      	mov	r0, r4
20000bfa:	f000 f8f1 	bl	20000de0 <__tu_fifo_write_veneer>
20000bfe:	2300      	movs	r3, #0
20000c00:	6962      	ldr	r2, [r4, #20]
20000c02:	e8c2 3f8f 	stlb	r3, [r2]
20000c06:	69a3      	ldr	r3, [r4, #24]
20000c08:	f383 8810 	msr	PRIMASK, r3
20000c0c:	b948      	cbnz	r0, 20000c22 <dcd_event_handler+0x8a>
20000c0e:	f04f 23e0 	mov.w	r3, #3758153728	@ 0xe000e000
20000c12:	f8d3 3df0 	ldr.w	r3, [r3, #3568]	@ 0xdf0
20000c16:	07db      	lsls	r3, r3, #31
20000c18:	d50a      	bpl.n	20000c30 <dcd_event_handler+0x98>
20000c1a:	be00      	bkpt	0x0000
20000c1c:	b005      	add	sp, #20
20000c1e:	e8bd 83f0 	ldmia.w	sp!, {r4, r5, r6, r7, r8, r9, pc}
20000c22:	462a      	mov	r2, r5
20000c24:	f899 1001 	ldrb.w	r1, [r9, #1]
20000c28:	f899 0000 	ldrb.w	r0, [r9]
20000c2c:	f000 f8d4 	bl	20000dd8 <__tud_event_hook_cb_veneer>
20000c30:	b005      	add	sp, #20
20000c32:	e8bd 83f0 	ldmia.w	sp!, {r4, r5, r6, r7, r8, r9, pc}
20000c36:	4a5d      	ldr	r2, [pc, #372]	@ (20000dac <dcd_event_handler+0x214>)
20000c38:	7813      	ldrb	r3, [r2, #0]
20000c3a:	3301      	adds	r3, #1
20000c3c:	b2db      	uxtb	r3, r3
20000c3e:	7013      	strb	r3, [r2, #0]
20000c40:	e7c7      	b.n	20000bd2 <dcd_event_handler+0x3a>
20000c42:	2400      	movs	r4, #0
20000c44:	4e5a      	ldr	r6, [pc, #360]	@ (20000db0 <dcd_event_handler+0x218>)
20000c46:	4623      	mov	r3, r4
20000c48:	7831      	ldrb	r1, [r6, #0]
20000c4a:	f8df 816c 	ldr.w	r8, [pc, #364]	@ 20000db8 <dcd_event_handler+0x220>
20000c4e:	4f59      	ldr	r7, [pc, #356]	@ (20000db4 <dcd_event_handler+0x21c>)
20000c50:	e011      	b.n	20000c76 <dcd_event_handler+0xde>
20000c52:	683b      	ldr	r3, [r7, #0]
20000c54:	eb13 1344 	adds.w	r3, r3, r4, lsl #5
20000c58:	d007      	beq.n	20000c6a <dcd_event_handler+0xd2>
20000c5a:	69db      	ldr	r3, [r3, #28]
20000c5c:	b12b      	cbz	r3, 20000c6a <dcd_event_handler+0xd2>
20000c5e:	f8d9 1004 	ldr.w	r1, [r9, #4]
20000c62:	f899 0000 	ldrb.w	r0, [r9]
20000c66:	4798      	blx	r3
20000c68:	7831      	ldrb	r1, [r6, #0]
20000c6a:	3401      	adds	r4, #1
20000c6c:	b2e4      	uxtb	r4, r4
20000c6e:	1c4a      	adds	r2, r1, #1
20000c70:	42a2      	cmp	r2, r4
20000c72:	4623      	mov	r3, r4
20000c74:	db17      	blt.n	20000ca6 <dcd_event_handler+0x10e>
20000c76:	42a1      	cmp	r1, r4
20000c78:	d8eb      	bhi.n	20000c52 <dcd_event_handler+0xba>
20000c7a:	1a5b      	subs	r3, r3, r1
20000c7c:	eb08 1343 	add.w	r3, r8, r3, lsl #5
20000c80:	e7eb      	b.n	20000c5a <dcd_event_handler+0xc2>
20000c82:	4b48      	ldr	r3, [pc, #288]	@ (20000da4 <dcd_event_handler+0x20c>)
20000c84:	781a      	ldrb	r2, [r3, #0]
20000c86:	07d6      	lsls	r6, r2, #31
20000c88:	d5d2      	bpl.n	20000c30 <dcd_event_handler+0x98>
20000c8a:	781a      	ldrb	r2, [r3, #0]
20000c8c:	f042 0204 	orr.w	r2, r2, #4
20000c90:	701a      	strb	r2, [r3, #0]
20000c92:	e79e      	b.n	20000bd2 <dcd_event_handler+0x3a>
20000c94:	4b43      	ldr	r3, [pc, #268]	@ (20000da4 <dcd_event_handler+0x20c>)
20000c96:	781a      	ldrb	r2, [r3, #0]
20000c98:	07d4      	lsls	r4, r2, #31
20000c9a:	d5c9      	bpl.n	20000c30 <dcd_event_handler+0x98>
20000c9c:	781a      	ldrb	r2, [r3, #0]
20000c9e:	f022 0204 	bic.w	r2, r2, #4
20000ca2:	701a      	strb	r2, [r3, #0]
20000ca4:	e795      	b.n	20000bd2 <dcd_event_handler+0x3a>
20000ca6:	4c3f      	ldr	r4, [pc, #252]	@ (20000da4 <dcd_event_handler+0x20c>)
20000ca8:	7823      	ldrb	r3, [r4, #0]
20000caa:	0758      	lsls	r0, r3, #29
20000cac:	d43a      	bmi.n	20000d24 <dcd_event_handler+0x18c>
20000cae:	78e3      	ldrb	r3, [r4, #3]
20000cb0:	07da      	lsls	r2, r3, #31
20000cb2:	d5bd      	bpl.n	20000c30 <dcd_event_handler+0x98>
20000cb4:	2303      	movs	r3, #3
20000cb6:	2600      	movs	r6, #0
20000cb8:	4a3b      	ldr	r2, [pc, #236]	@ (20000da8 <dcd_event_handler+0x210>)
20000cba:	f899 1000 	ldrb.w	r1, [r9]
20000cbe:	6814      	ldr	r4, [r2, #0]
20000cc0:	f8d9 2004 	ldr.w	r2, [r9, #4]
20000cc4:	f88d 1004 	strb.w	r1, [sp, #4]
20000cc8:	f88d 3005 	strb.w	r3, [sp, #5]
20000ccc:	6963      	ldr	r3, [r4, #20]
20000cce:	f8cd 6006 	str.w	r6, [sp, #6]
20000cd2:	f8cd 600a 	str.w	r6, [sp, #10]
20000cd6:	f8ad 600e 	strh.w	r6, [sp, #14]
20000cda:	9202      	str	r2, [sp, #8]
20000cdc:	f3ef 8210 	mrs	r2, PRIMASK
20000ce0:	b672      	cpsid	i
20000ce2:	e8d3 0fcf 	ldaexb	r0, [r3]
20000ce6:	2101      	movs	r1, #1
20000ce8:	2800      	cmp	r0, #0
20000cea:	d1fa      	bne.n	20000ce2 <dcd_event_handler+0x14a>
20000cec:	e8c3 1f40 	strexb	r0, r1, [r3]
20000cf0:	2800      	cmp	r0, #0
20000cf2:	d1f6      	bne.n	20000ce2 <dcd_event_handler+0x14a>
20000cf4:	f3bf 8f5f 	dmb	sy
20000cf8:	4620      	mov	r0, r4
20000cfa:	61a2      	str	r2, [r4, #24]
20000cfc:	a901      	add	r1, sp, #4
20000cfe:	f000 f86f 	bl	20000de0 <__tu_fifo_write_veneer>
20000d02:	6963      	ldr	r3, [r4, #20]
20000d04:	e8c3 6f8f 	stlb	r6, [r3]
20000d08:	69a3      	ldr	r3, [r4, #24]
20000d0a:	f383 8810 	msr	PRIMASK, r3
20000d0e:	2800      	cmp	r0, #0
20000d10:	f43f af7d 	beq.w	20000c0e <dcd_event_handler+0x76>
20000d14:	462a      	mov	r2, r5
20000d16:	f89d 1005 	ldrb.w	r1, [sp, #5]
20000d1a:	f89d 0004 	ldrb.w	r0, [sp, #4]
20000d1e:	f000 f85b 	bl	20000dd8 <__tud_event_hook_cb_veneer>
20000d22:	e785      	b.n	20000c30 <dcd_event_handler+0x98>
20000d24:	7823      	ldrb	r3, [r4, #0]
20000d26:	2700      	movs	r7, #0
20000d28:	f023 0304 	bic.w	r3, r3, #4
20000d2c:	7023      	strb	r3, [r4, #0]
20000d2e:	2305      	movs	r3, #5
20000d30:	4a1d      	ldr	r2, [pc, #116]	@ (20000da8 <dcd_event_handler+0x210>)
20000d32:	f88d 3005 	strb.w	r3, [sp, #5]
20000d36:	6816      	ldr	r6, [r2, #0]
20000d38:	f899 2000 	ldrb.w	r2, [r9]
20000d3c:	f8ad 700e 	strh.w	r7, [sp, #14]
20000d40:	f88d 2004 	strb.w	r2, [sp, #4]
20000d44:	6973      	ldr	r3, [r6, #20]
20000d46:	f8cd 7006 	str.w	r7, [sp, #6]
20000d4a:	f8cd 700a 	str.w	r7, [sp, #10]
20000d4e:	f3ef 8210 	mrs	r2, PRIMASK
20000d52:	b672      	cpsid	i
20000d54:	e8d3 0fcf 	ldaexb	r0, [r3]
20000d58:	2101      	movs	r1, #1
20000d5a:	2800      	cmp	r0, #0
20000d5c:	d1fa      	bne.n	20000d54 <dcd_event_handler+0x1bc>
20000d5e:	e8c3 1f40 	strexb	r0, r1, [r3]
20000d62:	2800      	cmp	r0, #0
20000d64:	d1f6      	bne.n	20000d54 <dcd_event_handler+0x1bc>
20000d66:	f3bf 8f5f 	dmb	sy
20000d6a:	4630      	mov	r0, r6
20000d6c:	61b2      	str	r2, [r6, #24]
20000d6e:	a901      	add	r1, sp, #4
20000d70:	f000 f836 	bl	20000de0 <__tu_fifo_write_veneer>
20000d74:	6973      	ldr	r3, [r6, #20]
20000d76:	e8c3 7f8f 	stlb	r7, [r3]
20000d7a:	69b3      	ldr	r3, [r6, #24]
20000d7c:	f383 8810 	msr	PRIMASK, r3
20000d80:	b938      	cbnz	r0, 20000d92 <dcd_event_handler+0x1fa>
20000d82:	f04f 23e0 	mov.w	r3, #3758153728	@ 0xe000e000
20000d86:	f8d3 3df0 	ldr.w	r3, [r3, #3568]	@ 0xdf0
20000d8a:	07d9      	lsls	r1, r3, #31
20000d8c:	d58f      	bpl.n	20000cae <dcd_event_handler+0x116>
20000d8e:	be00      	bkpt	0x0000
20000d90:	e78d      	b.n	20000cae <dcd_event_handler+0x116>
20000d92:	462a      	mov	r2, r5
20000d94:	f89d 1005 	ldrb.w	r1, [sp, #5]
20000d98:	f89d 0004 	ldrb.w	r0, [sp, #4]
20000d9c:	f000 f81c 	bl	20000dd8 <__tud_event_hook_cb_veneer>
20000da0:	e785      	b.n	20000cae <dcd_event_handler+0x116>
20000da2:	bf00      	nop
20000da4:	20001bf8 	.word	0x20001bf8
20000da8:	20001c50 	.word	0x20001c50
20000dac:	200024bb 	.word	0x200024bb
20000db0:	200024b9 	.word	0x200024b9
20000db4:	20001af4 	.word	0x20001af4
20000db8:	1000853c 	.word	0x1000853c
20000dbc:	00000000 	.word	0x00000000

20000dc0 <__panic_veneer>:
20000dc0:	f85f f000 	ldr.w	pc, [pc]	@ 20000dc4 <__panic_veneer+0x4>
20000dc4:	100003a1 	.word	0x100003a1

20000dc8 <__best_effort_wfe_or_timeout_veneer>:
20000dc8:	f85f f000 	ldr.w	pc, [pc]	@ 20000dcc <__best_effort_wfe_or_timeout_veneer+0x4>
20000dcc:	10001211 	.word	0x10001211

20000dd0 <__memset_veneer>:
20000dd0:	f85f f000 	ldr.w	pc, [pc]	@ 20000dd4 <__memset_veneer+0x4>
20000dd4:	100075d1 	.word	0x100075d1

20000dd8 <__tud_event_hook_cb_veneer>:
20000dd8:	f85f f000 	ldr.w	pc, [pc]	@ 20000ddc <__tud_event_hook_cb_veneer+0x4>
20000ddc:	10002945 	.word	0x10002945

20000de0 <__tu_fifo_write_veneer>:
20000de0:	f85f f000 	ldr.w	pc, [pc]	@ 20000de4 <__tu_fifo_write_veneer+0x4>
20000de4:	10004379 	.word	0x10004379

20000de8 <__time_us_64_veneer>:
20000de8:	f85f f000 	ldr.w	pc, [pc]	@ 20000dec <__time_us_64_veneer+0x4>
20000dec:	10001301 	.word	0x10001301

20000df0 <striped_spin_lock_num>:
20000df0:	00000010                                ....

20000df4 <irq_handler_chain_slots>:
20000df4:	00000000 	.word	0x00000000
20000df8:	00010000 	.word	0x00010000
	...
20000e04:	00020000 	.word	0x00020000
	...
20000e10:	00030000 	.word	0x00030000
	...
20000e1c:	00ff0000 	.word	0x00ff0000
20000e20:	00000000 	.word	0x00000000

20000e24 <irq_handler_chain_first_slot>:
20000e24:	b501      	push	{r0, lr}
20000e26:	6848      	ldr	r0, [r1, #4]
20000e28:	3101      	adds	r1, #1
20000e2a:	468e      	mov	lr, r1
20000e2c:	4700      	bx	r0

20000e2e <irq_handler_chain_remove_tail>:
20000e2e:	4670      	mov	r0, lr
20000e30:	3809      	subs	r0, #9
20000e32:	4901      	ldr	r1, [pc, #4]	@ (20000e38 <irq_handler_chain_remove_tail+0xa>)
20000e34:	4788      	blx	r1
20000e36:	bd01      	pop	{r0, pc}
20000e38:	10000a2d 	.word	0x10000a2d

20000e3c <default_alarm_pool>:
	...
20000e50:	20001508                                ... 

20000e54 <stdio_uart>:
20000e54:	10001ca1 10001da9 10001cf1 10001db9     ................
20000e64:	00000000 00000100                       ........

20000e6c <stdio_usb>:
20000e6c:	100020e5 10002091 10002009 10001f79     . ... ... ..y...
20000e7c:	00000000 00000100                       ........

20000e84 <_usbd_qdef>:
20000e84:	20001c54 000c0010 00000000 00000000     T.. ............
	...

20000ea0 <_usbd_rhport>:
20000ea0:	000000ff                                ....

20000ea4 <_cdcd_cfg>:
20000ea4:	00000004                                ....

20000ea8 <uxCriticalNesting>:
20000ea8:	aaaaaaaa 00000000                       ........

20000eb0 <_impure_ptr>:
20000eb0:	20000eb8 00000000                       ... ....

20000eb8 <_impure_data>:
20000eb8:	00000000 20001820 20001888 200018f0     .... .. ... ... 
	...
20000f50:	00000001 00000000 abcd330e e66d1234     .........3..4.m.
20000f60:	0005deec 0000000b 00000000 00000000     ................
	...

20000fd8 <__malloc_av_>:
	...
20000fe0:	20000fd8 20000fd8 20000fe0 20000fe0     ... ... ... ... 
20000ff0:	20000fe8 20000fe8 20000ff0 20000ff0     ... ... ... ... 
20001000:	20000ff8 20000ff8 20001000 20001000     ... ... ... ... 
20001010:	20001008 20001008 20001010 20001010     ... ... ... ... 
20001020:	20001018 20001018 20001020 20001020     ... ...  ..  .. 
20001030:	20001028 20001028 20001030 20001030     (.. (.. 0.. 0.. 
20001040:	20001038 20001038 20001040 20001040     8.. 8.. @.. @.. 
20001050:	20001048 20001048 20001050 20001050     H.. H.. P.. P.. 
20001060:	20001058 20001058 20001060 20001060     X.. X.. `.. `.. 
20001070:	20001068 20001068 20001070 20001070     h.. h.. p.. p.. 
20001080:	20001078 20001078 20001080 20001080     x.. x.. ... ... 
20001090:	20001088 20001088 20001090 20001090     ... ... ... ... 
200010a0:	20001098 20001098 200010a0 200010a0     ... ... ... ... 
200010b0:	200010a8 200010a8 200010b0 200010b0     ... ... ... ... 
200010c0:	200010b8 200010b8 200010c0 200010c0     ... ... ... ... 
200010d0:	200010c8 200010c8 200010d0 200010d0     ... ... ... ... 
200010e0:	200010d8 200010d8 200010e0 200010e0     ... ... ... ... 
200010f0:	200010e8 200010e8 200010f0 200010f0     ... ... ... ... 
20001100:	200010f8 200010f8 20001100 20001100     ... ... ... ... 
20001110:	20001108 20001108 20001110 20001110     ... ... ... ... 
20001120:	20001118 20001118 20001120 20001120     ... ...  ..  .. 
20001130:	20001128 20001128 20001130 20001130     (.. (.. 0.. 0.. 
20001140:	20001138 20001138 20001140 20001140     8.. 8.. @.. @.. 
20001150:	20001148 20001148 20001150 20001150     H.. H.. P.. P.. 
20001160:	20001158 20001158 20001160 20001160     X.. X.. `.. `.. 
20001170:	20001168 20001168 20001170 20001170     h.. h.. p.. p.. 
20001180:	20001178 20001178 20001180 20001180     x.. x.. ... ... 
20001190:	20001188 20001188 20001190 20001190     ... ... ... ... 
200011a0:	20001198 20001198 200011a0 200011a0     ... ... ... ... 
200011b0:	200011a8 200011a8 200011b0 200011b0     ... ... ... ... 
200011c0:	200011b8 200011b8 200011c0 200011c0     ... ... ... ... 
200011d0:	200011c8 200011c8 200011d0 200011d0     ... ... ... ... 
200011e0:	200011d8 200011d8 200011e0 200011e0     ... ... ... ... 
200011f0:	200011e8 200011e8 200011f0 200011f0     ... ... ... ... 
20001200:	200011f8 200011f8 20001200 20001200     ... ... ... ... 
20001210:	20001208 20001208 20001210 20001210     ... ... ... ... 
20001220:	20001218 20001218 20001220 20001220     ... ...  ..  .. 
20001230:	20001228 20001228 20001230 20001230     (.. (.. 0.. 0.. 
20001240:	20001238 20001238 20001240 20001240     8.. 8.. @.. @.. 
20001250:	20001248 20001248 20001250 20001250     H.. H.. P.. P.. 
20001260:	20001258 20001258 20001260 20001260     X.. X.. `.. `.. 
20001270:	20001268 20001268 20001270 20001270     h.. h.. p.. p.. 
20001280:	20001278 20001278 20001280 20001280     x.. x.. ... ... 
20001290:	20001288 20001288 20001290 20001290     ... ... ... ... 
200012a0:	20001298 20001298 200012a0 200012a0     ... ... ... ... 
200012b0:	200012a8 200012a8 200012b0 200012b0     ... ... ... ... 
200012c0:	200012b8 200012b8 200012c0 200012c0     ... ... ... ... 
200012d0:	200012c8 200012c8 200012d0 200012d0     ... ... ... ... 
200012e0:	200012d8 200012d8 200012e0 200012e0     ... ... ... ... 
200012f0:	200012e8 200012e8 200012f0 200012f0     ... ... ... ... 
20001300:	200012f8 200012f8 20001300 20001300     ... ... ... ... 
20001310:	20001308 20001308 20001310 20001310     ... ... ... ... 
20001320:	20001318 20001318 20001320 20001320     ... ...  ..  .. 
20001330:	20001328 20001328 20001330 20001330     (.. (.. 0.. 0.. 
20001340:	20001338 20001338 20001340 20001340     8.. 8.. @.. @.. 
20001350:	20001348 20001348 20001350 20001350     H.. H.. P.. P.. 
20001360:	20001358 20001358 20001360 20001360     X.. X.. `.. `.. 
20001370:	20001368 20001368 20001370 20001370     h.. h.. p.. p.. 
20001380:	20001378 20001378 20001380 20001380     x.. x.. ... ... 
20001390:	20001388 20001388 20001390 20001390     ... ... ... ... 
200013a0:	20001398 20001398 200013a0 200013a0     ... ... ... ... 
200013b0:	200013a8 200013a8 200013b0 200013b0     ... ... ... ... 
200013c0:	200013b8 200013b8 200013c0 200013c0     ... ... ... ... 
200013d0:	200013c8 200013c8 200013d0 200013d0     ... ... ... ... 

200013e0 <__malloc_sbrk_base>:
200013e0:	ffffffff                                ....

200013e4 <__malloc_trim_threshold>:
200013e4:	00020000                                ....

200013e8 <print_mutex>:
	...
